
/app/testcase/fpga/array_test1.elf:     file format elf32-littleriscv


Disassembly of section .text:

00000000 <_start>:
   0:	00020137          	lui	sp,0x20
   4:	0c8000ef          	jal	cc <main>
   8:	0ff00513          	li	a0,255
   c:	000306b7          	lui	a3,0x30
  10:	00a68223          	sb	a0,4(a3) # 30004 <__heap_start+0x2f004>
  14:	bfe5                	j	c <_start+0xc>
	...

00000018 <__divsi3>:
  18:	06054063          	bltz	a0,78 <__umodsi3+0x10>
  1c:	0605c663          	bltz	a1,88 <__umodsi3+0x20>

00000020 <__hidden___udivsi3>:
  20:	00058613          	mv	a2,a1
  24:	00050593          	mv	a1,a0
  28:	fff00513          	li	a0,-1
  2c:	02060c63          	beqz	a2,64 <__hidden___udivsi3+0x44>
  30:	00100693          	li	a3,1
  34:	00b67a63          	bgeu	a2,a1,48 <__hidden___udivsi3+0x28>
  38:	00c05863          	blez	a2,48 <__hidden___udivsi3+0x28>
  3c:	00161613          	slli	a2,a2,0x1
  40:	00169693          	slli	a3,a3,0x1
  44:	feb66ae3          	bltu	a2,a1,38 <__hidden___udivsi3+0x18>
  48:	00000513          	li	a0,0
  4c:	00c5e663          	bltu	a1,a2,58 <__hidden___udivsi3+0x38>
  50:	40c585b3          	sub	a1,a1,a2
  54:	00d56533          	or	a0,a0,a3
  58:	0016d693          	srli	a3,a3,0x1
  5c:	00165613          	srli	a2,a2,0x1
  60:	fe0696e3          	bnez	a3,4c <__hidden___udivsi3+0x2c>
  64:	00008067          	ret

00000068 <__umodsi3>:
  68:	00008293          	mv	t0,ra
  6c:	fb5ff0ef          	jal	20 <__hidden___udivsi3>
  70:	00058513          	mv	a0,a1
  74:	00028067          	jr	t0
  78:	40a00533          	neg	a0,a0
  7c:	00b04863          	bgtz	a1,8c <__umodsi3+0x24>
  80:	40b005b3          	neg	a1,a1
  84:	f9dff06f          	j	20 <__hidden___udivsi3>
  88:	40b005b3          	neg	a1,a1
  8c:	00008293          	mv	t0,ra
  90:	f91ff0ef          	jal	20 <__hidden___udivsi3>
  94:	40a00533          	neg	a0,a0
  98:	00028067          	jr	t0

0000009c <__modsi3>:
  9c:	00008293          	mv	t0,ra
  a0:	0005ca63          	bltz	a1,b4 <__modsi3+0x18>
  a4:	00054c63          	bltz	a0,bc <__modsi3+0x20>
  a8:	f79ff0ef          	jal	20 <__hidden___udivsi3>
  ac:	00058513          	mv	a0,a1
  b0:	00028067          	jr	t0
  b4:	40b005b3          	neg	a1,a1
  b8:	fe0558e3          	bgez	a0,a8 <__modsi3+0xc>
  bc:	40a00533          	neg	a0,a0
  c0:	f61ff0ef          	jal	20 <__hidden___udivsi3>
  c4:	40b00533          	neg	a0,a1
  c8:	00028067          	jr	t0

Disassembly of section .text.startup:

000000cc <main>:
  cc:	711d                	addi	sp,sp,-96
  ce:	caa6                	sw	s1,84(sp)
  d0:	c8ca                	sw	s2,80(sp)
  d2:	0804                	addi	s1,sp,16
  d4:	28400913          	li	s2,644
  d8:	c6ce                	sw	s3,76(sp)
  da:	ce86                	sw	ra,92(sp)
  dc:	cca2                	sw	s0,88(sp)
  de:	c4d2                	sw	s4,72(sp)
  e0:	c2d6                	sw	s5,68(sp)
  e2:	c0da                	sw	s6,64(sp)
  e4:	de5e                	sw	s7,60(sp)
  e6:	dc62                	sw	s8,56(sp)
  e8:	da66                	sw	s9,52(sp)
  ea:	d86a                	sw	s10,48(sp)
  ec:	d66e                	sw	s11,44(sp)
  ee:	28400e13          	li	t3,644
  f2:	01090993          	addi	s3,s2,16
  f6:	8ea6                	mv	t4,s1
  f8:	000305b7          	lui	a1,0x30
  fc:	4529                	li	a0,10
  fe:	02000f13          	li	t5,32
 102:	02d00813          	li	a6,45
 106:	48a5                	li	a7,9
 108:	000e2023          	sw	zero,0(t3)
 10c:	a019                	j	112 <main+0x46>
 10e:	16a71463          	bne	a4,a0,276 <main+0x1aa>
 112:	0005c783          	lbu	a5,0(a1) # 30000 <__heap_start+0x2f000>
 116:	0ff7f713          	zext.b	a4,a5
 11a:	fbf5                	bnez	a5,10e <main+0x42>
 11c:	4301                	li	t1,0
 11e:	4601                	li	a2,0
 120:	a819                	j	136 <main+0x6a>
 122:	12d8ef63          	bltu	a7,a3,260 <main+0x194>
 126:	0005c683          	lbu	a3,0(a1)
 12a:	fd078613          	addi	a2,a5,-48
 12e:	0ff6f713          	zext.b	a4,a3
 132:	12068763          	beqz	a3,260 <main+0x194>
 136:	00261793          	slli	a5,a2,0x2
 13a:	97b2                	add	a5,a5,a2
 13c:	0786                	slli	a5,a5,0x1
 13e:	fd070693          	addi	a3,a4,-48
 142:	97ba                	add	a5,a5,a4
 144:	0ff6f693          	zext.b	a3,a3
 148:	fd071de3          	bne	a4,a6,122 <main+0x56>
 14c:	10030163          	beqz	t1,24e <main+0x182>
 150:	40c00633          	neg	a2,a2
 154:	00cea023          	sw	a2,0(t4)
 158:	0e11                	addi	t3,t3,4
 15a:	0e91                	addi	t4,t4,4
 15c:	fb3e16e3          	bne	t3,s3,108 <main+0x3c>
 160:	00410a93          	addi	s5,sp,4 # 20004 <__heap_start+0x1f004>
 164:	4b25                	li	s6,9
 166:	02d00c13          	li	s8,45
 16a:	00030bb7          	lui	s7,0x30
 16e:	00092403          	lw	s0,0(s2)
 172:	4c81                	li	s9,0
 174:	0e044963          	bltz	s0,266 <main+0x19a>
 178:	4d01                	li	s10,0
 17a:	45a9                	li	a1,10
 17c:	8522                	mv	a0,s0
 17e:	3f39                	jal	9c <__modsi3>
 180:	8a6a                	mv	s4,s10
 182:	0d05                	addi	s10,s10,1
 184:	01aa8db3          	add	s11,s5,s10
 188:	03050513          	addi	a0,a0,48
 18c:	fead8fa3          	sb	a0,-1(s11)
 190:	45a9                	li	a1,10
 192:	8522                	mv	a0,s0
 194:	8da2                	mv	s11,s0
 196:	3549                	jal	18 <__divsi3>
 198:	842a                	mv	s0,a0
 19a:	ffbb40e3          	blt	s6,s11,17a <main+0xae>
 19e:	000c8763          	beqz	s9,1ac <main+0xe0>
 1a2:	002d07b3          	add	a5,s10,sp
 1a6:	01878223          	sb	s8,4(a5)
 1aa:	8a6a                	mv	s4,s10
 1ac:	014a87b3          	add	a5,s5,s4
 1b0:	0007c683          	lbu	a3,0(a5)
 1b4:	873e                	mv	a4,a5
 1b6:	17fd                	addi	a5,a5,-1
 1b8:	00db8023          	sb	a3,0(s7) # 30000 <__heap_start+0x2f000>
 1bc:	feea9ae3          	bne	s5,a4,1b0 <main+0xe4>
 1c0:	0911                	addi	s2,s2,4
 1c2:	fb3916e3          	bne	s2,s3,16e <main+0xa2>
 1c6:	47a9                	li	a5,10
 1c8:	00fb8023          	sb	a5,0(s7)
 1cc:	4a25                	li	s4,9
 1ce:	02d00b93          	li	s7,45
 1d2:	00030b37          	lui	s6,0x30
 1d6:	4080                	lw	s0,0(s1)
 1d8:	4c01                	li	s8,0
 1da:	08044a63          	bltz	s0,26e <main+0x1a2>
 1de:	4981                	li	s3,0
 1e0:	45a9                	li	a1,10
 1e2:	8522                	mv	a0,s0
 1e4:	3d65                	jal	9c <__modsi3>
 1e6:	894e                	mv	s2,s3
 1e8:	0985                	addi	s3,s3,1
 1ea:	013a8cb3          	add	s9,s5,s3
 1ee:	03050513          	addi	a0,a0,48
 1f2:	feac8fa3          	sb	a0,-1(s9)
 1f6:	45a9                	li	a1,10
 1f8:	8522                	mv	a0,s0
 1fa:	8ca2                	mv	s9,s0
 1fc:	3d31                	jal	18 <__divsi3>
 1fe:	842a                	mv	s0,a0
 200:	ff9a40e3          	blt	s4,s9,1e0 <main+0x114>
 204:	000c0763          	beqz	s8,212 <main+0x146>
 208:	002987b3          	add	a5,s3,sp
 20c:	01778223          	sb	s7,4(a5)
 210:	894e                	mv	s2,s3
 212:	012a87b3          	add	a5,s5,s2
 216:	0007c683          	lbu	a3,0(a5)
 21a:	873e                	mv	a4,a5
 21c:	17fd                	addi	a5,a5,-1
 21e:	00db0023          	sb	a3,0(s6) # 30000 <__heap_start+0x2f000>
 222:	feea9ae3          	bne	s5,a4,216 <main+0x14a>
 226:	0491                	addi	s1,s1,4
 228:	101c                	addi	a5,sp,32
 22a:	faf496e3          	bne	s1,a5,1d6 <main+0x10a>
 22e:	40f6                	lw	ra,92(sp)
 230:	4466                	lw	s0,88(sp)
 232:	44d6                	lw	s1,84(sp)
 234:	4946                	lw	s2,80(sp)
 236:	49b6                	lw	s3,76(sp)
 238:	4a26                	lw	s4,72(sp)
 23a:	4a96                	lw	s5,68(sp)
 23c:	4b06                	lw	s6,64(sp)
 23e:	5bf2                	lw	s7,60(sp)
 240:	5c62                	lw	s8,56(sp)
 242:	5cd2                	lw	s9,52(sp)
 244:	5d42                	lw	s10,48(sp)
 246:	5db2                	lw	s11,44(sp)
 248:	4501                	li	a0,0
 24a:	6125                	addi	sp,sp,96
 24c:	8082                	ret
 24e:	0005c683          	lbu	a3,0(a1)
 252:	4305                	li	t1,1
 254:	fd078613          	addi	a2,a5,-48
 258:	0ff6f713          	zext.b	a4,a3
 25c:	ec069de3          	bnez	a3,136 <main+0x6a>
 260:	ee030ae3          	beqz	t1,154 <main+0x88>
 264:	b5f5                	j	150 <main+0x84>
 266:	40800433          	neg	s0,s0
 26a:	4c85                	li	s9,1
 26c:	b731                	j	178 <main+0xac>
 26e:	40800433          	neg	s0,s0
 272:	4c05                	li	s8,1
 274:	b7ad                	j	1de <main+0x112>
 276:	e9e70ee3          	beq	a4,t5,112 <main+0x46>
 27a:	47a5                	li	a5,9
 27c:	e8f70be3          	beq	a4,a5,112 <main+0x46>
 280:	bd71                	j	11c <main+0x50>
