
/app/testcase/fpga/expr.elf:     file format elf32-littleriscv


Disassembly of section .text:

00000000 <_start>:
   0:	00020137          	lui	sp,0x20
   4:	154000ef          	jal	158 <main>
   8:	0ff00513          	li	a0,255
   c:	000306b7          	lui	a3,0x30
  10:	00a68223          	sb	a0,4(a3) # 30004 <__heap_start+0x2f004>
  14:	bfe5                	j	c <_start+0xc>

00000016 <outl>:
  16:	7179                	addi	sp,sp,-48
  18:	d422                	sw	s0,40(sp)
  1a:	c85a                	sw	s6,16(sp)
  1c:	d606                	sw	ra,44(sp)
  1e:	d226                	sw	s1,36(sp)
  20:	d04a                	sw	s2,32(sp)
  22:	ce4e                	sw	s3,28(sp)
  24:	cc52                	sw	s4,24(sp)
  26:	ca56                	sw	s5,20(sp)
  28:	842a                	mv	s0,a0
  2a:	4b01                	li	s6,0
  2c:	00055563          	bgez	a0,36 <outl+0x20>
  30:	40a00433          	neg	s0,a0
  34:	4b05                	li	s6,1
  36:	4901                	li	s2,0
  38:	00410993          	addi	s3,sp,4 # 20004 <__heap_start+0x1f004>
  3c:	4aa5                	li	s5,9
  3e:	45a9                	li	a1,10
  40:	8522                	mv	a0,s0
  42:	20dd                	jal	128 <__modsi3>
  44:	84ca                	mv	s1,s2
  46:	0905                	addi	s2,s2,1
  48:	01298a33          	add	s4,s3,s2
  4c:	03050513          	addi	a0,a0,48
  50:	feaa0fa3          	sb	a0,-1(s4)
  54:	45a9                	li	a1,10
  56:	8522                	mv	a0,s0
  58:	8a22                	mv	s4,s0
  5a:	20a9                	jal	a4 <__divsi3>
  5c:	842a                	mv	s0,a0
  5e:	ff4ac0e3          	blt	s5,s4,3e <outl+0x28>
  62:	000b0a63          	beqz	s6,76 <outl+0x60>
  66:	01090793          	addi	a5,s2,16
  6a:	978a                	add	a5,a5,sp
  6c:	02d00713          	li	a4,45
  70:	84ca                	mv	s1,s2
  72:	fee78a23          	sb	a4,-12(a5)
  76:	009987b3          	add	a5,s3,s1
  7a:	00030637          	lui	a2,0x30
  7e:	0007c683          	lbu	a3,0(a5)
  82:	873e                	mv	a4,a5
  84:	17fd                	addi	a5,a5,-1
  86:	00d60023          	sb	a3,0(a2) # 30000 <__heap_start+0x2f000>
  8a:	fee99ae3          	bne	s3,a4,7e <outl+0x68>
  8e:	50b2                	lw	ra,44(sp)
  90:	5422                	lw	s0,40(sp)
  92:	5492                	lw	s1,36(sp)
  94:	5902                	lw	s2,32(sp)
  96:	49f2                	lw	s3,28(sp)
  98:	4a62                	lw	s4,24(sp)
  9a:	4ad2                	lw	s5,20(sp)
  9c:	4b42                	lw	s6,16(sp)
  9e:	6145                	addi	sp,sp,48
  a0:	8082                	ret
	...

000000a4 <__divsi3>:
  a4:	06054063          	bltz	a0,104 <__umodsi3+0x10>
  a8:	0605c663          	bltz	a1,114 <__umodsi3+0x20>

000000ac <__hidden___udivsi3>:
  ac:	00058613          	mv	a2,a1
  b0:	00050593          	mv	a1,a0
  b4:	fff00513          	li	a0,-1
  b8:	02060c63          	beqz	a2,f0 <__hidden___udivsi3+0x44>
  bc:	00100693          	li	a3,1
  c0:	00b67a63          	bgeu	a2,a1,d4 <__hidden___udivsi3+0x28>
  c4:	00c05863          	blez	a2,d4 <__hidden___udivsi3+0x28>
  c8:	00161613          	slli	a2,a2,0x1
  cc:	00169693          	slli	a3,a3,0x1
  d0:	feb66ae3          	bltu	a2,a1,c4 <__hidden___udivsi3+0x18>
  d4:	00000513          	li	a0,0
  d8:	00c5e663          	bltu	a1,a2,e4 <__hidden___udivsi3+0x38>
  dc:	40c585b3          	sub	a1,a1,a2
  e0:	00d56533          	or	a0,a0,a3
  e4:	0016d693          	srli	a3,a3,0x1
  e8:	00165613          	srli	a2,a2,0x1
  ec:	fe0696e3          	bnez	a3,d8 <__hidden___udivsi3+0x2c>
  f0:	00008067          	ret

000000f4 <__umodsi3>:
  f4:	00008293          	mv	t0,ra
  f8:	fb5ff0ef          	jal	ac <__hidden___udivsi3>
  fc:	00058513          	mv	a0,a1
 100:	00028067          	jr	t0
 104:	40a00533          	neg	a0,a0
 108:	00b04863          	bgtz	a1,118 <__umodsi3+0x24>
 10c:	40b005b3          	neg	a1,a1
 110:	f9dff06f          	j	ac <__hidden___udivsi3>
 114:	40b005b3          	neg	a1,a1
 118:	00008293          	mv	t0,ra
 11c:	f91ff0ef          	jal	ac <__hidden___udivsi3>
 120:	40a00533          	neg	a0,a0
 124:	00028067          	jr	t0

00000128 <__modsi3>:
 128:	00008293          	mv	t0,ra
 12c:	0005ca63          	bltz	a1,140 <__modsi3+0x18>
 130:	00054c63          	bltz	a0,148 <__modsi3+0x20>
 134:	f79ff0ef          	jal	ac <__hidden___udivsi3>
 138:	00058513          	mv	a0,a1
 13c:	00028067          	jr	t0
 140:	40b005b3          	neg	a1,a1
 144:	fe0558e3          	bgez	a0,134 <__modsi3+0xc>
 148:	40a00533          	neg	a0,a0
 14c:	f61ff0ef          	jal	ac <__hidden___udivsi3>
 150:	40b00533          	neg	a0,a1
 154:	00028067          	jr	t0

Disassembly of section .text.startup:

00000158 <main>:
 158:	1101                	addi	sp,sp,-32
 15a:	ca26                	sw	s1,20(sp)
 15c:	1ec02783          	lw	a5,492(zero) # 1ec <__bss_start>
 160:	200005b7          	lui	a1,0x20000
 164:	15fd                	addi	a1,a1,-1 # 1fffffff <__heap_start+0x1fffefff>
 166:	40000637          	lui	a2,0x40000
 16a:	c84a                	sw	s2,16(sp)
 16c:	ce06                	sw	ra,28(sp)
 16e:	cc22                	sw	s0,24(sp)
 170:	c64e                	sw	s3,12(sp)
 172:	00b78733          	add	a4,a5,a1
 176:	1679                	addi	a2,a2,-2 # 3ffffffe <__heap_start+0x3fffeffe>
 178:	1f402503          	lw	a0,500(zero) # 1f4 <A>
 17c:	02e66e63          	bltu	a2,a4,1b8 <main+0x60>
 180:	1f002703          	lw	a4,496(zero) # 1f0 <B>
 184:	40a786b3          	sub	a3,a5,a0
 188:	40a68533          	sub	a0,a3,a0
 18c:	0506                	slli	a0,a0,0x1
 18e:	96ba                	add	a3,a3,a4
 190:	40a68533          	sub	a0,a3,a0
 194:	8f89                	sub	a5,a5,a0
 196:	40a786b3          	sub	a3,a5,a0
 19a:	0686                	slli	a3,a3,0x1
 19c:	973e                	add	a4,a4,a5
 19e:	8f15                	sub	a4,a4,a3
 1a0:	97ba                	add	a5,a5,a4
 1a2:	8f95                	sub	a5,a5,a3
 1a4:	00b786b3          	add	a3,a5,a1
 1a8:	fcd67ee3          	bgeu	a2,a3,184 <main+0x2c>
 1ac:	1ea02a23          	sw	a0,500(zero) # 1f4 <A>
 1b0:	1ee02823          	sw	a4,496(zero) # 1f0 <B>
 1b4:	1ef02623          	sw	a5,492(zero) # 1ec <__bss_start>
 1b8:	00030437          	lui	s0,0x30
 1bc:	02000993          	li	s3,32
 1c0:	3d99                	jal	16 <outl>
 1c2:	01340023          	sb	s3,0(s0) # 30000 <__heap_start+0x2f000>
 1c6:	1f002503          	lw	a0,496(zero) # 1f0 <B>
 1ca:	35b1                	jal	16 <outl>
 1cc:	01340023          	sb	s3,0(s0)
 1d0:	1ec02503          	lw	a0,492(zero) # 1ec <__bss_start>
 1d4:	3589                	jal	16 <outl>
 1d6:	47a9                	li	a5,10
 1d8:	00f40023          	sb	a5,0(s0)
 1dc:	40f2                	lw	ra,28(sp)
 1de:	4462                	lw	s0,24(sp)
 1e0:	44d2                	lw	s1,20(sp)
 1e2:	4942                	lw	s2,16(sp)
 1e4:	49b2                	lw	s3,12(sp)
 1e6:	4501                	li	a0,0
 1e8:	6105                	addi	sp,sp,32
 1ea:	8082                	ret
