
/app/testcase/fpga/heart.elf:     file format elf32-littleriscv


Disassembly of section .text:

00000000 <_start>:
   0:	00020137          	lui	sp,0x20
   4:	344000ef          	jal	348 <main>
   8:	0ff00513          	li	a0,255
   c:	000306b7          	lui	a3,0x30
  10:	00a68223          	sb	a0,4(a3) # 30004 <__heap_start+0x2c004>
  14:	bfe5                	j	c <_start+0xc>

00000016 <f>:
  16:	1101                	addi	sp,sp,-32 # 1ffe0 <__heap_start+0x1bfe0>
  18:	ca26                	sw	s1,20(sp)
  1a:	84ae                	mv	s1,a1
  1c:	85aa                	mv	a1,a0
  1e:	ce06                	sw	ra,28(sp)
  20:	cc22                	sw	s0,24(sp)
  22:	c84a                	sw	s2,16(sp)
  24:	8432                	mv	s0,a2
  26:	c64e                	sw	s3,12(sp)
  28:	710020ef          	jal	2738 <__mulsf3>
  2c:	678d                	lui	a5,0x3
  2e:	1c07a583          	lw	a1,448(a5) # 31c0 <__clzsi2+0x58>
  32:	892a                	mv	s2,a0
  34:	8526                	mv	a0,s1
  36:	702020ef          	jal	2738 <__mulsf3>
  3a:	85a6                	mv	a1,s1
  3c:	6fc020ef          	jal	2738 <__mulsf3>
  40:	85ca                	mv	a1,s2
  42:	5ab010ef          	jal	1dec <__addsf3>
  46:	89aa                	mv	s3,a0
  48:	85a2                	mv	a1,s0
  4a:	8522                	mv	a0,s0
  4c:	6ec020ef          	jal	2738 <__mulsf3>
  50:	85aa                	mv	a1,a0
  52:	854e                	mv	a0,s3
  54:	599010ef          	jal	1dec <__addsf3>
  58:	678d                	lui	a5,0x3
  5a:	1c47a583          	lw	a1,452(a5) # 31c4 <__clzsi2+0x5c>
  5e:	227020ef          	jal	2a84 <__subsf3>
  62:	85aa                	mv	a1,a0
  64:	89aa                	mv	s3,a0
  66:	6d2020ef          	jal	2738 <__mulsf3>
  6a:	85ce                	mv	a1,s3
  6c:	6cc020ef          	jal	2738 <__mulsf3>
  70:	87aa                	mv	a5,a0
  72:	85a2                	mv	a1,s0
  74:	854a                	mv	a0,s2
  76:	893e                	mv	s2,a5
  78:	6c0020ef          	jal	2738 <__mulsf3>
  7c:	85a2                	mv	a1,s0
  7e:	6ba020ef          	jal	2738 <__mulsf3>
  82:	85a2                	mv	a1,s0
  84:	6b4020ef          	jal	2738 <__mulsf3>
  88:	85aa                	mv	a1,a0
  8a:	854a                	mv	a0,s2
  8c:	1f9020ef          	jal	2a84 <__subsf3>
  90:	678d                	lui	a5,0x3
  92:	1c87a583          	lw	a1,456(a5) # 31c8 <__clzsi2+0x60>
  96:	892a                	mv	s2,a0
  98:	8526                	mv	a0,s1
  9a:	69e020ef          	jal	2738 <__mulsf3>
  9e:	85a6                	mv	a1,s1
  a0:	698020ef          	jal	2738 <__mulsf3>
  a4:	85a2                	mv	a1,s0
  a6:	692020ef          	jal	2738 <__mulsf3>
  aa:	85a2                	mv	a1,s0
  ac:	68c020ef          	jal	2738 <__mulsf3>
  b0:	85a2                	mv	a1,s0
  b2:	686020ef          	jal	2738 <__mulsf3>
  b6:	85aa                	mv	a1,a0
  b8:	854a                	mv	a0,s2
  ba:	1cb020ef          	jal	2a84 <__subsf3>
  be:	40f2                	lw	ra,28(sp)
  c0:	4462                	lw	s0,24(sp)
  c2:	44d2                	lw	s1,20(sp)
  c4:	4942                	lw	s2,16(sp)
  c6:	49b2                	lw	s3,12(sp)
  c8:	6105                	addi	sp,sp,32
  ca:	8082                	ret

000000cc <h>:
  cc:	7179                	addi	sp,sp,-48
  ce:	d04a                	sw	s2,32(sp)
  d0:	892e                	mv	s2,a1
  d2:	85aa                	mv	a1,a0
  d4:	d606                	sw	ra,44(sp)
  d6:	d422                	sw	s0,40(sp)
  d8:	ce4e                	sw	s3,28(sp)
  da:	cc52                	sw	s4,24(sp)
  dc:	ca56                	sw	s5,20(sp)
  de:	c85a                	sw	s6,16(sp)
  e0:	c65e                	sw	s7,12(sp)
  e2:	c462                	sw	s8,8(sp)
  e4:	c266                	sw	s9,4(sp)
  e6:	d226                	sw	s1,36(sp)
  e8:	650020ef          	jal	2738 <__mulsf3>
  ec:	89aa                	mv	s3,a0
  ee:	85ca                	mv	a1,s2
  f0:	854a                	mv	a0,s2
  f2:	646020ef          	jal	2738 <__mulsf3>
  f6:	85ce                	mv	a1,s3
  f8:	8aaa                	mv	s5,a0
  fa:	854a                	mv	a0,s2
  fc:	63c020ef          	jal	2738 <__mulsf3>
 100:	85ca                	mv	a1,s2
 102:	636020ef          	jal	2738 <__mulsf3>
 106:	85ca                	mv	a1,s2
 108:	630020ef          	jal	2738 <__mulsf3>
 10c:	678d                	lui	a5,0x3
 10e:	1c47a403          	lw	s0,452(a5) # 31c4 <__clzsi2+0x5c>
 112:	668d                	lui	a3,0x3
 114:	670d                	lui	a4,0x3
 116:	678d                	lui	a5,0x3
 118:	1c06ac83          	lw	s9,448(a3) # 31c0 <__clzsi2+0x58>
 11c:	1c872c03          	lw	s8,456(a4) # 31c8 <__clzsi2+0x60>
 120:	1cc7ab83          	lw	s7,460(a5) # 31cc <__clzsi2+0x64>
 124:	8a2a                	mv	s4,a0
 126:	8b22                	mv	s6,s0
 128:	85e6                	mv	a1,s9
 12a:	8522                	mv	a0,s0
 12c:	60c020ef          	jal	2738 <__mulsf3>
 130:	85a2                	mv	a1,s0
 132:	606020ef          	jal	2738 <__mulsf3>
 136:	85ce                	mv	a1,s3
 138:	4b5010ef          	jal	1dec <__addsf3>
 13c:	85d6                	mv	a1,s5
 13e:	4af010ef          	jal	1dec <__addsf3>
 142:	85da                	mv	a1,s6
 144:	141020ef          	jal	2a84 <__subsf3>
 148:	85aa                	mv	a1,a0
 14a:	84aa                	mv	s1,a0
 14c:	5ec020ef          	jal	2738 <__mulsf3>
 150:	85a6                	mv	a1,s1
 152:	5e6020ef          	jal	2738 <__mulsf3>
 156:	85d2                	mv	a1,s4
 158:	12d020ef          	jal	2a84 <__subsf3>
 15c:	84aa                	mv	s1,a0
 15e:	85e2                	mv	a1,s8
 160:	8522                	mv	a0,s0
 162:	5d6020ef          	jal	2738 <__mulsf3>
 166:	85a2                	mv	a1,s0
 168:	5d0020ef          	jal	2738 <__mulsf3>
 16c:	85ca                	mv	a1,s2
 16e:	5ca020ef          	jal	2738 <__mulsf3>
 172:	85ca                	mv	a1,s2
 174:	5c4020ef          	jal	2738 <__mulsf3>
 178:	85ca                	mv	a1,s2
 17a:	5be020ef          	jal	2738 <__mulsf3>
 17e:	85aa                	mv	a1,a0
 180:	8526                	mv	a0,s1
 182:	103020ef          	jal	2a84 <__subsf3>
 186:	00000593          	li	a1,0
 18a:	50e020ef          	jal	2698 <__lesf2>
 18e:	87aa                	mv	a5,a0
 190:	85de                	mv	a1,s7
 192:	8522                	mv	a0,s0
 194:	00f05d63          	blez	a5,1ae <h+0xe2>
 198:	0ed020ef          	jal	2a84 <__subsf3>
 19c:	00000593          	li	a1,0
 1a0:	842a                	mv	s0,a0
 1a2:	456020ef          	jal	25f8 <__gesf2>
 1a6:	f80551e3          	bgez	a0,128 <h+0x5c>
 1aa:	00000413          	li	s0,0
 1ae:	50b2                	lw	ra,44(sp)
 1b0:	8522                	mv	a0,s0
 1b2:	5422                	lw	s0,40(sp)
 1b4:	5492                	lw	s1,36(sp)
 1b6:	5902                	lw	s2,32(sp)
 1b8:	49f2                	lw	s3,28(sp)
 1ba:	4a62                	lw	s4,24(sp)
 1bc:	4ad2                	lw	s5,20(sp)
 1be:	4b42                	lw	s6,16(sp)
 1c0:	4bb2                	lw	s7,12(sp)
 1c2:	4c22                	lw	s8,8(sp)
 1c4:	4c92                	lw	s9,4(sp)
 1c6:	6145                	addi	sp,sp,48
 1c8:	8082                	ret

000001ca <mysqrt>:
 1ca:	7139                	addi	sp,sp,-64
 1cc:	00000593          	li	a1,0
 1d0:	dc22                	sw	s0,56(sp)
 1d2:	de06                	sw	ra,60(sp)
 1d4:	842a                	mv	s0,a0
 1d6:	3ba020ef          	jal	2590 <__eqsf2>
 1da:	c549                	beqz	a0,264 <mysqrt+0x9a>
 1dc:	678d                	lui	a5,0x3
 1de:	1d07a583          	lw	a1,464(a5) # 31d0 <__clzsi2+0x68>
 1e2:	8522                	mv	a0,s0
 1e4:	da26                	sw	s1,52(sp)
 1e6:	d05a                	sw	s6,32(sp)
 1e8:	ca6a                	sw	s10,20(sp)
 1ea:	c86e                	sw	s11,16(sp)
 1ec:	d84a                	sw	s2,48(sp)
 1ee:	d64e                	sw	s3,44(sp)
 1f0:	d452                	sw	s4,40(sp)
 1f2:	d256                	sw	s5,36(sp)
 1f4:	ce62                	sw	s8,28(sp)
 1f6:	cc66                	sw	s9,24(sp)
 1f8:	540020ef          	jal	2738 <__mulsf3>
 1fc:	539020ef          	jal	2f34 <__extendsfdf2>
 200:	8daa                	mv	s11,a0
 202:	8522                	mv	a0,s0
 204:	842e                	mv	s0,a1
 206:	52f020ef          	jal	2f34 <__extendsfdf2>
 20a:	678d                	lui	a5,0x3
 20c:	1f47a803          	lw	a6,500(a5) # 31f4 <__clzsi2+0x8c>
 210:	1f07a783          	lw	a5,496(a5)
 214:	8d2a                	mv	s10,a0
 216:	c642                	sw	a6,12(sp)
 218:	c43e                	sw	a5,8(sp)
 21a:	84ae                	mv	s1,a1
 21c:	03200b13          	li	s6,50
 220:	866e                	mv	a2,s11
 222:	86a2                	mv	a3,s0
 224:	856a                	mv	a0,s10
 226:	85a6                	mv	a1,s1
 228:	54d000ef          	jal	f74 <__divdf3>
 22c:	866e                	mv	a2,s11
 22e:	86a2                	mv	a3,s0
 230:	23d1                	jal	7f4 <__adddf3>
 232:	4622                	lw	a2,8(sp)
 234:	46b2                	lw	a3,12(sp)
 236:	1b7d                	addi	s6,s6,-1
 238:	500010ef          	jal	1738 <__muldf3>
 23c:	8daa                	mv	s11,a0
 23e:	842e                	mv	s0,a1
 240:	fe0b10e3          	bnez	s6,220 <mysqrt+0x56>
 244:	5dd020ef          	jal	3020 <__truncdfsf2>
 248:	50f2                	lw	ra,60(sp)
 24a:	5462                	lw	s0,56(sp)
 24c:	54d2                	lw	s1,52(sp)
 24e:	5942                	lw	s2,48(sp)
 250:	59b2                	lw	s3,44(sp)
 252:	5a22                	lw	s4,40(sp)
 254:	5a92                	lw	s5,36(sp)
 256:	5b02                	lw	s6,32(sp)
 258:	4c72                	lw	s8,28(sp)
 25a:	4ce2                	lw	s9,24(sp)
 25c:	4d52                	lw	s10,20(sp)
 25e:	4dc2                	lw	s11,16(sp)
 260:	6121                	addi	sp,sp,64
 262:	8082                	ret
 264:	50f2                	lw	ra,60(sp)
 266:	5462                	lw	s0,56(sp)
 268:	00000513          	li	a0,0
 26c:	6121                	addi	sp,sp,64
 26e:	8082                	ret

00000270 <__mulsi3>:
 270:	00050613          	mv	a2,a0
 274:	00000513          	li	a0,0
 278:	0015f693          	andi	a3,a1,1
 27c:	00068463          	beqz	a3,284 <__mulsi3+0x14>
 280:	00c50533          	add	a0,a0,a2
 284:	0015d593          	srli	a1,a1,0x1
 288:	00161613          	slli	a2,a2,0x1
 28c:	fe0596e3          	bnez	a1,278 <__mulsi3+0x8>
 290:	00008067          	ret

00000294 <__divsi3>:
 294:	06054063          	bltz	a0,2f4 <__umodsi3+0x10>
 298:	0605c663          	bltz	a1,304 <__umodsi3+0x20>

0000029c <__hidden___udivsi3>:
 29c:	00058613          	mv	a2,a1
 2a0:	00050593          	mv	a1,a0
 2a4:	fff00513          	li	a0,-1
 2a8:	02060c63          	beqz	a2,2e0 <__hidden___udivsi3+0x44>
 2ac:	00100693          	li	a3,1
 2b0:	00b67a63          	bgeu	a2,a1,2c4 <__hidden___udivsi3+0x28>
 2b4:	00c05863          	blez	a2,2c4 <__hidden___udivsi3+0x28>
 2b8:	00161613          	slli	a2,a2,0x1
 2bc:	00169693          	slli	a3,a3,0x1
 2c0:	feb66ae3          	bltu	a2,a1,2b4 <__hidden___udivsi3+0x18>
 2c4:	00000513          	li	a0,0
 2c8:	00c5e663          	bltu	a1,a2,2d4 <__hidden___udivsi3+0x38>
 2cc:	40c585b3          	sub	a1,a1,a2
 2d0:	00d56533          	or	a0,a0,a3
 2d4:	0016d693          	srli	a3,a3,0x1
 2d8:	00165613          	srli	a2,a2,0x1
 2dc:	fe0696e3          	bnez	a3,2c8 <__hidden___udivsi3+0x2c>
 2e0:	00008067          	ret

000002e4 <__umodsi3>:
 2e4:	00008293          	mv	t0,ra
 2e8:	fb5ff0ef          	jal	29c <__hidden___udivsi3>
 2ec:	00058513          	mv	a0,a1
 2f0:	00028067          	jr	t0
 2f4:	40a00533          	neg	a0,a0
 2f8:	00b04863          	bgtz	a1,308 <__umodsi3+0x24>
 2fc:	40b005b3          	neg	a1,a1
 300:	f9dff06f          	j	29c <__hidden___udivsi3>
 304:	40b005b3          	neg	a1,a1
 308:	00008293          	mv	t0,ra
 30c:	f91ff0ef          	jal	29c <__hidden___udivsi3>
 310:	40a00533          	neg	a0,a0
 314:	00028067          	jr	t0

00000318 <__modsi3>:
 318:	00008293          	mv	t0,ra
 31c:	0005ca63          	bltz	a1,330 <__modsi3+0x18>
 320:	00054c63          	bltz	a0,338 <__modsi3+0x20>
 324:	f79ff0ef          	jal	29c <__hidden___udivsi3>
 328:	00058513          	mv	a0,a1
 32c:	00028067          	jr	t0
 330:	40b005b3          	neg	a1,a1
 334:	fe0558e3          	bgez	a0,324 <__modsi3+0xc>
 338:	40a00533          	neg	a0,a0
 33c:	f61ff0ef          	jal	29c <__hidden___udivsi3>
 340:	40b00533          	neg	a0,a1
 344:	00028067          	jr	t0

Disassembly of section .text.startup:

00000348 <main>:
 348:	668d                	lui	a3,0x3
 34a:	1e06a683          	lw	a3,480(a3) # 31e0 <__clzsi2+0x78>
 34e:	7175                	addi	sp,sp,-144
 350:	670d                	lui	a4,0x3
 352:	660d                	lui	a2,0x3
 354:	678d                	lui	a5,0x3
 356:	1e47a783          	lw	a5,484(a5) # 31e4 <__clzsi2+0x7c>
 35a:	d2e6                	sw	s9,100(sp)
 35c:	c2b6                	sw	a3,68(sp)
 35e:	1d862c83          	lw	s9,472(a2) # 31d8 <__clzsi2+0x70>
 362:	1f072683          	lw	a3,496(a4) # 31f0 <__clzsi2+0x88>
 366:	1f472703          	lw	a4,500(a4)
 36a:	c522                	sw	s0,136(sp)
 36c:	c326                	sw	s1,132(sp)
 36e:	c706                	sw	ra,140(sp)
 370:	c14a                	sw	s2,128(sp)
 372:	dece                	sw	s3,124(sp)
 374:	dcd2                	sw	s4,120(sp)
 376:	dad6                	sw	s5,116(sp)
 378:	d8da                	sw	s6,112(sp)
 37a:	d6de                	sw	s7,108(sp)
 37c:	d4e2                	sw	s8,104(sp)
 37e:	d0ea                	sw	s10,96(sp)
 380:	ceee                	sw	s11,92(sp)
 382:	c036                	sw	a3,0(sp)
 384:	c23a                	sw	a4,4(sp)
 386:	c4be                	sw	a5,72(sp)
 388:	03d00413          	li	s0,61
 38c:	84e6                	mv	s1,s9
 38e:	85a6                	mv	a1,s1
 390:	8526                	mv	a0,s1
 392:	3a6020ef          	jal	2738 <__mulsf3>
 396:	87aa                	mv	a5,a0
 398:	00000593          	li	a1,0
 39c:	8526                	mv	a0,s1
 39e:	c83e                	sw	a5,16(sp)
 3a0:	398020ef          	jal	2738 <__mulsf3>
 3a4:	85a6                	mv	a1,s1
 3a6:	392020ef          	jal	2738 <__mulsf3>
 3aa:	85a6                	mv	a1,s1
 3ac:	38c020ef          	jal	2738 <__mulsf3>
 3b0:	678d                	lui	a5,0x3
 3b2:	1d47a783          	lw	a5,468(a5) # 31d4 <__clzsi2+0x6c>
 3b6:	ca2a                	sw	a0,20(sp)
 3b8:	c6a2                	sw	s0,76(sp)
 3ba:	c43e                	sw	a5,8(sp)
 3bc:	678d                	lui	a5,0x3
 3be:	1c47ac03          	lw	s8,452(a5) # 31c4 <__clzsi2+0x5c>
 3c2:	07900793          	li	a5,121
 3c6:	c63e                	sw	a5,12(sp)
 3c8:	a01d                	j	3ee <main+0xa6>
 3ca:	000307b7          	lui	a5,0x30
 3ce:	05f00713          	li	a4,95
 3d2:	00e78023          	sb	a4,0(a5) # 30000 <__heap_start+0x2c000>
 3d6:	678d                	lui	a5,0x3
 3d8:	1e87a583          	lw	a1,488(a5) # 31e8 <__clzsi2+0x80>
 3dc:	4522                	lw	a0,8(sp)
 3de:	20f010ef          	jal	1dec <__addsf3>
 3e2:	47b2                	lw	a5,12(sp)
 3e4:	c42a                	sw	a0,8(sp)
 3e6:	17fd                	addi	a5,a5,-1
 3e8:	c63e                	sw	a5,12(sp)
 3ea:	3c078463          	beqz	a5,7b2 <main+0x46a>
 3ee:	45a2                	lw	a1,8(sp)
 3f0:	852e                	mv	a0,a1
 3f2:	346020ef          	jal	2738 <__mulsf3>
 3f6:	00000593          	li	a1,0
 3fa:	892a                	mv	s2,a0
 3fc:	1f1010ef          	jal	1dec <__addsf3>
 400:	45c2                	lw	a1,16(sp)
 402:	1eb010ef          	jal	1dec <__addsf3>
 406:	85e2                	mv	a1,s8
 408:	67c020ef          	jal	2a84 <__subsf3>
 40c:	842a                	mv	s0,a0
 40e:	85a6                	mv	a1,s1
 410:	854a                	mv	a0,s2
 412:	326020ef          	jal	2738 <__mulsf3>
 416:	85a6                	mv	a1,s1
 418:	320020ef          	jal	2738 <__mulsf3>
 41c:	85a6                	mv	a1,s1
 41e:	31a020ef          	jal	2738 <__mulsf3>
 422:	8b2a                	mv	s6,a0
 424:	85a2                	mv	a1,s0
 426:	8522                	mv	a0,s0
 428:	310020ef          	jal	2738 <__mulsf3>
 42c:	85a2                	mv	a1,s0
 42e:	30a020ef          	jal	2738 <__mulsf3>
 432:	85da                	mv	a1,s6
 434:	650020ef          	jal	2a84 <__subsf3>
 438:	45d2                	lw	a1,20(sp)
 43a:	64a020ef          	jal	2a84 <__subsf3>
 43e:	00000593          	li	a1,0
 442:	256020ef          	jal	2698 <__lesf2>
 446:	f8a042e3          	bgtz	a0,3ca <main+0x82>
 44a:	678d                	lui	a5,0x3
 44c:	1c47a403          	lw	s0,452(a5) # 31c4 <__clzsi2+0x5c>
 450:	4bc2                	lw	s7,16(sp)
 452:	678d                	lui	a5,0x3
 454:	1c07a583          	lw	a1,448(a5) # 31c0 <__clzsi2+0x58>
 458:	8522                	mv	a0,s0
 45a:	2de020ef          	jal	2738 <__mulsf3>
 45e:	85a2                	mv	a1,s0
 460:	2d8020ef          	jal	2738 <__mulsf3>
 464:	85ca                	mv	a1,s2
 466:	187010ef          	jal	1dec <__addsf3>
 46a:	85de                	mv	a1,s7
 46c:	181010ef          	jal	1dec <__addsf3>
 470:	85e2                	mv	a1,s8
 472:	612020ef          	jal	2a84 <__subsf3>
 476:	85aa                	mv	a1,a0
 478:	89aa                	mv	s3,a0
 47a:	2be020ef          	jal	2738 <__mulsf3>
 47e:	85ce                	mv	a1,s3
 480:	2b8020ef          	jal	2738 <__mulsf3>
 484:	85da                	mv	a1,s6
 486:	5fe020ef          	jal	2a84 <__subsf3>
 48a:	678d                	lui	a5,0x3
 48c:	1c87a583          	lw	a1,456(a5) # 31c8 <__clzsi2+0x60>
 490:	89aa                	mv	s3,a0
 492:	8522                	mv	a0,s0
 494:	2a4020ef          	jal	2738 <__mulsf3>
 498:	85a2                	mv	a1,s0
 49a:	29e020ef          	jal	2738 <__mulsf3>
 49e:	85a6                	mv	a1,s1
 4a0:	298020ef          	jal	2738 <__mulsf3>
 4a4:	85a6                	mv	a1,s1
 4a6:	292020ef          	jal	2738 <__mulsf3>
 4aa:	85a6                	mv	a1,s1
 4ac:	28c020ef          	jal	2738 <__mulsf3>
 4b0:	85aa                	mv	a1,a0
 4b2:	854e                	mv	a0,s3
 4b4:	5d0020ef          	jal	2a84 <__subsf3>
 4b8:	00000593          	li	a1,0
 4bc:	1dc020ef          	jal	2698 <__lesf2>
 4c0:	87aa                	mv	a5,a0
 4c2:	670d                	lui	a4,0x3
 4c4:	1cc72583          	lw	a1,460(a4) # 31cc <__clzsi2+0x64>
 4c8:	8522                	mv	a0,s0
 4ca:	00f05d63          	blez	a5,4e4 <main+0x19c>
 4ce:	5b6020ef          	jal	2a84 <__subsf3>
 4d2:	00000593          	li	a1,0
 4d6:	842a                	mv	s0,a0
 4d8:	120020ef          	jal	25f8 <__gesf2>
 4dc:	f6055be3          	bgez	a0,452 <main+0x10a>
 4e0:	00000413          	li	s0,0
 4e4:	678d                	lui	a5,0x3
 4e6:	1dc7a583          	lw	a1,476(a5) # 31dc <__clzsi2+0x74>
 4ea:	4522                	lw	a0,8(sp)
 4ec:	101010ef          	jal	1dec <__addsf3>
 4f0:	85aa                	mv	a1,a0
 4f2:	246020ef          	jal	2738 <__mulsf3>
 4f6:	85a6                	mv	a1,s1
 4f8:	8b2a                	mv	s6,a0
 4fa:	23e020ef          	jal	2738 <__mulsf3>
 4fe:	85a6                	mv	a1,s1
 500:	238020ef          	jal	2738 <__mulsf3>
 504:	85a6                	mv	a1,s1
 506:	232020ef          	jal	2738 <__mulsf3>
 50a:	678d                	lui	a5,0x3
 50c:	1c87ac83          	lw	s9,456(a5) # 31c8 <__clzsi2+0x60>
 510:	678d                	lui	a5,0x3
 512:	1cc7ab83          	lw	s7,460(a5) # 31cc <__clzsi2+0x64>
 516:	678d                	lui	a5,0x3
 518:	d256                	sw	s5,36(sp)
 51a:	1c47a983          	lw	s3,452(a5) # 31c4 <__clzsi2+0x5c>
 51e:	4ac2                	lw	s5,16(sp)
 520:	c0ca                	sw	s2,64(sp)
 522:	da6e                	sw	s11,52(sp)
 524:	892a                	mv	s2,a0
 526:	8da2                	mv	s11,s0
 528:	d052                	sw	s4,32(sp)
 52a:	d86a                	sw	s10,48(sp)
 52c:	845a                	mv	s0,s6
 52e:	678d                	lui	a5,0x3
 530:	1c07a583          	lw	a1,448(a5) # 31c0 <__clzsi2+0x58>
 534:	854e                	mv	a0,s3
 536:	202020ef          	jal	2738 <__mulsf3>
 53a:	85ce                	mv	a1,s3
 53c:	1fc020ef          	jal	2738 <__mulsf3>
 540:	85a2                	mv	a1,s0
 542:	0ab010ef          	jal	1dec <__addsf3>
 546:	85d6                	mv	a1,s5
 548:	0a5010ef          	jal	1dec <__addsf3>
 54c:	85e2                	mv	a1,s8
 54e:	536020ef          	jal	2a84 <__subsf3>
 552:	85aa                	mv	a1,a0
 554:	8b2a                	mv	s6,a0
 556:	1e2020ef          	jal	2738 <__mulsf3>
 55a:	85da                	mv	a1,s6
 55c:	1dc020ef          	jal	2738 <__mulsf3>
 560:	85ca                	mv	a1,s2
 562:	522020ef          	jal	2a84 <__subsf3>
 566:	8b2a                	mv	s6,a0
 568:	85e6                	mv	a1,s9
 56a:	854e                	mv	a0,s3
 56c:	1cc020ef          	jal	2738 <__mulsf3>
 570:	85ce                	mv	a1,s3
 572:	1c6020ef          	jal	2738 <__mulsf3>
 576:	85a6                	mv	a1,s1
 578:	1c0020ef          	jal	2738 <__mulsf3>
 57c:	85a6                	mv	a1,s1
 57e:	1ba020ef          	jal	2738 <__mulsf3>
 582:	85a6                	mv	a1,s1
 584:	1b4020ef          	jal	2738 <__mulsf3>
 588:	85aa                	mv	a1,a0
 58a:	855a                	mv	a0,s6
 58c:	4f8020ef          	jal	2a84 <__subsf3>
 590:	00000593          	li	a1,0
 594:	104020ef          	jal	2698 <__lesf2>
 598:	87aa                	mv	a5,a0
 59a:	85de                	mv	a1,s7
 59c:	854e                	mv	a0,s3
 59e:	20f05363          	blez	a5,7a4 <main+0x45c>
 5a2:	4e2020ef          	jal	2a84 <__subsf3>
 5a6:	00000593          	li	a1,0
 5aa:	89aa                	mv	s3,a0
 5ac:	04c020ef          	jal	25f8 <__gesf2>
 5b0:	f6055fe3          	bgez	a0,52e <main+0x1e6>
 5b4:	846e                	mv	s0,s11
 5b6:	4906                	lw	s2,64(sp)
 5b8:	5a02                	lw	s4,32(sp)
 5ba:	5a92                	lw	s5,36(sp)
 5bc:	5d42                	lw	s10,48(sp)
 5be:	5dd2                	lw	s11,52(sp)
 5c0:	00000993          	li	s3,0
 5c4:	85a2                	mv	a1,s0
 5c6:	854e                	mv	a0,s3
 5c8:	4bc020ef          	jal	2a84 <__subsf3>
 5cc:	670d                	lui	a4,0x3
 5ce:	1dc72583          	lw	a1,476(a4) # 31dc <__clzsi2+0x74>
 5d2:	87aa                	mv	a5,a0
 5d4:	8526                	mv	a0,s1
 5d6:	c0be                	sw	a5,64(sp)
 5d8:	015010ef          	jal	1dec <__addsf3>
 5dc:	85aa                	mv	a1,a0
 5de:	89aa                	mv	s3,a0
 5e0:	158020ef          	jal	2738 <__mulsf3>
 5e4:	87aa                	mv	a5,a0
 5e6:	85ca                	mv	a1,s2
 5e8:	854e                	mv	a0,s3
 5ea:	d03e                	sw	a5,32(sp)
 5ec:	14c020ef          	jal	2738 <__mulsf3>
 5f0:	85ce                	mv	a1,s3
 5f2:	146020ef          	jal	2738 <__mulsf3>
 5f6:	85ce                	mv	a1,s3
 5f8:	140020ef          	jal	2738 <__mulsf3>
 5fc:	670d                	lui	a4,0x3
 5fe:	1c472b03          	lw	s6,452(a4) # 31c4 <__clzsi2+0x5c>
 602:	670d                	lui	a4,0x3
 604:	1cc72c83          	lw	s9,460(a4) # 31cc <__clzsi2+0x64>
 608:	d826                	sw	s1,48(sp)
 60a:	de56                	sw	s5,60(sp)
 60c:	d26e                	sw	s11,36(sp)
 60e:	5a82                	lw	s5,32(sp)
 610:	8da2                	mv	s11,s0
 612:	8bda                	mv	s7,s6
 614:	84aa                	mv	s1,a0
 616:	dc52                	sw	s4,56(sp)
 618:	d06a                	sw	s10,32(sp)
 61a:	844a                	mv	s0,s2
 61c:	678d                	lui	a5,0x3
 61e:	1c07a583          	lw	a1,448(a5) # 31c0 <__clzsi2+0x58>
 622:	855a                	mv	a0,s6
 624:	114020ef          	jal	2738 <__mulsf3>
 628:	85da                	mv	a1,s6
 62a:	10e020ef          	jal	2738 <__mulsf3>
 62e:	85a2                	mv	a1,s0
 630:	7bc010ef          	jal	1dec <__addsf3>
 634:	85d6                	mv	a1,s5
 636:	7b6010ef          	jal	1dec <__addsf3>
 63a:	85de                	mv	a1,s7
 63c:	448020ef          	jal	2a84 <__subsf3>
 640:	85aa                	mv	a1,a0
 642:	892a                	mv	s2,a0
 644:	0f4020ef          	jal	2738 <__mulsf3>
 648:	85ca                	mv	a1,s2
 64a:	0ee020ef          	jal	2738 <__mulsf3>
 64e:	85a6                	mv	a1,s1
 650:	434020ef          	jal	2a84 <__subsf3>
 654:	678d                	lui	a5,0x3
 656:	1c87a583          	lw	a1,456(a5) # 31c8 <__clzsi2+0x60>
 65a:	892a                	mv	s2,a0
 65c:	855a                	mv	a0,s6
 65e:	0da020ef          	jal	2738 <__mulsf3>
 662:	85da                	mv	a1,s6
 664:	0d4020ef          	jal	2738 <__mulsf3>
 668:	85ce                	mv	a1,s3
 66a:	0ce020ef          	jal	2738 <__mulsf3>
 66e:	85ce                	mv	a1,s3
 670:	0c8020ef          	jal	2738 <__mulsf3>
 674:	85ce                	mv	a1,s3
 676:	0c2020ef          	jal	2738 <__mulsf3>
 67a:	85aa                	mv	a1,a0
 67c:	854a                	mv	a0,s2
 67e:	406020ef          	jal	2a84 <__subsf3>
 682:	00000593          	li	a1,0
 686:	012020ef          	jal	2698 <__lesf2>
 68a:	87aa                	mv	a5,a0
 68c:	85e6                	mv	a1,s9
 68e:	855a                	mv	a0,s6
 690:	10f05763          	blez	a5,79e <main+0x456>
 694:	3f0020ef          	jal	2a84 <__subsf3>
 698:	00000593          	li	a1,0
 69c:	8b2a                	mv	s6,a0
 69e:	75b010ef          	jal	25f8 <__gesf2>
 6a2:	f6055de3          	bgez	a0,61c <main+0x2d4>
 6a6:	54c2                	lw	s1,48(sp)
 6a8:	846e                	mv	s0,s11
 6aa:	00000b13          	li	s6,0
 6ae:	85a2                	mv	a1,s0
 6b0:	855a                	mv	a0,s6
 6b2:	3d2020ef          	jal	2a84 <__subsf3>
 6b6:	4586                	lw	a1,64(sp)
 6b8:	8b2a                	mv	s6,a0
 6ba:	895a                	mv	s2,s6
 6bc:	852e                	mv	a0,a1
 6be:	07a020ef          	jal	2738 <__mulsf3>
 6c2:	4596                	lw	a1,68(sp)
 6c4:	03200c93          	li	s9,50
 6c8:	724010ef          	jal	1dec <__addsf3>
 6cc:	842a                	mv	s0,a0
 6ce:	85da                	mv	a1,s6
 6d0:	855a                	mv	a0,s6
 6d2:	066020ef          	jal	2738 <__mulsf3>
 6d6:	85aa                	mv	a1,a0
 6d8:	8522                	mv	a0,s0
 6da:	712010ef          	jal	1dec <__addsf3>
 6de:	678d                	lui	a5,0x3
 6e0:	1d07a583          	lw	a1,464(a5) # 31d0 <__clzsi2+0x68>
 6e4:	842a                	mv	s0,a0
 6e6:	052020ef          	jal	2738 <__mulsf3>
 6ea:	04b020ef          	jal	2f34 <__extendsfdf2>
 6ee:	8b2a                	mv	s6,a0
 6f0:	8522                	mv	a0,s0
 6f2:	8bae                	mv	s7,a1
 6f4:	041020ef          	jal	2f34 <__extendsfdf2>
 6f8:	89aa                	mv	s3,a0
 6fa:	d84a                	sw	s2,48(sp)
 6fc:	d026                	sw	s1,32(sp)
 6fe:	8966                	mv	s2,s9
 700:	8cae                	mv	s9,a1
 702:	865a                	mv	a2,s6
 704:	86de                	mv	a3,s7
 706:	854e                	mv	a0,s3
 708:	85e6                	mv	a1,s9
 70a:	06b000ef          	jal	f74 <__divdf3>
 70e:	865a                	mv	a2,s6
 710:	86de                	mv	a3,s7
 712:	20cd                	jal	7f4 <__adddf3>
 714:	4602                	lw	a2,0(sp)
 716:	4692                	lw	a3,4(sp)
 718:	197d                	addi	s2,s2,-1
 71a:	8a5a                	mv	s4,s6
 71c:	01c010ef          	jal	1738 <__muldf3>
 720:	8ade                	mv	s5,s7
 722:	8d4e                	mv	s10,s3
 724:	8de6                	mv	s11,s9
 726:	8b2a                	mv	s6,a0
 728:	8bae                	mv	s7,a1
 72a:	fc091ce3          	bnez	s2,702 <main+0x3ba>
 72e:	678d                	lui	a5,0x3
 730:	1dc7a583          	lw	a1,476(a5) # 31dc <__clzsi2+0x74>
 734:	4506                	lw	a0,64(sp)
 736:	5942                	lw	s2,48(sp)
 738:	d452                	sw	s4,40(sp)
 73a:	d656                	sw	s5,44(sp)
 73c:	6b0010ef          	jal	1dec <__addsf3>
 740:	85ca                	mv	a1,s2
 742:	342020ef          	jal	2a84 <__subsf3>
 746:	cc5a                	sw	s6,24(sp)
 748:	ce5e                	sw	s7,28(sp)
 74a:	45f2                	lw	a1,28(sp)
 74c:	842a                	mv	s0,a0
 74e:	4562                	lw	a0,24(sp)
 750:	698d                	lui	s3,0x3
 752:	1b498993          	addi	s3,s3,436 # 31b4 <__clzsi2+0x4c>
 756:	0cb020ef          	jal	3020 <__truncdfsf2>
 75a:	678d                	lui	a5,0x3
 75c:	85aa                	mv	a1,a0
 75e:	1c47a503          	lw	a0,452(a5) # 31c4 <__clzsi2+0x5c>
 762:	5482                	lw	s1,32(sp)
 764:	2b9010ef          	jal	221c <__divsf3>
 768:	85aa                	mv	a1,a0
 76a:	8522                	mv	a0,s0
 76c:	7cd010ef          	jal	2738 <__mulsf3>
 770:	678d                	lui	a5,0x3
 772:	1d07a583          	lw	a1,464(a5) # 31d0 <__clzsi2+0x68>
 776:	843e                	mv	s0,a5
 778:	7c1010ef          	jal	2738 <__mulsf3>
 77c:	1d042583          	lw	a1,464(s0)
 780:	66c010ef          	jal	1dec <__addsf3>
 784:	45a6                	lw	a1,72(sp)
 786:	7b3010ef          	jal	2738 <__mulsf3>
 78a:	73a020ef          	jal	2ec4 <__fixsfsi>
 78e:	99aa                	add	s3,s3,a0
 790:	0009c703          	lbu	a4,0(s3)
 794:	000307b7          	lui	a5,0x30
 798:	00e78023          	sb	a4,0(a5) # 30000 <__heap_start+0x2c000>
 79c:	b92d                	j	3d6 <main+0x8e>
 79e:	54c2                	lw	s1,48(sp)
 7a0:	846e                	mv	s0,s11
 7a2:	b731                	j	6ae <main+0x366>
 7a4:	846e                	mv	s0,s11
 7a6:	4906                	lw	s2,64(sp)
 7a8:	5a02                	lw	s4,32(sp)
 7aa:	5a92                	lw	s5,36(sp)
 7ac:	5d42                	lw	s10,48(sp)
 7ae:	5dd2                	lw	s11,52(sp)
 7b0:	bd11                	j	5c4 <main+0x27c>
 7b2:	678d                	lui	a5,0x3
 7b4:	4436                	lw	s0,76(sp)
 7b6:	1ec7a583          	lw	a1,492(a5) # 31ec <__clzsi2+0x84>
 7ba:	4729                	li	a4,10
 7bc:	000307b7          	lui	a5,0x30
 7c0:	8526                	mv	a0,s1
 7c2:	00e78023          	sb	a4,0(a5) # 30000 <__heap_start+0x2c000>
 7c6:	2be020ef          	jal	2a84 <__subsf3>
 7ca:	147d                	addi	s0,s0,-1
 7cc:	84aa                	mv	s1,a0
 7ce:	bc0410e3          	bnez	s0,38e <main+0x46>
 7d2:	40ba                	lw	ra,140(sp)
 7d4:	442a                	lw	s0,136(sp)
 7d6:	449a                	lw	s1,132(sp)
 7d8:	490a                	lw	s2,128(sp)
 7da:	59f6                	lw	s3,124(sp)
 7dc:	5a66                	lw	s4,120(sp)
 7de:	5ad6                	lw	s5,116(sp)
 7e0:	5b46                	lw	s6,112(sp)
 7e2:	5bb6                	lw	s7,108(sp)
 7e4:	5c26                	lw	s8,104(sp)
 7e6:	5c96                	lw	s9,100(sp)
 7e8:	5d06                	lw	s10,96(sp)
 7ea:	4df6                	lw	s11,92(sp)
 7ec:	4501                	li	a0,0
 7ee:	6149                	addi	sp,sp,144
 7f0:	8082                	ret

Disassembly of section .text.__adddf3:

000007f4 <__adddf3>:
 7f4:	00100837          	lui	a6,0x100
 7f8:	fff80813          	addi	a6,a6,-1 # fffff <__heap_start+0xfbfff>
 7fc:	fe010113          	addi	sp,sp,-32
 800:	00b878b3          	and	a7,a6,a1
 804:	0145d713          	srli	a4,a1,0x14
 808:	00d87833          	and	a6,a6,a3
 80c:	01412423          	sw	s4,8(sp)
 810:	7ff77a13          	andi	s4,a4,2047
 814:	00389713          	slli	a4,a7,0x3
 818:	0146d893          	srli	a7,a3,0x14
 81c:	01d55793          	srli	a5,a0,0x1d
 820:	00381813          	slli	a6,a6,0x3
 824:	01312623          	sw	s3,12(sp)
 828:	7ff8f893          	andi	a7,a7,2047
 82c:	01f5d993          	srli	s3,a1,0x1f
 830:	00112e23          	sw	ra,28(sp)
 834:	01d65593          	srli	a1,a2,0x1d
 838:	00812c23          	sw	s0,24(sp)
 83c:	00912a23          	sw	s1,20(sp)
 840:	01212823          	sw	s2,16(sp)
 844:	01512223          	sw	s5,4(sp)
 848:	01f6d693          	srli	a3,a3,0x1f
 84c:	0105e5b3          	or	a1,a1,a6
 850:	00e7e7b3          	or	a5,a5,a4
 854:	00351513          	slli	a0,a0,0x3
 858:	00361613          	slli	a2,a2,0x3
 85c:	411a0833          	sub	a6,s4,a7
 860:	7ff00313          	li	t1,2047
 864:	32d99863          	bne	s3,a3,b94 <__adddf3+0x3a0>
 868:	17005e63          	blez	a6,9e4 <__adddf3+0x1f0>
 86c:	0a089863          	bnez	a7,91c <__adddf3+0x128>
 870:	00c5e733          	or	a4,a1,a2
 874:	02070663          	beqz	a4,8a0 <__adddf3+0xac>
 878:	fffa0813          	addi	a6,s4,-1
 87c:	02081063          	bnez	a6,89c <__adddf3+0xa8>
 880:	00c50633          	add	a2,a0,a2
 884:	00a63733          	sltu	a4,a2,a0
 888:	00b785b3          	add	a1,a5,a1
 88c:	00060513          	mv	a0,a2
 890:	00e587b3          	add	a5,a1,a4
 894:	00100a13          	li	s4,1
 898:	0d40006f          	j	96c <__adddf3+0x178>
 89c:	086a1663          	bne	s4,t1,928 <__adddf3+0x134>
 8a0:	01d79693          	slli	a3,a5,0x1d
 8a4:	00355513          	srli	a0,a0,0x3
 8a8:	7ff00713          	li	a4,2047
 8ac:	00a6e6b3          	or	a3,a3,a0
 8b0:	0037d793          	srli	a5,a5,0x3
 8b4:	00ea1e63          	bne	s4,a4,8d0 <__adddf3+0xdc>
 8b8:	00f6e6b3          	or	a3,a3,a5
 8bc:	00000793          	li	a5,0
 8c0:	00068863          	beqz	a3,8d0 <__adddf3+0xdc>
 8c4:	000807b7          	lui	a5,0x80
 8c8:	00000693          	li	a3,0
 8cc:	00000993          	li	s3,0
 8d0:	014a1713          	slli	a4,s4,0x14
 8d4:	7ff00637          	lui	a2,0x7ff00
 8d8:	00c79793          	slli	a5,a5,0xc
 8dc:	00c77733          	and	a4,a4,a2
 8e0:	01c12083          	lw	ra,28(sp)
 8e4:	01812403          	lw	s0,24(sp)
 8e8:	00c7d793          	srli	a5,a5,0xc
 8ec:	00f767b3          	or	a5,a4,a5
 8f0:	01f99713          	slli	a4,s3,0x1f
 8f4:	00e7e633          	or	a2,a5,a4
 8f8:	01412483          	lw	s1,20(sp)
 8fc:	01012903          	lw	s2,16(sp)
 900:	00c12983          	lw	s3,12(sp)
 904:	00812a03          	lw	s4,8(sp)
 908:	00412a83          	lw	s5,4(sp)
 90c:	00068513          	mv	a0,a3
 910:	00060593          	mv	a1,a2
 914:	02010113          	addi	sp,sp,32
 918:	00008067          	ret
 91c:	f86a02e3          	beq	s4,t1,8a0 <__adddf3+0xac>
 920:	00800737          	lui	a4,0x800
 924:	00e5e5b3          	or	a1,a1,a4
 928:	03800713          	li	a4,56
 92c:	0b074663          	blt	a4,a6,9d8 <__adddf3+0x1e4>
 930:	01f00713          	li	a4,31
 934:	02000893          	li	a7,32
 938:	07074863          	blt	a4,a6,9a8 <__adddf3+0x1b4>
 93c:	410888b3          	sub	a7,a7,a6
 940:	01159733          	sll	a4,a1,a7
 944:	010656b3          	srl	a3,a2,a6
 948:	011618b3          	sll	a7,a2,a7
 94c:	00d76733          	or	a4,a4,a3
 950:	011038b3          	snez	a7,a7
 954:	01176733          	or	a4,a4,a7
 958:	0105d833          	srl	a6,a1,a6
 95c:	00a70533          	add	a0,a4,a0
 960:	00f80833          	add	a6,a6,a5
 964:	00e53733          	sltu	a4,a0,a4
 968:	00e807b3          	add	a5,a6,a4
 96c:	00879713          	slli	a4,a5,0x8
 970:	1c075e63          	bgez	a4,b4c <__adddf3+0x358>
 974:	001a0a13          	addi	s4,s4,1
 978:	7ff00713          	li	a4,2047
 97c:	5cea0863          	beq	s4,a4,f4c <__adddf3+0x758>
 980:	ff800737          	lui	a4,0xff800
 984:	fff70713          	addi	a4,a4,-1 # ff7fffff <__heap_start+0xff7fbfff>
 988:	00e7f7b3          	and	a5,a5,a4
 98c:	00155713          	srli	a4,a0,0x1
 990:	00157513          	andi	a0,a0,1
 994:	00a76733          	or	a4,a4,a0
 998:	01f79513          	slli	a0,a5,0x1f
 99c:	00e56533          	or	a0,a0,a4
 9a0:	0017d793          	srli	a5,a5,0x1
 9a4:	1a80006f          	j	b4c <__adddf3+0x358>
 9a8:	fe080713          	addi	a4,a6,-32
 9ac:	00e5d733          	srl	a4,a1,a4
 9b0:	00000693          	li	a3,0
 9b4:	01180863          	beq	a6,a7,9c4 <__adddf3+0x1d0>
 9b8:	04000693          	li	a3,64
 9bc:	410686b3          	sub	a3,a3,a6
 9c0:	00d596b3          	sll	a3,a1,a3
 9c4:	00c6e6b3          	or	a3,a3,a2
 9c8:	00d036b3          	snez	a3,a3
 9cc:	00d76733          	or	a4,a4,a3
 9d0:	00000813          	li	a6,0
 9d4:	f89ff06f          	j	95c <__adddf3+0x168>
 9d8:	00c5e733          	or	a4,a1,a2
 9dc:	00e03733          	snez	a4,a4
 9e0:	ff1ff06f          	j	9d0 <__adddf3+0x1dc>
 9e4:	0c080663          	beqz	a6,ab0 <__adddf3+0x2bc>
 9e8:	41488733          	sub	a4,a7,s4
 9ec:	020a1463          	bnez	s4,a14 <__adddf3+0x220>
 9f0:	00a7e6b3          	or	a3,a5,a0
 9f4:	00068863          	beqz	a3,a04 <__adddf3+0x210>
 9f8:	fff70693          	addi	a3,a4,-1
 9fc:	e80682e3          	beqz	a3,880 <__adddf3+0x8c>
 a00:	02671263          	bne	a4,t1,a24 <__adddf3+0x230>
 a04:	00058793          	mv	a5,a1
 a08:	00060513          	mv	a0,a2
 a0c:	00070a13          	mv	s4,a4
 a10:	e91ff06f          	j	8a0 <__adddf3+0xac>
 a14:	54688263          	beq	a7,t1,f58 <__adddf3+0x764>
 a18:	008006b7          	lui	a3,0x800
 a1c:	00d7e7b3          	or	a5,a5,a3
 a20:	00070693          	mv	a3,a4
 a24:	03800713          	li	a4,56
 a28:	06d74e63          	blt	a4,a3,aa4 <__adddf3+0x2b0>
 a2c:	01f00713          	li	a4,31
 a30:	02000313          	li	t1,32
 a34:	04d74063          	blt	a4,a3,a74 <__adddf3+0x280>
 a38:	40d30333          	sub	t1,t1,a3
 a3c:	00679733          	sll	a4,a5,t1
 a40:	00d55833          	srl	a6,a0,a3
 a44:	00651333          	sll	t1,a0,t1
 a48:	01076733          	or	a4,a4,a6
 a4c:	00603333          	snez	t1,t1
 a50:	00676733          	or	a4,a4,t1
 a54:	00d7d6b3          	srl	a3,a5,a3
 a58:	00c70633          	add	a2,a4,a2
 a5c:	00b686b3          	add	a3,a3,a1
 a60:	00e63733          	sltu	a4,a2,a4
 a64:	00060513          	mv	a0,a2
 a68:	00e687b3          	add	a5,a3,a4
 a6c:	00088a13          	mv	s4,a7
 a70:	efdff06f          	j	96c <__adddf3+0x178>
 a74:	fe068713          	addi	a4,a3,-32 # 7fffe0 <__heap_start+0x7fbfe0>
 a78:	00e7d733          	srl	a4,a5,a4
 a7c:	00000813          	li	a6,0
 a80:	00668863          	beq	a3,t1,a90 <__adddf3+0x29c>
 a84:	04000813          	li	a6,64
 a88:	40d80833          	sub	a6,a6,a3
 a8c:	01079833          	sll	a6,a5,a6
 a90:	00a86833          	or	a6,a6,a0
 a94:	01003833          	snez	a6,a6
 a98:	01076733          	or	a4,a4,a6
 a9c:	00000693          	li	a3,0
 aa0:	fb9ff06f          	j	a58 <__adddf3+0x264>
 aa4:	00a7e733          	or	a4,a5,a0
 aa8:	00e03733          	snez	a4,a4
 aac:	ff1ff06f          	j	a9c <__adddf3+0x2a8>
 ab0:	001a0713          	addi	a4,s4,1
 ab4:	7fe77693          	andi	a3,a4,2046
 ab8:	06069663          	bnez	a3,b24 <__adddf3+0x330>
 abc:	00a7e733          	or	a4,a5,a0
 ac0:	040a1263          	bnez	s4,b04 <__adddf3+0x310>
 ac4:	46070263          	beqz	a4,f28 <__adddf3+0x734>
 ac8:	00c5e733          	or	a4,a1,a2
 acc:	46070263          	beqz	a4,f30 <__adddf3+0x73c>
 ad0:	00c50733          	add	a4,a0,a2
 ad4:	00b785b3          	add	a1,a5,a1
 ad8:	00a737b3          	sltu	a5,a4,a0
 adc:	00f587b3          	add	a5,a1,a5
 ae0:	00879693          	slli	a3,a5,0x8
 ae4:	00070613          	mv	a2,a4
 ae8:	2c06de63          	bgez	a3,dc4 <__adddf3+0x5d0>
 aec:	ff8006b7          	lui	a3,0xff800
 af0:	fff68693          	addi	a3,a3,-1 # ff7fffff <__heap_start+0xff7fbfff>
 af4:	00d7f7b3          	and	a5,a5,a3
 af8:	00070513          	mv	a0,a4
 afc:	00100a13          	li	s4,1
 b00:	da1ff06f          	j	8a0 <__adddf3+0xac>
 b04:	42070a63          	beqz	a4,f38 <__adddf3+0x744>
 b08:	00c5e633          	or	a2,a1,a2
 b0c:	00030a13          	mv	s4,t1
 b10:	d80608e3          	beqz	a2,8a0 <__adddf3+0xac>
 b14:	00000993          	li	s3,0
 b18:	004007b7          	lui	a5,0x400
 b1c:	00000513          	li	a0,0
 b20:	d81ff06f          	j	8a0 <__adddf3+0xac>
 b24:	42670263          	beq	a4,t1,f48 <__adddf3+0x754>
 b28:	00c50633          	add	a2,a0,a2
 b2c:	00a63533          	sltu	a0,a2,a0
 b30:	00b785b3          	add	a1,a5,a1
 b34:	00a585b3          	add	a1,a1,a0
 b38:	01f59513          	slli	a0,a1,0x1f
 b3c:	00165613          	srli	a2,a2,0x1
 b40:	00c56533          	or	a0,a0,a2
 b44:	0015d793          	srli	a5,a1,0x1
 b48:	00070a13          	mv	s4,a4
 b4c:	00757713          	andi	a4,a0,7
 b50:	02070063          	beqz	a4,b70 <__adddf3+0x37c>
 b54:	00f57713          	andi	a4,a0,15
 b58:	00400693          	li	a3,4
 b5c:	00d70a63          	beq	a4,a3,b70 <__adddf3+0x37c>
 b60:	00d50733          	add	a4,a0,a3
 b64:	00a736b3          	sltu	a3,a4,a0
 b68:	00d787b3          	add	a5,a5,a3
 b6c:	00070513          	mv	a0,a4
 b70:	00879713          	slli	a4,a5,0x8
 b74:	d20756e3          	bgez	a4,8a0 <__adddf3+0xac>
 b78:	001a0a13          	addi	s4,s4,1
 b7c:	7ff00713          	li	a4,2047
 b80:	3cea0663          	beq	s4,a4,f4c <__adddf3+0x758>
 b84:	ff800737          	lui	a4,0xff800
 b88:	fff70713          	addi	a4,a4,-1 # ff7fffff <__heap_start+0xff7fbfff>
 b8c:	00e7f7b3          	and	a5,a5,a4
 b90:	d11ff06f          	j	8a0 <__adddf3+0xac>
 b94:	0f005463          	blez	a6,c7c <__adddf3+0x488>
 b98:	08089c63          	bnez	a7,c30 <__adddf3+0x43c>
 b9c:	00c5e733          	or	a4,a1,a2
 ba0:	d00700e3          	beqz	a4,8a0 <__adddf3+0xac>
 ba4:	fffa0813          	addi	a6,s4,-1
 ba8:	02081063          	bnez	a6,bc8 <__adddf3+0x3d4>
 bac:	40c50633          	sub	a2,a0,a2
 bb0:	00c53733          	sltu	a4,a0,a2
 bb4:	40b785b3          	sub	a1,a5,a1
 bb8:	00060513          	mv	a0,a2
 bbc:	40e587b3          	sub	a5,a1,a4
 bc0:	00100a13          	li	s4,1
 bc4:	0500006f          	j	c14 <__adddf3+0x420>
 bc8:	cc6a0ce3          	beq	s4,t1,8a0 <__adddf3+0xac>
 bcc:	03800713          	li	a4,56
 bd0:	0b074063          	blt	a4,a6,c70 <__adddf3+0x47c>
 bd4:	01f00713          	li	a4,31
 bd8:	02000893          	li	a7,32
 bdc:	07074263          	blt	a4,a6,c40 <__adddf3+0x44c>
 be0:	410888b3          	sub	a7,a7,a6
 be4:	01159733          	sll	a4,a1,a7
 be8:	010656b3          	srl	a3,a2,a6
 bec:	011618b3          	sll	a7,a2,a7
 bf0:	00d76733          	or	a4,a4,a3
 bf4:	011038b3          	snez	a7,a7
 bf8:	01176733          	or	a4,a4,a7
 bfc:	0105d833          	srl	a6,a1,a6
 c00:	40e50733          	sub	a4,a0,a4
 c04:	00e536b3          	sltu	a3,a0,a4
 c08:	41078833          	sub	a6,a5,a6
 c0c:	00070513          	mv	a0,a4
 c10:	40d807b3          	sub	a5,a6,a3
 c14:	00879713          	slli	a4,a5,0x8
 c18:	f2075ae3          	bgez	a4,b4c <__adddf3+0x358>
 c1c:	00800937          	lui	s2,0x800
 c20:	fff90913          	addi	s2,s2,-1 # 7fffff <__heap_start+0x7fbfff>
 c24:	0127f933          	and	s2,a5,s2
 c28:	00050a93          	mv	s5,a0
 c2c:	2180006f          	j	e44 <__adddf3+0x650>
 c30:	c66a08e3          	beq	s4,t1,8a0 <__adddf3+0xac>
 c34:	00800737          	lui	a4,0x800
 c38:	00e5e5b3          	or	a1,a1,a4
 c3c:	f91ff06f          	j	bcc <__adddf3+0x3d8>
 c40:	fe080713          	addi	a4,a6,-32
 c44:	00e5d733          	srl	a4,a1,a4
 c48:	00000693          	li	a3,0
 c4c:	01180863          	beq	a6,a7,c5c <__adddf3+0x468>
 c50:	04000693          	li	a3,64
 c54:	410686b3          	sub	a3,a3,a6
 c58:	00d596b3          	sll	a3,a1,a3
 c5c:	00c6e6b3          	or	a3,a3,a2
 c60:	00d036b3          	snez	a3,a3
 c64:	00d76733          	or	a4,a4,a3
 c68:	00000813          	li	a6,0
 c6c:	f95ff06f          	j	c00 <__adddf3+0x40c>
 c70:	00c5e733          	or	a4,a1,a2
 c74:	00e03733          	snez	a4,a4
 c78:	ff1ff06f          	j	c68 <__adddf3+0x474>
 c7c:	0e080463          	beqz	a6,d64 <__adddf3+0x570>
 c80:	41488833          	sub	a6,a7,s4
 c84:	040a1263          	bnez	s4,cc8 <__adddf3+0x4d4>
 c88:	00a7e733          	or	a4,a5,a0
 c8c:	02070463          	beqz	a4,cb4 <__adddf3+0x4c0>
 c90:	fff80713          	addi	a4,a6,-1
 c94:	00071e63          	bnez	a4,cb0 <__adddf3+0x4bc>
 c98:	40a60533          	sub	a0,a2,a0
 c9c:	40f585b3          	sub	a1,a1,a5
 ca0:	00a63633          	sltu	a2,a2,a0
 ca4:	40c587b3          	sub	a5,a1,a2
 ca8:	00068993          	mv	s3,a3
 cac:	f15ff06f          	j	bc0 <__adddf3+0x3cc>
 cb0:	02681463          	bne	a6,t1,cd8 <__adddf3+0x4e4>
 cb4:	00068993          	mv	s3,a3
 cb8:	00058793          	mv	a5,a1
 cbc:	00060513          	mv	a0,a2
 cc0:	00080a13          	mv	s4,a6
 cc4:	bddff06f          	j	8a0 <__adddf3+0xac>
 cc8:	28688663          	beq	a7,t1,f54 <__adddf3+0x760>
 ccc:	00800737          	lui	a4,0x800
 cd0:	00e7e7b3          	or	a5,a5,a4
 cd4:	00080713          	mv	a4,a6
 cd8:	03800813          	li	a6,56
 cdc:	06e84e63          	blt	a6,a4,d58 <__adddf3+0x564>
 ce0:	01f00813          	li	a6,31
 ce4:	02000e13          	li	t3,32
 ce8:	04e84063          	blt	a6,a4,d28 <__adddf3+0x534>
 cec:	40ee0e33          	sub	t3,t3,a4
 cf0:	00e55333          	srl	t1,a0,a4
 cf4:	01c79833          	sll	a6,a5,t3
 cf8:	01c51e33          	sll	t3,a0,t3
 cfc:	00686833          	or	a6,a6,t1
 d00:	01c03e33          	snez	t3,t3
 d04:	01c86533          	or	a0,a6,t3
 d08:	00e7d733          	srl	a4,a5,a4
 d0c:	40a60533          	sub	a0,a2,a0
 d10:	40e58733          	sub	a4,a1,a4
 d14:	00a63633          	sltu	a2,a2,a0
 d18:	40c707b3          	sub	a5,a4,a2
 d1c:	00088a13          	mv	s4,a7
 d20:	00068993          	mv	s3,a3
 d24:	ef1ff06f          	j	c14 <__adddf3+0x420>
 d28:	fe070813          	addi	a6,a4,-32 # 7fffe0 <__heap_start+0x7fbfe0>
 d2c:	0107d833          	srl	a6,a5,a6
 d30:	00000313          	li	t1,0
 d34:	01c70863          	beq	a4,t3,d44 <__adddf3+0x550>
 d38:	04000313          	li	t1,64
 d3c:	40e30333          	sub	t1,t1,a4
 d40:	00679333          	sll	t1,a5,t1
 d44:	00a36333          	or	t1,t1,a0
 d48:	00603333          	snez	t1,t1
 d4c:	00686533          	or	a0,a6,t1
 d50:	00000713          	li	a4,0
 d54:	fb9ff06f          	j	d0c <__adddf3+0x518>
 d58:	00a7e533          	or	a0,a5,a0
 d5c:	00a03533          	snez	a0,a0
 d60:	ff1ff06f          	j	d50 <__adddf3+0x55c>
 d64:	001a0713          	addi	a4,s4,1
 d68:	7fe77713          	andi	a4,a4,2046
 d6c:	0a071463          	bnez	a4,e14 <__adddf3+0x620>
 d70:	00a7e833          	or	a6,a5,a0
 d74:	00c5e733          	or	a4,a1,a2
 d78:	060a1a63          	bnez	s4,dec <__adddf3+0x5f8>
 d7c:	00081a63          	bnez	a6,d90 <__adddf3+0x59c>
 d80:	00058793          	mv	a5,a1
 d84:	02071e63          	bnez	a4,dc0 <__adddf3+0x5cc>
 d88:	00000993          	li	s3,0
 d8c:	1c00006f          	j	f4c <__adddf3+0x758>
 d90:	1a070063          	beqz	a4,f30 <__adddf3+0x73c>
 d94:	40c50833          	sub	a6,a0,a2
 d98:	010538b3          	sltu	a7,a0,a6
 d9c:	40b78733          	sub	a4,a5,a1
 da0:	41170733          	sub	a4,a4,a7
 da4:	00871893          	slli	a7,a4,0x8
 da8:	0208d863          	bgez	a7,dd8 <__adddf3+0x5e4>
 dac:	40a60533          	sub	a0,a2,a0
 db0:	00a63733          	sltu	a4,a2,a0
 db4:	40f585b3          	sub	a1,a1,a5
 db8:	00050613          	mv	a2,a0
 dbc:	40e587b3          	sub	a5,a1,a4
 dc0:	00068993          	mv	s3,a3
 dc4:	00c7e533          	or	a0,a5,a2
 dc8:	0e050663          	beqz	a0,eb4 <__adddf3+0x6c0>
 dcc:	00060513          	mv	a0,a2
 dd0:	00000a13          	li	s4,0
 dd4:	d79ff06f          	j	b4c <__adddf3+0x358>
 dd8:	00e86533          	or	a0,a6,a4
 ddc:	18050663          	beqz	a0,f68 <__adddf3+0x774>
 de0:	00070793          	mv	a5,a4
 de4:	00080613          	mv	a2,a6
 de8:	fddff06f          	j	dc4 <__adddf3+0x5d0>
 dec:	00081e63          	bnez	a6,e08 <__adddf3+0x614>
 df0:	00068993          	mv	s3,a3
 df4:	14071263          	bnez	a4,f38 <__adddf3+0x744>
 df8:	00000993          	li	s3,0
 dfc:	004007b7          	lui	a5,0x400
 e00:	00000513          	li	a0,0
 e04:	13c0006f          	j	f40 <__adddf3+0x74c>
 e08:	00030a13          	mv	s4,t1
 e0c:	a8070ae3          	beqz	a4,8a0 <__adddf3+0xac>
 e10:	d05ff06f          	j	b14 <__adddf3+0x320>
 e14:	40c50733          	sub	a4,a0,a2
 e18:	00e53833          	sltu	a6,a0,a4
 e1c:	40b78933          	sub	s2,a5,a1
 e20:	41090933          	sub	s2,s2,a6
 e24:	00891813          	slli	a6,s2,0x8
 e28:	00070a93          	mv	s5,a4
 e2c:	06085e63          	bgez	a6,ea8 <__adddf3+0x6b4>
 e30:	40a60ab3          	sub	s5,a2,a0
 e34:	40f58933          	sub	s2,a1,a5
 e38:	01563633          	sltu	a2,a2,s5
 e3c:	40c90933          	sub	s2,s2,a2
 e40:	00068993          	mv	s3,a3
 e44:	06090e63          	beqz	s2,ec0 <__adddf3+0x6cc>
 e48:	00090513          	mv	a0,s2
 e4c:	31c020ef          	jal	3168 <__clzsi2>
 e50:	ff850613          	addi	a2,a0,-8
 e54:	02000793          	li	a5,32
 e58:	40c787b3          	sub	a5,a5,a2
 e5c:	00c91933          	sll	s2,s2,a2
 e60:	00fad7b3          	srl	a5,s5,a5
 e64:	0127e7b3          	or	a5,a5,s2
 e68:	00ca9933          	sll	s2,s5,a2
 e6c:	0b464263          	blt	a2,s4,f10 <__adddf3+0x71c>
 e70:	41460633          	sub	a2,a2,s4
 e74:	00160593          	addi	a1,a2,1 # 7ff00001 <__heap_start+0x7fefc001>
 e78:	01f00713          	li	a4,31
 e7c:	02000693          	li	a3,32
 e80:	06b74063          	blt	a4,a1,ee0 <__adddf3+0x6ec>
 e84:	40b686b3          	sub	a3,a3,a1
 e88:	00d79633          	sll	a2,a5,a3
 e8c:	00b95733          	srl	a4,s2,a1
 e90:	00d916b3          	sll	a3,s2,a3
 e94:	00e66633          	or	a2,a2,a4
 e98:	00d036b3          	snez	a3,a3
 e9c:	00d66633          	or	a2,a2,a3
 ea0:	00b7d7b3          	srl	a5,a5,a1
 ea4:	f21ff06f          	j	dc4 <__adddf3+0x5d0>
 ea8:	01276533          	or	a0,a4,s2
 eac:	f8051ce3          	bnez	a0,e44 <__adddf3+0x650>
 eb0:	00000993          	li	s3,0
 eb4:	00000793          	li	a5,0
 eb8:	00000a13          	li	s4,0
 ebc:	9e5ff06f          	j	8a0 <__adddf3+0xac>
 ec0:	000a8513          	mv	a0,s5
 ec4:	2a4020ef          	jal	3168 <__clzsi2>
 ec8:	01850613          	addi	a2,a0,24
 ecc:	01f00793          	li	a5,31
 ed0:	f8c7d2e3          	bge	a5,a2,e54 <__adddf3+0x660>
 ed4:	ff850793          	addi	a5,a0,-8
 ed8:	00fa97b3          	sll	a5,s5,a5
 edc:	f91ff06f          	j	e6c <__adddf3+0x678>
 ee0:	fe160613          	addi	a2,a2,-31
 ee4:	00c7d633          	srl	a2,a5,a2
 ee8:	00000713          	li	a4,0
 eec:	00d58863          	beq	a1,a3,efc <__adddf3+0x708>
 ef0:	04000713          	li	a4,64
 ef4:	40b70733          	sub	a4,a4,a1
 ef8:	00e79733          	sll	a4,a5,a4
 efc:	00e96733          	or	a4,s2,a4
 f00:	00e03733          	snez	a4,a4
 f04:	00e66633          	or	a2,a2,a4
 f08:	00000793          	li	a5,0
 f0c:	eb9ff06f          	j	dc4 <__adddf3+0x5d0>
 f10:	ff800737          	lui	a4,0xff800
 f14:	fff70713          	addi	a4,a4,-1 # ff7fffff <__heap_start+0xff7fbfff>
 f18:	40ca0a33          	sub	s4,s4,a2
 f1c:	00e7f7b3          	and	a5,a5,a4
 f20:	00090513          	mv	a0,s2
 f24:	c29ff06f          	j	b4c <__adddf3+0x358>
 f28:	00058793          	mv	a5,a1
 f2c:	e99ff06f          	j	dc4 <__adddf3+0x5d0>
 f30:	00050613          	mv	a2,a0
 f34:	e91ff06f          	j	dc4 <__adddf3+0x5d0>
 f38:	00058793          	mv	a5,a1
 f3c:	00060513          	mv	a0,a2
 f40:	00030a13          	mv	s4,t1
 f44:	95dff06f          	j	8a0 <__adddf3+0xac>
 f48:	00070a13          	mv	s4,a4
 f4c:	00000793          	li	a5,0
 f50:	bcdff06f          	j	b1c <__adddf3+0x328>
 f54:	00068993          	mv	s3,a3
 f58:	00058793          	mv	a5,a1
 f5c:	00060513          	mv	a0,a2
 f60:	00088a13          	mv	s4,a7
 f64:	93dff06f          	j	8a0 <__adddf3+0xac>
 f68:	00000993          	li	s3,0
 f6c:	00000793          	li	a5,0
 f70:	931ff06f          	j	8a0 <__adddf3+0xac>

Disassembly of section .text.__divdf3:

00000f74 <__divdf3>:
     f74:	fb010113          	addi	sp,sp,-80
     f78:	03512a23          	sw	s5,52(sp)
     f7c:	0145da93          	srli	s5,a1,0x14
     f80:	04812423          	sw	s0,72(sp)
     f84:	03412c23          	sw	s4,56(sp)
     f88:	03612823          	sw	s6,48(sp)
     f8c:	03812423          	sw	s8,40(sp)
     f90:	03a12023          	sw	s10,32(sp)
     f94:	00c59413          	slli	s0,a1,0xc
     f98:	04112623          	sw	ra,76(sp)
     f9c:	04912223          	sw	s1,68(sp)
     fa0:	05212023          	sw	s2,64(sp)
     fa4:	03312e23          	sw	s3,60(sp)
     fa8:	03712623          	sw	s7,44(sp)
     fac:	03912223          	sw	s9,36(sp)
     fb0:	01b12e23          	sw	s11,28(sp)
     fb4:	7ffafa93          	andi	s5,s5,2047
     fb8:	00050a13          	mv	s4,a0
     fbc:	00060d13          	mv	s10,a2
     fc0:	00068c13          	mv	s8,a3
     fc4:	00c45413          	srli	s0,s0,0xc
     fc8:	01f5db13          	srli	s6,a1,0x1f
     fcc:	0a0a8063          	beqz	s5,106c <__divdf3+0xf8>
     fd0:	7ff00793          	li	a5,2047
     fd4:	10fa8063          	beq	s5,a5,10d4 <__divdf3+0x160>
     fd8:	01d55b93          	srli	s7,a0,0x1d
     fdc:	00341413          	slli	s0,s0,0x3
     fe0:	008bebb3          	or	s7,s7,s0
     fe4:	008007b7          	lui	a5,0x800
     fe8:	00fbebb3          	or	s7,s7,a5
     fec:	00351493          	slli	s1,a0,0x3
     ff0:	c01a8a93          	addi	s5,s5,-1023
     ff4:	00000c93          	li	s9,0
     ff8:	014c5713          	srli	a4,s8,0x14
     ffc:	00cc1413          	slli	s0,s8,0xc
    1000:	7ff77713          	andi	a4,a4,2047
    1004:	00c45413          	srli	s0,s0,0xc
    1008:	01fc5c13          	srli	s8,s8,0x1f
    100c:	0e070e63          	beqz	a4,1108 <__divdf3+0x194>
    1010:	7ff00793          	li	a5,2047
    1014:	16f70263          	beq	a4,a5,1178 <__divdf3+0x204>
    1018:	00341413          	slli	s0,s0,0x3
    101c:	01dd5793          	srli	a5,s10,0x1d
    1020:	0087e7b3          	or	a5,a5,s0
    1024:	00800437          	lui	s0,0x800
    1028:	0087e433          	or	s0,a5,s0
    102c:	003d1813          	slli	a6,s10,0x3
    1030:	c0170713          	addi	a4,a4,-1023
    1034:	00000693          	li	a3,0
    1038:	002c9793          	slli	a5,s9,0x2
    103c:	00d7e7b3          	or	a5,a5,a3
    1040:	40ea8ab3          	sub	s5,s5,a4
    1044:	fff78793          	addi	a5,a5,-1 # 7fffff <__heap_start+0x7fbfff>
    1048:	00e00713          	li	a4,14
    104c:	018b4a33          	xor	s4,s6,s8
    1050:	14f76c63          	bltu	a4,a5,11a8 <__divdf3+0x234>
    1054:	00003737          	lui	a4,0x3
    1058:	00279793          	slli	a5,a5,0x2
    105c:	1f870713          	addi	a4,a4,504 # 31f8 <__clzsi2+0x90>
    1060:	00e787b3          	add	a5,a5,a4
    1064:	0007a783          	lw	a5,0(a5)
    1068:	00078067          	jr	a5
    106c:	00a46bb3          	or	s7,s0,a0
    1070:	060b8c63          	beqz	s7,10e8 <__divdf3+0x174>
    1074:	02040e63          	beqz	s0,10b0 <__divdf3+0x13c>
    1078:	00040513          	mv	a0,s0
    107c:	0ec020ef          	jal	3168 <__clzsi2>
    1080:	ff550793          	addi	a5,a0,-11
    1084:	01d00b93          	li	s7,29
    1088:	ff850713          	addi	a4,a0,-8
    108c:	40fb8bb3          	sub	s7,s7,a5
    1090:	00e41433          	sll	s0,s0,a4
    1094:	017a5bb3          	srl	s7,s4,s7
    1098:	008bebb3          	or	s7,s7,s0
    109c:	00ea1433          	sll	s0,s4,a4
    10a0:	c0d00a93          	li	s5,-1011
    10a4:	40aa8ab3          	sub	s5,s5,a0
    10a8:	00040493          	mv	s1,s0
    10ac:	f49ff06f          	j	ff4 <__divdf3+0x80>
    10b0:	0b8020ef          	jal	3168 <__clzsi2>
    10b4:	00050b93          	mv	s7,a0
    10b8:	015b8793          	addi	a5,s7,21
    10bc:	01c00713          	li	a4,28
    10c0:	02050513          	addi	a0,a0,32
    10c4:	fcf750e3          	bge	a4,a5,1084 <__divdf3+0x110>
    10c8:	ff8b8b93          	addi	s7,s7,-8
    10cc:	017a1bb3          	sll	s7,s4,s7
    10d0:	fd1ff06f          	j	10a0 <__divdf3+0x12c>
    10d4:	00a46bb3          	or	s7,s0,a0
    10d8:	020b9063          	bnez	s7,10f8 <__divdf3+0x184>
    10dc:	00000493          	li	s1,0
    10e0:	00200c93          	li	s9,2
    10e4:	f15ff06f          	j	ff8 <__divdf3+0x84>
    10e8:	00000493          	li	s1,0
    10ec:	00000a93          	li	s5,0
    10f0:	00100c93          	li	s9,1
    10f4:	f05ff06f          	j	ff8 <__divdf3+0x84>
    10f8:	00050493          	mv	s1,a0
    10fc:	00040b93          	mv	s7,s0
    1100:	00300c93          	li	s9,3
    1104:	ef5ff06f          	j	ff8 <__divdf3+0x84>
    1108:	01a46833          	or	a6,s0,s10
    110c:	08080063          	beqz	a6,118c <__divdf3+0x218>
    1110:	04040063          	beqz	s0,1150 <__divdf3+0x1dc>
    1114:	00040513          	mv	a0,s0
    1118:	050020ef          	jal	3168 <__clzsi2>
    111c:	ff550713          	addi	a4,a0,-11
    1120:	01d00793          	li	a5,29
    1124:	ff850693          	addi	a3,a0,-8
    1128:	40e787b3          	sub	a5,a5,a4
    112c:	00d41433          	sll	s0,s0,a3
    1130:	00fd57b3          	srl	a5,s10,a5
    1134:	0087e7b3          	or	a5,a5,s0
    1138:	00dd1433          	sll	s0,s10,a3
    113c:	c0d00713          	li	a4,-1011
    1140:	00040813          	mv	a6,s0
    1144:	40a70733          	sub	a4,a4,a0
    1148:	00078413          	mv	s0,a5
    114c:	ee9ff06f          	j	1034 <__divdf3+0xc0>
    1150:	000d0513          	mv	a0,s10
    1154:	014020ef          	jal	3168 <__clzsi2>
    1158:	00050793          	mv	a5,a0
    115c:	01578713          	addi	a4,a5,21
    1160:	01c00693          	li	a3,28
    1164:	02050513          	addi	a0,a0,32
    1168:	fae6dce3          	bge	a3,a4,1120 <__divdf3+0x1ac>
    116c:	ff878793          	addi	a5,a5,-8
    1170:	00fd17b3          	sll	a5,s10,a5
    1174:	fc9ff06f          	j	113c <__divdf3+0x1c8>
    1178:	01a46833          	or	a6,s0,s10
    117c:	02081063          	bnez	a6,119c <__divdf3+0x228>
    1180:	00000413          	li	s0,0
    1184:	00200693          	li	a3,2
    1188:	eb1ff06f          	j	1038 <__divdf3+0xc4>
    118c:	00000413          	li	s0,0
    1190:	00000713          	li	a4,0
    1194:	00100693          	li	a3,1
    1198:	ea1ff06f          	j	1038 <__divdf3+0xc4>
    119c:	000d0813          	mv	a6,s10
    11a0:	00300693          	li	a3,3
    11a4:	e95ff06f          	j	1038 <__divdf3+0xc4>
    11a8:	01746663          	bltu	s0,s7,11b4 <__divdf3+0x240>
    11ac:	448b9e63          	bne	s7,s0,1608 <__divdf3+0x694>
    11b0:	4504ec63          	bltu	s1,a6,1608 <__divdf3+0x694>
    11b4:	01fb9713          	slli	a4,s7,0x1f
    11b8:	0014d793          	srli	a5,s1,0x1
    11bc:	01f49c93          	slli	s9,s1,0x1f
    11c0:	001bdb93          	srli	s7,s7,0x1
    11c4:	00f764b3          	or	s1,a4,a5
    11c8:	00841413          	slli	s0,s0,0x8
    11cc:	01045793          	srli	a5,s0,0x10
    11d0:	01885d93          	srli	s11,a6,0x18
    11d4:	00f12423          	sw	a5,8(sp)
    11d8:	008dedb3          	or	s11,s11,s0
    11dc:	00812583          	lw	a1,8(sp)
    11e0:	010d9793          	slli	a5,s11,0x10
    11e4:	0107d793          	srli	a5,a5,0x10
    11e8:	000b8513          	mv	a0,s7
    11ec:	00f12623          	sw	a5,12(sp)
    11f0:	00881b13          	slli	s6,a6,0x8
    11f4:	8a8ff0ef          	jal	29c <__hidden___udivsi3>
    11f8:	00050593          	mv	a1,a0
    11fc:	00050c13          	mv	s8,a0
    1200:	010d9513          	slli	a0,s11,0x10
    1204:	01055513          	srli	a0,a0,0x10
    1208:	868ff0ef          	jal	270 <__mulsi3>
    120c:	00812583          	lw	a1,8(sp)
    1210:	00050413          	mv	s0,a0
    1214:	000b8513          	mv	a0,s7
    1218:	8ccff0ef          	jal	2e4 <__umodsi3>
    121c:	01051513          	slli	a0,a0,0x10
    1220:	0104d793          	srli	a5,s1,0x10
    1224:	00a7e7b3          	or	a5,a5,a0
    1228:	000c0b93          	mv	s7,s8
    122c:	0087fe63          	bgeu	a5,s0,1248 <__divdf3+0x2d4>
    1230:	00fd87b3          	add	a5,s11,a5
    1234:	fffc0b93          	addi	s7,s8,-1
    1238:	01b7e863          	bltu	a5,s11,1248 <__divdf3+0x2d4>
    123c:	0087f663          	bgeu	a5,s0,1248 <__divdf3+0x2d4>
    1240:	ffec0b93          	addi	s7,s8,-2
    1244:	01b787b3          	add	a5,a5,s11
    1248:	00812583          	lw	a1,8(sp)
    124c:	40878433          	sub	s0,a5,s0
    1250:	00040513          	mv	a0,s0
    1254:	848ff0ef          	jal	29c <__hidden___udivsi3>
    1258:	00050593          	mv	a1,a0
    125c:	00050d13          	mv	s10,a0
    1260:	010d9513          	slli	a0,s11,0x10
    1264:	01055513          	srli	a0,a0,0x10
    1268:	808ff0ef          	jal	270 <__mulsi3>
    126c:	00812583          	lw	a1,8(sp)
    1270:	00050c13          	mv	s8,a0
    1274:	00040513          	mv	a0,s0
    1278:	86cff0ef          	jal	2e4 <__umodsi3>
    127c:	01049493          	slli	s1,s1,0x10
    1280:	01051513          	slli	a0,a0,0x10
    1284:	0104d493          	srli	s1,s1,0x10
    1288:	00a4e4b3          	or	s1,s1,a0
    128c:	000d0793          	mv	a5,s10
    1290:	0184fe63          	bgeu	s1,s8,12ac <__divdf3+0x338>
    1294:	009d84b3          	add	s1,s11,s1
    1298:	fffd0793          	addi	a5,s10,-1
    129c:	01b4e863          	bltu	s1,s11,12ac <__divdf3+0x338>
    12a0:	0184f663          	bgeu	s1,s8,12ac <__divdf3+0x338>
    12a4:	ffed0793          	addi	a5,s10,-2
    12a8:	01b484b3          	add	s1,s1,s11
    12ac:	010b9813          	slli	a6,s7,0x10
    12b0:	00f86833          	or	a6,a6,a5
    12b4:	01081793          	slli	a5,a6,0x10
    12b8:	010b1713          	slli	a4,s6,0x10
    12bc:	01075713          	srli	a4,a4,0x10
    12c0:	0107d793          	srli	a5,a5,0x10
    12c4:	418484b3          	sub	s1,s1,s8
    12c8:	01085e93          	srli	t4,a6,0x10
    12cc:	00078513          	mv	a0,a5
    12d0:	00e12623          	sw	a4,12(sp)
    12d4:	00070593          	mv	a1,a4
    12d8:	f99fe0ef          	jal	270 <__mulsi3>
    12dc:	00050313          	mv	t1,a0
    12e0:	010b5593          	srli	a1,s6,0x10
    12e4:	00078513          	mv	a0,a5
    12e8:	f89fe0ef          	jal	270 <__mulsi3>
    12ec:	00050793          	mv	a5,a0
    12f0:	00070593          	mv	a1,a4
    12f4:	000e8513          	mv	a0,t4
    12f8:	f79fe0ef          	jal	270 <__mulsi3>
    12fc:	00050e13          	mv	t3,a0
    1300:	010b5593          	srli	a1,s6,0x10
    1304:	000e8513          	mv	a0,t4
    1308:	f69fe0ef          	jal	270 <__mulsi3>
    130c:	01035d13          	srli	s10,t1,0x10
    1310:	01c787b3          	add	a5,a5,t3
    1314:	00fd0d33          	add	s10,s10,a5
    1318:	00050693          	mv	a3,a0
    131c:	01cd7663          	bgeu	s10,t3,1328 <__divdf3+0x3b4>
    1320:	000107b7          	lui	a5,0x10
    1324:	00f506b3          	add	a3,a0,a5
    1328:	010d5793          	srli	a5,s10,0x10
    132c:	01031313          	slli	t1,t1,0x10
    1330:	010d1d13          	slli	s10,s10,0x10
    1334:	01035313          	srli	t1,t1,0x10
    1338:	00d787b3          	add	a5,a5,a3
    133c:	006d0d33          	add	s10,s10,t1
    1340:	00f4e863          	bltu	s1,a5,1350 <__divdf3+0x3dc>
    1344:	00080413          	mv	s0,a6
    1348:	04f49863          	bne	s1,a5,1398 <__divdf3+0x424>
    134c:	05acf663          	bgeu	s9,s10,1398 <__divdf3+0x424>
    1350:	016c86b3          	add	a3,s9,s6
    1354:	0196b633          	sltu	a2,a3,s9
    1358:	01b605b3          	add	a1,a2,s11
    135c:	00b484b3          	add	s1,s1,a1
    1360:	fff80413          	addi	s0,a6,-1
    1364:	00068c93          	mv	s9,a3
    1368:	009de663          	bltu	s11,s1,1374 <__divdf3+0x400>
    136c:	029d9663          	bne	s11,s1,1398 <__divdf3+0x424>
    1370:	02061463          	bnez	a2,1398 <__divdf3+0x424>
    1374:	00f4e663          	bltu	s1,a5,1380 <__divdf3+0x40c>
    1378:	02979063          	bne	a5,s1,1398 <__divdf3+0x424>
    137c:	01a6fe63          	bgeu	a3,s10,1398 <__divdf3+0x424>
    1380:	00db06b3          	add	a3,s6,a3
    1384:	00068c93          	mv	s9,a3
    1388:	0166b6b3          	sltu	a3,a3,s6
    138c:	01b686b3          	add	a3,a3,s11
    1390:	ffe80413          	addi	s0,a6,-2
    1394:	00d484b3          	add	s1,s1,a3
    1398:	41ac8d33          	sub	s10,s9,s10
    139c:	40f484b3          	sub	s1,s1,a5
    13a0:	01acb8b3          	sltu	a7,s9,s10
    13a4:	411484b3          	sub	s1,s1,a7
    13a8:	fff00813          	li	a6,-1
    13ac:	1a9d8263          	beq	s11,s1,1550 <__divdf3+0x5dc>
    13b0:	00812583          	lw	a1,8(sp)
    13b4:	00048513          	mv	a0,s1
    13b8:	ee5fe0ef          	jal	29c <__hidden___udivsi3>
    13bc:	00050593          	mv	a1,a0
    13c0:	00050c13          	mv	s8,a0
    13c4:	010d9513          	slli	a0,s11,0x10
    13c8:	01055513          	srli	a0,a0,0x10
    13cc:	ea5fe0ef          	jal	270 <__mulsi3>
    13d0:	00812583          	lw	a1,8(sp)
    13d4:	00050b93          	mv	s7,a0
    13d8:	00048513          	mv	a0,s1
    13dc:	f09fe0ef          	jal	2e4 <__umodsi3>
    13e0:	01051513          	slli	a0,a0,0x10
    13e4:	010d5793          	srli	a5,s10,0x10
    13e8:	00a7e7b3          	or	a5,a5,a0
    13ec:	000c0493          	mv	s1,s8
    13f0:	0177fe63          	bgeu	a5,s7,140c <__divdf3+0x498>
    13f4:	00fd87b3          	add	a5,s11,a5
    13f8:	fffc0493          	addi	s1,s8,-1
    13fc:	01b7e863          	bltu	a5,s11,140c <__divdf3+0x498>
    1400:	0177f663          	bgeu	a5,s7,140c <__divdf3+0x498>
    1404:	ffec0493          	addi	s1,s8,-2
    1408:	01b787b3          	add	a5,a5,s11
    140c:	00812583          	lw	a1,8(sp)
    1410:	41778c33          	sub	s8,a5,s7
    1414:	000c0513          	mv	a0,s8
    1418:	e85fe0ef          	jal	29c <__hidden___udivsi3>
    141c:	00050593          	mv	a1,a0
    1420:	00050b93          	mv	s7,a0
    1424:	010d9513          	slli	a0,s11,0x10
    1428:	01055513          	srli	a0,a0,0x10
    142c:	e45fe0ef          	jal	270 <__mulsi3>
    1430:	00812583          	lw	a1,8(sp)
    1434:	00050c93          	mv	s9,a0
    1438:	000c0513          	mv	a0,s8
    143c:	ea9fe0ef          	jal	2e4 <__umodsi3>
    1440:	010d1793          	slli	a5,s10,0x10
    1444:	01051513          	slli	a0,a0,0x10
    1448:	0107d793          	srli	a5,a5,0x10
    144c:	00a7e7b3          	or	a5,a5,a0
    1450:	000b8613          	mv	a2,s7
    1454:	0197fe63          	bgeu	a5,s9,1470 <__divdf3+0x4fc>
    1458:	00fd87b3          	add	a5,s11,a5
    145c:	fffb8613          	addi	a2,s7,-1
    1460:	01b7e863          	bltu	a5,s11,1470 <__divdf3+0x4fc>
    1464:	0197f663          	bgeu	a5,s9,1470 <__divdf3+0x4fc>
    1468:	ffeb8613          	addi	a2,s7,-2
    146c:	01b787b3          	add	a5,a5,s11
    1470:	01049893          	slli	a7,s1,0x10
    1474:	00c8e8b3          	or	a7,a7,a2
    1478:	01089313          	slli	t1,a7,0x10
    147c:	01035313          	srli	t1,t1,0x10
    1480:	010b1593          	slli	a1,s6,0x10
    1484:	419787b3          	sub	a5,a5,s9
    1488:	0108de93          	srli	t4,a7,0x10
    148c:	00030513          	mv	a0,t1
    1490:	0105d593          	srli	a1,a1,0x10
    1494:	dddfe0ef          	jal	270 <__mulsi3>
    1498:	00050813          	mv	a6,a0
    149c:	010b5593          	srli	a1,s6,0x10
    14a0:	00030513          	mv	a0,t1
    14a4:	dcdfe0ef          	jal	270 <__mulsi3>
    14a8:	010b1593          	slli	a1,s6,0x10
    14ac:	00050313          	mv	t1,a0
    14b0:	0105d593          	srli	a1,a1,0x10
    14b4:	000e8513          	mv	a0,t4
    14b8:	db9fe0ef          	jal	270 <__mulsi3>
    14bc:	00050e13          	mv	t3,a0
    14c0:	010b5593          	srli	a1,s6,0x10
    14c4:	000e8513          	mv	a0,t4
    14c8:	da9fe0ef          	jal	270 <__mulsi3>
    14cc:	01085693          	srli	a3,a6,0x10
    14d0:	01c30333          	add	t1,t1,t3
    14d4:	006686b3          	add	a3,a3,t1
    14d8:	00050593          	mv	a1,a0
    14dc:	01c6f663          	bgeu	a3,t3,14e8 <__divdf3+0x574>
    14e0:	00010637          	lui	a2,0x10
    14e4:	00c505b3          	add	a1,a0,a2
    14e8:	0106d613          	srli	a2,a3,0x10
    14ec:	01081813          	slli	a6,a6,0x10
    14f0:	01069693          	slli	a3,a3,0x10
    14f4:	01085813          	srli	a6,a6,0x10
    14f8:	00b60633          	add	a2,a2,a1
    14fc:	010686b3          	add	a3,a3,a6
    1500:	00c7e863          	bltu	a5,a2,1510 <__divdf3+0x59c>
    1504:	00088813          	mv	a6,a7
    1508:	04c79263          	bne	a5,a2,154c <__divdf3+0x5d8>
    150c:	04068263          	beqz	a3,1550 <__divdf3+0x5dc>
    1510:	00fd87b3          	add	a5,s11,a5
    1514:	fff88813          	addi	a6,a7,-1
    1518:	00078593          	mv	a1,a5
    151c:	03b7e463          	bltu	a5,s11,1544 <__divdf3+0x5d0>
    1520:	00c7e663          	bltu	a5,a2,152c <__divdf3+0x5b8>
    1524:	02c79463          	bne	a5,a2,154c <__divdf3+0x5d8>
    1528:	02db7063          	bgeu	s6,a3,1548 <__divdf3+0x5d4>
    152c:	001b1513          	slli	a0,s6,0x1
    1530:	016535b3          	sltu	a1,a0,s6
    1534:	01b585b3          	add	a1,a1,s11
    1538:	ffe88813          	addi	a6,a7,-2
    153c:	00b785b3          	add	a1,a5,a1
    1540:	00050b13          	mv	s6,a0
    1544:	00c59463          	bne	a1,a2,154c <__divdf3+0x5d8>
    1548:	01668463          	beq	a3,s6,1550 <__divdf3+0x5dc>
    154c:	00186813          	ori	a6,a6,1
    1550:	3ffa8793          	addi	a5,s5,1023
    1554:	0ef05e63          	blez	a5,1650 <__divdf3+0x6dc>
    1558:	00787713          	andi	a4,a6,7
    155c:	02070063          	beqz	a4,157c <__divdf3+0x608>
    1560:	00f87713          	andi	a4,a6,15
    1564:	00400693          	li	a3,4
    1568:	00d70a63          	beq	a4,a3,157c <__divdf3+0x608>
    156c:	00d80733          	add	a4,a6,a3
    1570:	010736b3          	sltu	a3,a4,a6
    1574:	00d40433          	add	s0,s0,a3
    1578:	00070813          	mv	a6,a4
    157c:	00741713          	slli	a4,s0,0x7
    1580:	00075a63          	bgez	a4,1594 <__divdf3+0x620>
    1584:	ff0007b7          	lui	a5,0xff000
    1588:	fff78793          	addi	a5,a5,-1 # feffffff <__heap_start+0xfeffbfff>
    158c:	00f47433          	and	s0,s0,a5
    1590:	400a8793          	addi	a5,s5,1024
    1594:	7fe00713          	li	a4,2046
    1598:	18f74063          	blt	a4,a5,1718 <__divdf3+0x7a4>
    159c:	01d41713          	slli	a4,s0,0x1d
    15a0:	00385813          	srli	a6,a6,0x3
    15a4:	01076833          	or	a6,a4,a6
    15a8:	00345413          	srli	s0,s0,0x3
    15ac:	00c41413          	slli	s0,s0,0xc
    15b0:	00c45413          	srli	s0,s0,0xc
    15b4:	01479793          	slli	a5,a5,0x14
    15b8:	04c12083          	lw	ra,76(sp)
    15bc:	0087e7b3          	or	a5,a5,s0
    15c0:	04812403          	lw	s0,72(sp)
    15c4:	01fa1a13          	slli	s4,s4,0x1f
    15c8:	0147e733          	or	a4,a5,s4
    15cc:	04412483          	lw	s1,68(sp)
    15d0:	04012903          	lw	s2,64(sp)
    15d4:	03c12983          	lw	s3,60(sp)
    15d8:	03812a03          	lw	s4,56(sp)
    15dc:	03412a83          	lw	s5,52(sp)
    15e0:	03012b03          	lw	s6,48(sp)
    15e4:	02c12b83          	lw	s7,44(sp)
    15e8:	02812c03          	lw	s8,40(sp)
    15ec:	02412c83          	lw	s9,36(sp)
    15f0:	02012d03          	lw	s10,32(sp)
    15f4:	01c12d83          	lw	s11,28(sp)
    15f8:	00080513          	mv	a0,a6
    15fc:	00070593          	mv	a1,a4
    1600:	05010113          	addi	sp,sp,80
    1604:	00008067          	ret
    1608:	fffa8a93          	addi	s5,s5,-1
    160c:	00000c93          	li	s9,0
    1610:	bb9ff06f          	j	11c8 <__divdf3+0x254>
    1614:	000c0a13          	mv	s4,s8
    1618:	00068c93          	mv	s9,a3
    161c:	00200793          	li	a5,2
    1620:	0efc8c63          	beq	s9,a5,1718 <__divdf3+0x7a4>
    1624:	00300793          	li	a5,3
    1628:	0cfc8e63          	beq	s9,a5,1704 <__divdf3+0x790>
    162c:	00100793          	li	a5,1
    1630:	f2fc90e3          	bne	s9,a5,1550 <__divdf3+0x5dc>
    1634:	00000413          	li	s0,0
    1638:	00000813          	li	a6,0
    163c:	08c0006f          	j	16c8 <__divdf3+0x754>
    1640:	000b0a13          	mv	s4,s6
    1644:	000b8413          	mv	s0,s7
    1648:	00048813          	mv	a6,s1
    164c:	fd1ff06f          	j	161c <__divdf3+0x6a8>
    1650:	00100693          	li	a3,1
    1654:	00078c63          	beqz	a5,166c <__divdf3+0x6f8>
    1658:	40f686b3          	sub	a3,a3,a5
    165c:	03800713          	li	a4,56
    1660:	fcd74ae3          	blt	a4,a3,1634 <__divdf3+0x6c0>
    1664:	01f00713          	li	a4,31
    1668:	06d74463          	blt	a4,a3,16d0 <__divdf3+0x75c>
    166c:	41ea8a93          	addi	s5,s5,1054
    1670:	00d857b3          	srl	a5,a6,a3
    1674:	01581833          	sll	a6,a6,s5
    1678:	01003833          	snez	a6,a6
    167c:	01541ab3          	sll	s5,s0,s5
    1680:	01586833          	or	a6,a6,s5
    1684:	0107e7b3          	or	a5,a5,a6
    1688:	00d45433          	srl	s0,s0,a3
    168c:	0077f713          	andi	a4,a5,7
    1690:	02070063          	beqz	a4,16b0 <__divdf3+0x73c>
    1694:	00f7f713          	andi	a4,a5,15
    1698:	00400693          	li	a3,4
    169c:	00d70a63          	beq	a4,a3,16b0 <__divdf3+0x73c>
    16a0:	00d78733          	add	a4,a5,a3
    16a4:	00f736b3          	sltu	a3,a4,a5
    16a8:	00d40433          	add	s0,s0,a3
    16ac:	00070793          	mv	a5,a4
    16b0:	00841713          	slli	a4,s0,0x8
    16b4:	06074a63          	bltz	a4,1728 <__divdf3+0x7b4>
    16b8:	01d41813          	slli	a6,s0,0x1d
    16bc:	0037d793          	srli	a5,a5,0x3
    16c0:	00f86833          	or	a6,a6,a5
    16c4:	00345413          	srli	s0,s0,0x3
    16c8:	00000793          	li	a5,0
    16cc:	ee1ff06f          	j	15ac <__divdf3+0x638>
    16d0:	fe100713          	li	a4,-31
    16d4:	40f707b3          	sub	a5,a4,a5
    16d8:	02000613          	li	a2,32
    16dc:	00f457b3          	srl	a5,s0,a5
    16e0:	00000713          	li	a4,0
    16e4:	00c68663          	beq	a3,a2,16f0 <__divdf3+0x77c>
    16e8:	43ea8a93          	addi	s5,s5,1086
    16ec:	01541733          	sll	a4,s0,s5
    16f0:	01076733          	or	a4,a4,a6
    16f4:	00e03733          	snez	a4,a4
    16f8:	00e7e7b3          	or	a5,a5,a4
    16fc:	00000413          	li	s0,0
    1700:	f8dff06f          	j	168c <__divdf3+0x718>
    1704:	00080437          	lui	s0,0x80
    1708:	00000813          	li	a6,0
    170c:	7ff00793          	li	a5,2047
    1710:	00000a13          	li	s4,0
    1714:	e99ff06f          	j	15ac <__divdf3+0x638>
    1718:	00000413          	li	s0,0
    171c:	00000813          	li	a6,0
    1720:	7ff00793          	li	a5,2047
    1724:	e89ff06f          	j	15ac <__divdf3+0x638>
    1728:	00000413          	li	s0,0
    172c:	00000813          	li	a6,0
    1730:	00100793          	li	a5,1
    1734:	e79ff06f          	j	15ac <__divdf3+0x638>

Disassembly of section .text.__muldf3:

00001738 <__muldf3>:
    1738:	fd010113          	addi	sp,sp,-48
    173c:	01612823          	sw	s6,16(sp)
    1740:	0145db13          	srli	s6,a1,0x14
    1744:	02812423          	sw	s0,40(sp)
    1748:	02912223          	sw	s1,36(sp)
    174c:	01412c23          	sw	s4,24(sp)
    1750:	01512a23          	sw	s5,20(sp)
    1754:	01812423          	sw	s8,8(sp)
    1758:	00c59493          	slli	s1,a1,0xc
    175c:	02112623          	sw	ra,44(sp)
    1760:	03212023          	sw	s2,32(sp)
    1764:	01312e23          	sw	s3,28(sp)
    1768:	01712623          	sw	s7,12(sp)
    176c:	01912223          	sw	s9,4(sp)
    1770:	7ffb7b13          	andi	s6,s6,2047
    1774:	00050413          	mv	s0,a0
    1778:	00060c13          	mv	s8,a2
    177c:	00068a13          	mv	s4,a3
    1780:	00c4d493          	srli	s1,s1,0xc
    1784:	01f5da93          	srli	s5,a1,0x1f
    1788:	0c0b0263          	beqz	s6,184c <__muldf3+0x114>
    178c:	7ff00793          	li	a5,2047
    1790:	12fb0463          	beq	s6,a5,18b8 <__muldf3+0x180>
    1794:	00349493          	slli	s1,s1,0x3
    1798:	01d55793          	srli	a5,a0,0x1d
    179c:	0097e7b3          	or	a5,a5,s1
    17a0:	008004b7          	lui	s1,0x800
    17a4:	0097e4b3          	or	s1,a5,s1
    17a8:	00351b93          	slli	s7,a0,0x3
    17ac:	c01b0b13          	addi	s6,s6,-1023
    17b0:	00000c93          	li	s9,0
    17b4:	014a5693          	srli	a3,s4,0x14
    17b8:	00ca1413          	slli	s0,s4,0xc
    17bc:	7ff6f693          	andi	a3,a3,2047
    17c0:	00c45413          	srli	s0,s0,0xc
    17c4:	01fa5a13          	srli	s4,s4,0x1f
    17c8:	12068063          	beqz	a3,18e8 <__muldf3+0x1b0>
    17cc:	7ff00793          	li	a5,2047
    17d0:	18f68463          	beq	a3,a5,1958 <__muldf3+0x220>
    17d4:	00341413          	slli	s0,s0,0x3
    17d8:	01dc5793          	srli	a5,s8,0x1d
    17dc:	0087e7b3          	or	a5,a5,s0
    17e0:	00800437          	lui	s0,0x800
    17e4:	0087e433          	or	s0,a5,s0
    17e8:	c0168693          	addi	a3,a3,-1023
    17ec:	003c1793          	slli	a5,s8,0x3
    17f0:	00000613          	li	a2,0
    17f4:	002c9713          	slli	a4,s9,0x2
    17f8:	00db0b33          	add	s6,s6,a3
    17fc:	00c76733          	or	a4,a4,a2
    1800:	00a00693          	li	a3,10
    1804:	001b0893          	addi	a7,s6,1
    1808:	1ae6c263          	blt	a3,a4,19ac <__muldf3+0x274>
    180c:	00200593          	li	a1,2
    1810:	014ac833          	xor	a6,s5,s4
    1814:	00100693          	li	a3,1
    1818:	16e5c863          	blt	a1,a4,1988 <__muldf3+0x250>
    181c:	fff70713          	addi	a4,a4,-1
    1820:	1ae6e663          	bltu	a3,a4,19cc <__muldf3+0x294>
    1824:	00060c93          	mv	s9,a2
    1828:	00200713          	li	a4,2
    182c:	5aec8063          	beq	s9,a4,1dcc <__muldf3+0x694>
    1830:	00300713          	li	a4,3
    1834:	58ec8663          	beq	s9,a4,1dc0 <__muldf3+0x688>
    1838:	00100713          	li	a4,1
    183c:	40ec9463          	bne	s9,a4,1c44 <__muldf3+0x50c>
    1840:	00000413          	li	s0,0
    1844:	00000693          	li	a3,0
    1848:	52c0006f          	j	1d74 <__muldf3+0x63c>
    184c:	00a4ebb3          	or	s7,s1,a0
    1850:	060b8e63          	beqz	s7,18cc <__muldf3+0x194>
    1854:	04048063          	beqz	s1,1894 <__muldf3+0x15c>
    1858:	00048513          	mv	a0,s1
    185c:	10d010ef          	jal	3168 <__clzsi2>
    1860:	ff550713          	addi	a4,a0,-11
    1864:	01d00793          	li	a5,29
    1868:	ff850693          	addi	a3,a0,-8
    186c:	40e787b3          	sub	a5,a5,a4
    1870:	00d494b3          	sll	s1,s1,a3
    1874:	00f457b3          	srl	a5,s0,a5
    1878:	0097e7b3          	or	a5,a5,s1
    187c:	00d414b3          	sll	s1,s0,a3
    1880:	c0d00b13          	li	s6,-1011
    1884:	00048b93          	mv	s7,s1
    1888:	40ab0b33          	sub	s6,s6,a0
    188c:	00078493          	mv	s1,a5
    1890:	f21ff06f          	j	17b0 <__muldf3+0x78>
    1894:	0d5010ef          	jal	3168 <__clzsi2>
    1898:	00050793          	mv	a5,a0
    189c:	01578713          	addi	a4,a5,21
    18a0:	01c00693          	li	a3,28
    18a4:	02050513          	addi	a0,a0,32
    18a8:	fae6dee3          	bge	a3,a4,1864 <__muldf3+0x12c>
    18ac:	ff878793          	addi	a5,a5,-8
    18b0:	00f417b3          	sll	a5,s0,a5
    18b4:	fcdff06f          	j	1880 <__muldf3+0x148>
    18b8:	00a4ebb3          	or	s7,s1,a0
    18bc:	020b9063          	bnez	s7,18dc <__muldf3+0x1a4>
    18c0:	00000493          	li	s1,0
    18c4:	00200c93          	li	s9,2
    18c8:	eedff06f          	j	17b4 <__muldf3+0x7c>
    18cc:	00000493          	li	s1,0
    18d0:	00000b13          	li	s6,0
    18d4:	00100c93          	li	s9,1
    18d8:	eddff06f          	j	17b4 <__muldf3+0x7c>
    18dc:	00050b93          	mv	s7,a0
    18e0:	00300c93          	li	s9,3
    18e4:	ed1ff06f          	j	17b4 <__muldf3+0x7c>
    18e8:	018467b3          	or	a5,s0,s8
    18ec:	08078063          	beqz	a5,196c <__muldf3+0x234>
    18f0:	04040063          	beqz	s0,1930 <__muldf3+0x1f8>
    18f4:	00040513          	mv	a0,s0
    18f8:	071010ef          	jal	3168 <__clzsi2>
    18fc:	ff550693          	addi	a3,a0,-11
    1900:	01d00713          	li	a4,29
    1904:	ff850793          	addi	a5,a0,-8
    1908:	40d70733          	sub	a4,a4,a3
    190c:	00f41433          	sll	s0,s0,a5
    1910:	00ec5733          	srl	a4,s8,a4
    1914:	00876733          	or	a4,a4,s0
    1918:	00fc1433          	sll	s0,s8,a5
    191c:	c0d00693          	li	a3,-1011
    1920:	00040793          	mv	a5,s0
    1924:	40a686b3          	sub	a3,a3,a0
    1928:	00070413          	mv	s0,a4
    192c:	ec5ff06f          	j	17f0 <__muldf3+0xb8>
    1930:	000c0513          	mv	a0,s8
    1934:	035010ef          	jal	3168 <__clzsi2>
    1938:	00050793          	mv	a5,a0
    193c:	01578693          	addi	a3,a5,21
    1940:	01c00713          	li	a4,28
    1944:	02050513          	addi	a0,a0,32
    1948:	fad75ce3          	bge	a4,a3,1900 <__muldf3+0x1c8>
    194c:	ff878793          	addi	a5,a5,-8
    1950:	00fc1733          	sll	a4,s8,a5
    1954:	fc9ff06f          	j	191c <__muldf3+0x1e4>
    1958:	018467b3          	or	a5,s0,s8
    195c:	02079063          	bnez	a5,197c <__muldf3+0x244>
    1960:	00000413          	li	s0,0
    1964:	00200613          	li	a2,2
    1968:	e8dff06f          	j	17f4 <__muldf3+0xbc>
    196c:	00000413          	li	s0,0
    1970:	00000693          	li	a3,0
    1974:	00100613          	li	a2,1
    1978:	e7dff06f          	j	17f4 <__muldf3+0xbc>
    197c:	000c0793          	mv	a5,s8
    1980:	00300613          	li	a2,3
    1984:	e71ff06f          	j	17f4 <__muldf3+0xbc>
    1988:	00e69733          	sll	a4,a3,a4
    198c:	53077693          	andi	a3,a4,1328
    1990:	02069863          	bnez	a3,19c0 <__muldf3+0x288>
    1994:	24077593          	andi	a1,a4,576
    1998:	40059c63          	bnez	a1,1db0 <__muldf3+0x678>
    199c:	08877713          	andi	a4,a4,136
    19a0:	02070663          	beqz	a4,19cc <__muldf3+0x294>
    19a4:	000a0813          	mv	a6,s4
    19a8:	e7dff06f          	j	1824 <__muldf3+0xec>
    19ac:	00f00693          	li	a3,15
    19b0:	40d70863          	beq	a4,a3,1dc0 <__muldf3+0x688>
    19b4:	00b00693          	li	a3,11
    19b8:	000a8813          	mv	a6,s5
    19bc:	fed704e3          	beq	a4,a3,19a4 <__muldf3+0x26c>
    19c0:	00048413          	mv	s0,s1
    19c4:	000b8793          	mv	a5,s7
    19c8:	e61ff06f          	j	1828 <__muldf3+0xf0>
    19cc:	010bd713          	srli	a4,s7,0x10
    19d0:	01079393          	slli	t2,a5,0x10
    19d4:	010b9b93          	slli	s7,s7,0x10
    19d8:	010bdb93          	srli	s7,s7,0x10
    19dc:	0103d393          	srli	t2,t2,0x10
    19e0:	0107de13          	srli	t3,a5,0x10
    19e4:	000b8513          	mv	a0,s7
    19e8:	00038593          	mv	a1,t2
    19ec:	885fe0ef          	jal	270 <__mulsi3>
    19f0:	00050793          	mv	a5,a0
    19f4:	000e0593          	mv	a1,t3
    19f8:	000b8513          	mv	a0,s7
    19fc:	875fe0ef          	jal	270 <__mulsi3>
    1a00:	00050e93          	mv	t4,a0
    1a04:	00038593          	mv	a1,t2
    1a08:	00070513          	mv	a0,a4
    1a0c:	865fe0ef          	jal	270 <__mulsi3>
    1a10:	00050f13          	mv	t5,a0
    1a14:	000e0593          	mv	a1,t3
    1a18:	00070513          	mv	a0,a4
    1a1c:	855fe0ef          	jal	270 <__mulsi3>
    1a20:	0107d313          	srli	t1,a5,0x10
    1a24:	01ee8eb3          	add	t4,t4,t5
    1a28:	01d30333          	add	t1,t1,t4
    1a2c:	00050293          	mv	t0,a0
    1a30:	01e37663          	bgeu	t1,t5,1a3c <__muldf3+0x304>
    1a34:	000106b7          	lui	a3,0x10
    1a38:	00d502b3          	add	t0,a0,a3
    1a3c:	01045f13          	srli	t5,s0,0x10
    1a40:	01079793          	slli	a5,a5,0x10
    1a44:	01041413          	slli	s0,s0,0x10
    1a48:	01035a13          	srli	s4,t1,0x10
    1a4c:	0107d793          	srli	a5,a5,0x10
    1a50:	01045413          	srli	s0,s0,0x10
    1a54:	01031313          	slli	t1,t1,0x10
    1a58:	00f30333          	add	t1,t1,a5
    1a5c:	000b8513          	mv	a0,s7
    1a60:	00040593          	mv	a1,s0
    1a64:	80dfe0ef          	jal	270 <__mulsi3>
    1a68:	00050f93          	mv	t6,a0
    1a6c:	000f0593          	mv	a1,t5
    1a70:	000b8513          	mv	a0,s7
    1a74:	ffcfe0ef          	jal	270 <__mulsi3>
    1a78:	00050e93          	mv	t4,a0
    1a7c:	00040593          	mv	a1,s0
    1a80:	00070513          	mv	a0,a4
    1a84:	fecfe0ef          	jal	270 <__mulsi3>
    1a88:	00050a93          	mv	s5,a0
    1a8c:	000f0593          	mv	a1,t5
    1a90:	00070513          	mv	a0,a4
    1a94:	fdcfe0ef          	jal	270 <__mulsi3>
    1a98:	010fd713          	srli	a4,t6,0x10
    1a9c:	015e8eb3          	add	t4,t4,s5
    1aa0:	01d70733          	add	a4,a4,t4
    1aa4:	00050793          	mv	a5,a0
    1aa8:	01577663          	bgeu	a4,s5,1ab4 <__muldf3+0x37c>
    1aac:	000106b7          	lui	a3,0x10
    1ab0:	00d507b3          	add	a5,a0,a3
    1ab4:	01075e93          	srli	t4,a4,0x10
    1ab8:	010f9f93          	slli	t6,t6,0x10
    1abc:	00fe8eb3          	add	t4,t4,a5
    1ac0:	010fdf93          	srli	t6,t6,0x10
    1ac4:	01071793          	slli	a5,a4,0x10
    1ac8:	01f787b3          	add	a5,a5,t6
    1acc:	00fa0733          	add	a4,s4,a5
    1ad0:	0104da13          	srli	s4,s1,0x10
    1ad4:	01049493          	slli	s1,s1,0x10
    1ad8:	0104d493          	srli	s1,s1,0x10
    1adc:	00048513          	mv	a0,s1
    1ae0:	00038593          	mv	a1,t2
    1ae4:	f8cfe0ef          	jal	270 <__mulsi3>
    1ae8:	00050f93          	mv	t6,a0
    1aec:	000e0593          	mv	a1,t3
    1af0:	00048513          	mv	a0,s1
    1af4:	f7cfe0ef          	jal	270 <__mulsi3>
    1af8:	00050a93          	mv	s5,a0
    1afc:	00038593          	mv	a1,t2
    1b00:	000a0513          	mv	a0,s4
    1b04:	f6cfe0ef          	jal	270 <__mulsi3>
    1b08:	00050393          	mv	t2,a0
    1b0c:	000e0593          	mv	a1,t3
    1b10:	000a0513          	mv	a0,s4
    1b14:	f5cfe0ef          	jal	270 <__mulsi3>
    1b18:	010fd593          	srli	a1,t6,0x10
    1b1c:	007a8ab3          	add	s5,s5,t2
    1b20:	015585b3          	add	a1,a1,s5
    1b24:	00050693          	mv	a3,a0
    1b28:	0075f663          	bgeu	a1,t2,1b34 <__muldf3+0x3fc>
    1b2c:	00010637          	lui	a2,0x10
    1b30:	00c506b3          	add	a3,a0,a2
    1b34:	010f9f93          	slli	t6,t6,0x10
    1b38:	0105de13          	srli	t3,a1,0x10
    1b3c:	010fdf93          	srli	t6,t6,0x10
    1b40:	01059593          	slli	a1,a1,0x10
    1b44:	01f58fb3          	add	t6,a1,t6
    1b48:	00de0e33          	add	t3,t3,a3
    1b4c:	00048513          	mv	a0,s1
    1b50:	00040593          	mv	a1,s0
    1b54:	f1cfe0ef          	jal	270 <__mulsi3>
    1b58:	00050393          	mv	t2,a0
    1b5c:	000f0593          	mv	a1,t5
    1b60:	00048513          	mv	a0,s1
    1b64:	f0cfe0ef          	jal	270 <__mulsi3>
    1b68:	00050493          	mv	s1,a0
    1b6c:	00040593          	mv	a1,s0
    1b70:	000a0513          	mv	a0,s4
    1b74:	efcfe0ef          	jal	270 <__mulsi3>
    1b78:	00050413          	mv	s0,a0
    1b7c:	000f0593          	mv	a1,t5
    1b80:	000a0513          	mv	a0,s4
    1b84:	eecfe0ef          	jal	270 <__mulsi3>
    1b88:	0103d593          	srli	a1,t2,0x10
    1b8c:	008484b3          	add	s1,s1,s0
    1b90:	009585b3          	add	a1,a1,s1
    1b94:	00050f13          	mv	t5,a0
    1b98:	0085f663          	bgeu	a1,s0,1ba4 <__muldf3+0x46c>
    1b9c:	000106b7          	lui	a3,0x10
    1ba0:	00d50f33          	add	t5,a0,a3
    1ba4:	01039393          	slli	t2,t2,0x10
    1ba8:	00e286b3          	add	a3,t0,a4
    1bac:	0103d393          	srli	t2,t2,0x10
    1bb0:	01059713          	slli	a4,a1,0x10
    1bb4:	00770733          	add	a4,a4,t2
    1bb8:	01d70eb3          	add	t4,a4,t4
    1bbc:	00f6b7b3          	sltu	a5,a3,a5
    1bc0:	00fe87b3          	add	a5,t4,a5
    1bc4:	00eeb633          	sltu	a2,t4,a4
    1bc8:	01d7beb3          	sltu	t4,a5,t4
    1bcc:	0105d593          	srli	a1,a1,0x10
    1bd0:	01d66633          	or	a2,a2,t4
    1bd4:	00b60633          	add	a2,a2,a1
    1bd8:	01f685b3          	add	a1,a3,t6
    1bdc:	01c78e33          	add	t3,a5,t3
    1be0:	00d5b6b3          	sltu	a3,a1,a3
    1be4:	00de06b3          	add	a3,t3,a3
    1be8:	00fe3733          	sltu	a4,t3,a5
    1bec:	01c6be33          	sltu	t3,a3,t3
    1bf0:	00959793          	slli	a5,a1,0x9
    1bf4:	01c76733          	or	a4,a4,t3
    1bf8:	00c70733          	add	a4,a4,a2
    1bfc:	0067e7b3          	or	a5,a5,t1
    1c00:	01e70733          	add	a4,a4,t5
    1c04:	00f037b3          	snez	a5,a5
    1c08:	0175d593          	srli	a1,a1,0x17
    1c0c:	00971713          	slli	a4,a4,0x9
    1c10:	0176d413          	srli	s0,a3,0x17
    1c14:	00b7e7b3          	or	a5,a5,a1
    1c18:	00969693          	slli	a3,a3,0x9
    1c1c:	00d7e7b3          	or	a5,a5,a3
    1c20:	00771693          	slli	a3,a4,0x7
    1c24:	00876433          	or	s0,a4,s0
    1c28:	0c06d663          	bgez	a3,1cf4 <__muldf3+0x5bc>
    1c2c:	0017d713          	srli	a4,a5,0x1
    1c30:	0017f793          	andi	a5,a5,1
    1c34:	00f76733          	or	a4,a4,a5
    1c38:	01f41793          	slli	a5,s0,0x1f
    1c3c:	00f767b3          	or	a5,a4,a5
    1c40:	00145413          	srli	s0,s0,0x1
    1c44:	3ff88713          	addi	a4,a7,1023
    1c48:	0ae05a63          	blez	a4,1cfc <__muldf3+0x5c4>
    1c4c:	0077f693          	andi	a3,a5,7
    1c50:	02068063          	beqz	a3,1c70 <__muldf3+0x538>
    1c54:	00f7f693          	andi	a3,a5,15
    1c58:	00400613          	li	a2,4
    1c5c:	00c68a63          	beq	a3,a2,1c70 <__muldf3+0x538>
    1c60:	00c786b3          	add	a3,a5,a2
    1c64:	00f6b633          	sltu	a2,a3,a5
    1c68:	00c40433          	add	s0,s0,a2
    1c6c:	00068793          	mv	a5,a3
    1c70:	00741693          	slli	a3,s0,0x7
    1c74:	0006da63          	bgez	a3,1c88 <__muldf3+0x550>
    1c78:	ff000737          	lui	a4,0xff000
    1c7c:	fff70713          	addi	a4,a4,-1 # feffffff <__heap_start+0xfeffbfff>
    1c80:	00e47433          	and	s0,s0,a4
    1c84:	40088713          	addi	a4,a7,1024
    1c88:	7fe00693          	li	a3,2046
    1c8c:	14e6c063          	blt	a3,a4,1dcc <__muldf3+0x694>
    1c90:	01d41693          	slli	a3,s0,0x1d
    1c94:	0037d793          	srli	a5,a5,0x3
    1c98:	00f6e6b3          	or	a3,a3,a5
    1c9c:	00345413          	srli	s0,s0,0x3
    1ca0:	00c41413          	slli	s0,s0,0xc
    1ca4:	00c45413          	srli	s0,s0,0xc
    1ca8:	01471713          	slli	a4,a4,0x14
    1cac:	02c12083          	lw	ra,44(sp)
    1cb0:	00876733          	or	a4,a4,s0
    1cb4:	02812403          	lw	s0,40(sp)
    1cb8:	01f81813          	slli	a6,a6,0x1f
    1cbc:	010767b3          	or	a5,a4,a6
    1cc0:	02412483          	lw	s1,36(sp)
    1cc4:	02012903          	lw	s2,32(sp)
    1cc8:	01c12983          	lw	s3,28(sp)
    1ccc:	01812a03          	lw	s4,24(sp)
    1cd0:	01412a83          	lw	s5,20(sp)
    1cd4:	01012b03          	lw	s6,16(sp)
    1cd8:	00c12b83          	lw	s7,12(sp)
    1cdc:	00812c03          	lw	s8,8(sp)
    1ce0:	00412c83          	lw	s9,4(sp)
    1ce4:	00068513          	mv	a0,a3
    1ce8:	00078593          	mv	a1,a5
    1cec:	03010113          	addi	sp,sp,48
    1cf0:	00008067          	ret
    1cf4:	000b0893          	mv	a7,s6
    1cf8:	f4dff06f          	j	1c44 <__muldf3+0x50c>
    1cfc:	00100613          	li	a2,1
    1d00:	00070c63          	beqz	a4,1d18 <__muldf3+0x5e0>
    1d04:	40e60633          	sub	a2,a2,a4
    1d08:	03800693          	li	a3,56
    1d0c:	b2c6cae3          	blt	a3,a2,1840 <__muldf3+0x108>
    1d10:	01f00693          	li	a3,31
    1d14:	06c6c463          	blt	a3,a2,1d7c <__muldf3+0x644>
    1d18:	41e88893          	addi	a7,a7,1054
    1d1c:	00c7d733          	srl	a4,a5,a2
    1d20:	011797b3          	sll	a5,a5,a7
    1d24:	00f037b3          	snez	a5,a5
    1d28:	011418b3          	sll	a7,s0,a7
    1d2c:	0117e7b3          	or	a5,a5,a7
    1d30:	00f767b3          	or	a5,a4,a5
    1d34:	00c45433          	srl	s0,s0,a2
    1d38:	0077f713          	andi	a4,a5,7
    1d3c:	02070063          	beqz	a4,1d5c <__muldf3+0x624>
    1d40:	00f7f713          	andi	a4,a5,15
    1d44:	00400693          	li	a3,4
    1d48:	00d70a63          	beq	a4,a3,1d5c <__muldf3+0x624>
    1d4c:	00d78733          	add	a4,a5,a3
    1d50:	00f736b3          	sltu	a3,a4,a5
    1d54:	00d40433          	add	s0,s0,a3
    1d58:	00070793          	mv	a5,a4
    1d5c:	00841713          	slli	a4,s0,0x8
    1d60:	06074e63          	bltz	a4,1ddc <__muldf3+0x6a4>
    1d64:	01d41693          	slli	a3,s0,0x1d
    1d68:	0037d793          	srli	a5,a5,0x3
    1d6c:	00f6e6b3          	or	a3,a3,a5
    1d70:	00345413          	srli	s0,s0,0x3
    1d74:	00000713          	li	a4,0
    1d78:	f29ff06f          	j	1ca0 <__muldf3+0x568>
    1d7c:	fe100693          	li	a3,-31
    1d80:	40e68733          	sub	a4,a3,a4
    1d84:	02000593          	li	a1,32
    1d88:	00e45733          	srl	a4,s0,a4
    1d8c:	00000693          	li	a3,0
    1d90:	00b60663          	beq	a2,a1,1d9c <__muldf3+0x664>
    1d94:	43e88893          	addi	a7,a7,1086
    1d98:	011416b3          	sll	a3,s0,a7
    1d9c:	00f6e6b3          	or	a3,a3,a5
    1da0:	00d036b3          	snez	a3,a3
    1da4:	00d767b3          	or	a5,a4,a3
    1da8:	00000413          	li	s0,0
    1dac:	f8dff06f          	j	1d38 <__muldf3+0x600>
    1db0:	00080437          	lui	s0,0x80
    1db4:	7ff00713          	li	a4,2047
    1db8:	00000813          	li	a6,0
    1dbc:	ee5ff06f          	j	1ca0 <__muldf3+0x568>
    1dc0:	00080437          	lui	s0,0x80
    1dc4:	00000693          	li	a3,0
    1dc8:	fedff06f          	j	1db4 <__muldf3+0x67c>
    1dcc:	00000413          	li	s0,0
    1dd0:	00000693          	li	a3,0
    1dd4:	7ff00713          	li	a4,2047
    1dd8:	ec9ff06f          	j	1ca0 <__muldf3+0x568>
    1ddc:	00000413          	li	s0,0
    1de0:	00000693          	li	a3,0
    1de4:	00100713          	li	a4,1
    1de8:	eb9ff06f          	j	1ca0 <__muldf3+0x568>

Disassembly of section .text.__addsf3:

00001dec <__addsf3>:
    1dec:	ff010113          	addi	sp,sp,-16
    1df0:	00800737          	lui	a4,0x800
    1df4:	fff70713          	addi	a4,a4,-1 # 7fffff <__heap_start+0x7fbfff>
    1df8:	0175d613          	srli	a2,a1,0x17
    1dfc:	00812423          	sw	s0,8(sp)
    1e00:	01755413          	srli	s0,a0,0x17
    1e04:	00a777b3          	and	a5,a4,a0
    1e08:	00912223          	sw	s1,4(sp)
    1e0c:	00b77733          	and	a4,a4,a1
    1e10:	0ff47413          	zext.b	s0,s0
    1e14:	0ff67613          	zext.b	a2,a2
    1e18:	00112623          	sw	ra,12(sp)
    1e1c:	01212023          	sw	s2,0(sp)
    1e20:	01f55493          	srli	s1,a0,0x1f
    1e24:	01f5d593          	srli	a1,a1,0x1f
    1e28:	00379793          	slli	a5,a5,0x3
    1e2c:	00371713          	slli	a4,a4,0x3
    1e30:	40c406b3          	sub	a3,s0,a2
    1e34:	1cb49e63          	bne	s1,a1,2010 <__addsf3+0x224>
    1e38:	08d05e63          	blez	a3,1ed4 <__addsf3+0xe8>
    1e3c:	0ff00593          	li	a1,255
    1e40:	02061663          	bnez	a2,1e6c <__addsf3+0x80>
    1e44:	00070e63          	beqz	a4,1e60 <__addsf3+0x74>
    1e48:	fff68613          	addi	a2,a3,-1 # ffff <__heap_start+0xbfff>
    1e4c:	00061863          	bnez	a2,1e5c <__addsf3+0x70>
    1e50:	00e787b3          	add	a5,a5,a4
    1e54:	00100413          	li	s0,1
    1e58:	04c0006f          	j	1ea4 <__addsf3+0xb8>
    1e5c:	02b69063          	bne	a3,a1,1e7c <__addsf3+0x90>
    1e60:	00068413          	mv	s0,a3
    1e64:	00078713          	mv	a4,a5
    1e68:	2c40006f          	j	212c <__addsf3+0x340>
    1e6c:	feb40ce3          	beq	s0,a1,1e64 <__addsf3+0x78>
    1e70:	04000637          	lui	a2,0x4000
    1e74:	00c76733          	or	a4,a4,a2
    1e78:	00068613          	mv	a2,a3
    1e7c:	01b00593          	li	a1,27
    1e80:	00100693          	li	a3,1
    1e84:	00c5ce63          	blt	a1,a2,1ea0 <__addsf3+0xb4>
    1e88:	02000693          	li	a3,32
    1e8c:	40c686b3          	sub	a3,a3,a2
    1e90:	00c755b3          	srl	a1,a4,a2
    1e94:	00d71733          	sll	a4,a4,a3
    1e98:	00e03733          	snez	a4,a4
    1e9c:	00e5e6b3          	or	a3,a1,a4
    1ea0:	00d787b3          	add	a5,a5,a3
    1ea4:	00579713          	slli	a4,a5,0x5
    1ea8:	12075463          	bgez	a4,1fd0 <__addsf3+0x1e4>
    1eac:	00140413          	addi	s0,s0,1 # 80001 <__heap_start+0x7c001>
    1eb0:	0ff00713          	li	a4,255
    1eb4:	36e40063          	beq	s0,a4,2214 <__addsf3+0x428>
    1eb8:	7e000737          	lui	a4,0x7e000
    1ebc:	0017f693          	andi	a3,a5,1
    1ec0:	fff70713          	addi	a4,a4,-1 # 7dffffff <__heap_start+0x7dffbfff>
    1ec4:	0017d793          	srli	a5,a5,0x1
    1ec8:	00e7f7b3          	and	a5,a5,a4
    1ecc:	00d7e7b3          	or	a5,a5,a3
    1ed0:	1000006f          	j	1fd0 <__addsf3+0x1e4>
    1ed4:	06068463          	beqz	a3,1f3c <__addsf3+0x150>
    1ed8:	408606b3          	sub	a3,a2,s0
    1edc:	0ff00513          	li	a0,255
    1ee0:	00041e63          	bnez	s0,1efc <__addsf3+0x110>
    1ee4:	32078263          	beqz	a5,2208 <__addsf3+0x41c>
    1ee8:	fff68593          	addi	a1,a3,-1
    1eec:	f60582e3          	beqz	a1,1e50 <__addsf3+0x64>
    1ef0:	00a69e63          	bne	a3,a0,1f0c <__addsf3+0x120>
    1ef4:	0ff00413          	li	s0,255
    1ef8:	2340006f          	j	212c <__addsf3+0x340>
    1efc:	fea60ce3          	beq	a2,a0,1ef4 <__addsf3+0x108>
    1f00:	040005b7          	lui	a1,0x4000
    1f04:	00b7e7b3          	or	a5,a5,a1
    1f08:	00068593          	mv	a1,a3
    1f0c:	01b00513          	li	a0,27
    1f10:	00100693          	li	a3,1
    1f14:	00b54e63          	blt	a0,a1,1f30 <__addsf3+0x144>
    1f18:	02000693          	li	a3,32
    1f1c:	40b686b3          	sub	a3,a3,a1
    1f20:	00b7d533          	srl	a0,a5,a1
    1f24:	00d797b3          	sll	a5,a5,a3
    1f28:	00f037b3          	snez	a5,a5
    1f2c:	00f566b3          	or	a3,a0,a5
    1f30:	00e687b3          	add	a5,a3,a4
    1f34:	00060413          	mv	s0,a2
    1f38:	f6dff06f          	j	1ea4 <__addsf3+0xb8>
    1f3c:	00140693          	addi	a3,s0,1
    1f40:	0fe6f613          	andi	a2,a3,254
    1f44:	06061c63          	bnez	a2,1fbc <__addsf3+0x1d0>
    1f48:	06041263          	bnez	s0,1fac <__addsf3+0x1c0>
    1f4c:	2a078863          	beqz	a5,21fc <__addsf3+0x410>
    1f50:	08070c63          	beqz	a4,1fe8 <__addsf3+0x1fc>
    1f54:	00f70733          	add	a4,a4,a5
    1f58:	00571793          	slli	a5,a4,0x5
    1f5c:	1c07d863          	bgez	a5,212c <__addsf3+0x340>
    1f60:	1f8007b7          	lui	a5,0x1f800
    1f64:	00375713          	srli	a4,a4,0x3
    1f68:	fff78793          	addi	a5,a5,-1 # 1f7fffff <__heap_start+0x1f7fbfff>
    1f6c:	00f777b3          	and	a5,a4,a5
    1f70:	00100413          	li	s0,1
    1f74:	01741413          	slli	s0,s0,0x17
    1f78:	7f800737          	lui	a4,0x7f800
    1f7c:	00979793          	slli	a5,a5,0x9
    1f80:	00e47433          	and	s0,s0,a4
    1f84:	0097d793          	srli	a5,a5,0x9
    1f88:	00f46433          	or	s0,s0,a5
    1f8c:	01f49513          	slli	a0,s1,0x1f
    1f90:	00c12083          	lw	ra,12(sp)
    1f94:	00a46533          	or	a0,s0,a0
    1f98:	00812403          	lw	s0,8(sp)
    1f9c:	00412483          	lw	s1,4(sp)
    1fa0:	00012903          	lw	s2,0(sp)
    1fa4:	01010113          	addi	sp,sp,16
    1fa8:	00008067          	ret
    1fac:	f40784e3          	beqz	a5,1ef4 <__addsf3+0x108>
    1fb0:	1c071863          	bnez	a4,2180 <__addsf3+0x394>
    1fb4:	00078713          	mv	a4,a5
    1fb8:	f3dff06f          	j	1ef4 <__addsf3+0x108>
    1fbc:	0ff00613          	li	a2,255
    1fc0:	24c68863          	beq	a3,a2,2210 <__addsf3+0x424>
    1fc4:	00e78733          	add	a4,a5,a4
    1fc8:	00175793          	srli	a5,a4,0x1
    1fcc:	00068413          	mv	s0,a3
    1fd0:	0077f713          	andi	a4,a5,7
    1fd4:	00070a63          	beqz	a4,1fe8 <__addsf3+0x1fc>
    1fd8:	00f7f713          	andi	a4,a5,15
    1fdc:	00400693          	li	a3,4
    1fe0:	00d70463          	beq	a4,a3,1fe8 <__addsf3+0x1fc>
    1fe4:	00d787b3          	add	a5,a5,a3
    1fe8:	00579713          	slli	a4,a5,0x5
    1fec:	e6075ce3          	bgez	a4,1e64 <__addsf3+0x78>
    1ff0:	00140413          	addi	s0,s0,1
    1ff4:	0ff00713          	li	a4,255
    1ff8:	20e40e63          	beq	s0,a4,2214 <__addsf3+0x428>
    1ffc:	1f800737          	lui	a4,0x1f800
    2000:	0037d793          	srli	a5,a5,0x3
    2004:	fff70713          	addi	a4,a4,-1 # 1f7fffff <__heap_start+0x1f7fbfff>
    2008:	00e7f7b3          	and	a5,a5,a4
    200c:	f69ff06f          	j	1f74 <__addsf3+0x188>
    2010:	08d05063          	blez	a3,2090 <__addsf3+0x2a4>
    2014:	06061263          	bnez	a2,2078 <__addsf3+0x28c>
    2018:	e40704e3          	beqz	a4,1e60 <__addsf3+0x74>
    201c:	fff68613          	addi	a2,a3,-1
    2020:	00061863          	bnez	a2,2030 <__addsf3+0x244>
    2024:	40e787b3          	sub	a5,a5,a4
    2028:	00100413          	li	s0,1
    202c:	0340006f          	j	2060 <__addsf3+0x274>
    2030:	0ff00593          	li	a1,255
    2034:	e2b686e3          	beq	a3,a1,1e60 <__addsf3+0x74>
    2038:	01b00593          	li	a1,27
    203c:	00100693          	li	a3,1
    2040:	00c5ce63          	blt	a1,a2,205c <__addsf3+0x270>
    2044:	02000693          	li	a3,32
    2048:	40c686b3          	sub	a3,a3,a2
    204c:	00c755b3          	srl	a1,a4,a2
    2050:	00d71733          	sll	a4,a4,a3
    2054:	00e03733          	snez	a4,a4
    2058:	00e5e6b3          	or	a3,a1,a4
    205c:	40d787b3          	sub	a5,a5,a3
    2060:	00579713          	slli	a4,a5,0x5
    2064:	f60756e3          	bgez	a4,1fd0 <__addsf3+0x1e4>
    2068:	04000937          	lui	s2,0x4000
    206c:	fff90913          	addi	s2,s2,-1 # 3ffffff <__heap_start+0x3ffbfff>
    2070:	0127f933          	and	s2,a5,s2
    2074:	1300006f          	j	21a4 <__addsf3+0x3b8>
    2078:	0ff00613          	li	a2,255
    207c:	dec404e3          	beq	s0,a2,1e64 <__addsf3+0x78>
    2080:	04000637          	lui	a2,0x4000
    2084:	00c76733          	or	a4,a4,a2
    2088:	00068613          	mv	a2,a3
    208c:	fadff06f          	j	2038 <__addsf3+0x24c>
    2090:	06068e63          	beqz	a3,210c <__addsf3+0x320>
    2094:	408606b3          	sub	a3,a2,s0
    2098:	02041663          	bnez	s0,20c4 <__addsf3+0x2d8>
    209c:	16078463          	beqz	a5,2204 <__addsf3+0x418>
    20a0:	fff68513          	addi	a0,a3,-1
    20a4:	00051863          	bnez	a0,20b4 <__addsf3+0x2c8>
    20a8:	40f707b3          	sub	a5,a4,a5
    20ac:	00058493          	mv	s1,a1
    20b0:	f79ff06f          	j	2028 <__addsf3+0x23c>
    20b4:	0ff00813          	li	a6,255
    20b8:	03069063          	bne	a3,a6,20d8 <__addsf3+0x2ec>
    20bc:	00058493          	mv	s1,a1
    20c0:	e35ff06f          	j	1ef4 <__addsf3+0x108>
    20c4:	0ff00513          	li	a0,255
    20c8:	fea60ae3          	beq	a2,a0,20bc <__addsf3+0x2d0>
    20cc:	04000537          	lui	a0,0x4000
    20d0:	00a7e7b3          	or	a5,a5,a0
    20d4:	00068513          	mv	a0,a3
    20d8:	01b00813          	li	a6,27
    20dc:	00100693          	li	a3,1
    20e0:	00a84e63          	blt	a6,a0,20fc <__addsf3+0x310>
    20e4:	02000693          	li	a3,32
    20e8:	40a686b3          	sub	a3,a3,a0
    20ec:	00a7d833          	srl	a6,a5,a0
    20f0:	00d797b3          	sll	a5,a5,a3
    20f4:	00f037b3          	snez	a5,a5
    20f8:	00f866b3          	or	a3,a6,a5
    20fc:	40d707b3          	sub	a5,a4,a3
    2100:	00060413          	mv	s0,a2
    2104:	00058493          	mv	s1,a1
    2108:	f59ff06f          	j	2060 <__addsf3+0x274>
    210c:	00140693          	addi	a3,s0,1
    2110:	0fe6f693          	andi	a3,a3,254
    2114:	06069e63          	bnez	a3,2190 <__addsf3+0x3a4>
    2118:	06041263          	bnez	s0,217c <__addsf3+0x390>
    211c:	02079463          	bnez	a5,2144 <__addsf3+0x358>
    2120:	00000493          	li	s1,0
    2124:	e40708e3          	beqz	a4,1f74 <__addsf3+0x188>
    2128:	00058493          	mv	s1,a1
    212c:	00375793          	srli	a5,a4,0x3
    2130:	0ff00713          	li	a4,255
    2134:	e4e410e3          	bne	s0,a4,1f74 <__addsf3+0x188>
    2138:	e2078ee3          	beqz	a5,1f74 <__addsf3+0x188>
    213c:	004007b7          	lui	a5,0x400
    2140:	0340006f          	j	2174 <__addsf3+0x388>
    2144:	ea0702e3          	beqz	a4,1fe8 <__addsf3+0x1fc>
    2148:	40e786b3          	sub	a3,a5,a4
    214c:	00569613          	slli	a2,a3,0x5
    2150:	00065c63          	bgez	a2,2168 <__addsf3+0x37c>
    2154:	40f707b3          	sub	a5,a4,a5
    2158:	00058493          	mv	s1,a1
    215c:	00000413          	li	s0,0
    2160:	e0078ae3          	beqz	a5,1f74 <__addsf3+0x188>
    2164:	e6dff06f          	j	1fd0 <__addsf3+0x1e4>
    2168:	00068713          	mv	a4,a3
    216c:	fc0690e3          	bnez	a3,212c <__addsf3+0x340>
    2170:	00000793          	li	a5,0
    2174:	00000493          	li	s1,0
    2178:	dfdff06f          	j	1f74 <__addsf3+0x188>
    217c:	e2079ae3          	bnez	a5,1fb0 <__addsf3+0x1c4>
    2180:	00000493          	li	s1,0
    2184:	0ff00413          	li	s0,255
    2188:	004007b7          	lui	a5,0x400
    218c:	de9ff06f          	j	1f74 <__addsf3+0x188>
    2190:	40e78933          	sub	s2,a5,a4
    2194:	00591693          	slli	a3,s2,0x5
    2198:	0406d263          	bgez	a3,21dc <__addsf3+0x3f0>
    219c:	40f70933          	sub	s2,a4,a5
    21a0:	00058493          	mv	s1,a1
    21a4:	00090513          	mv	a0,s2
    21a8:	7c1000ef          	jal	3168 <__clzsi2>
    21ac:	ffb50513          	addi	a0,a0,-5 # 3fffffb <__heap_start+0x3ffbffb>
    21b0:	00a91933          	sll	s2,s2,a0
    21b4:	02854a63          	blt	a0,s0,21e8 <__addsf3+0x3fc>
    21b8:	40850533          	sub	a0,a0,s0
    21bc:	00150513          	addi	a0,a0,1
    21c0:	02000713          	li	a4,32
    21c4:	40a70733          	sub	a4,a4,a0
    21c8:	00a957b3          	srl	a5,s2,a0
    21cc:	00e91933          	sll	s2,s2,a4
    21d0:	01203933          	snez	s2,s2
    21d4:	0127e7b3          	or	a5,a5,s2
    21d8:	f85ff06f          	j	215c <__addsf3+0x370>
    21dc:	fc0914e3          	bnez	s2,21a4 <__addsf3+0x3b8>
    21e0:	00000413          	li	s0,0
    21e4:	f8dff06f          	j	2170 <__addsf3+0x384>
    21e8:	fc0007b7          	lui	a5,0xfc000
    21ec:	fff78793          	addi	a5,a5,-1 # fbffffff <__heap_start+0xfbffbfff>
    21f0:	40a40433          	sub	s0,s0,a0
    21f4:	00f977b3          	and	a5,s2,a5
    21f8:	dd9ff06f          	j	1fd0 <__addsf3+0x1e4>
    21fc:	00070793          	mv	a5,a4
    2200:	f5dff06f          	j	215c <__addsf3+0x370>
    2204:	00058493          	mv	s1,a1
    2208:	00068413          	mv	s0,a3
    220c:	f21ff06f          	j	212c <__addsf3+0x340>
    2210:	00068413          	mv	s0,a3
    2214:	00000793          	li	a5,0
    2218:	d5dff06f          	j	1f74 <__addsf3+0x188>

Disassembly of section .text.__divsf3:

0000221c <__divsf3>:
    221c:	fd010113          	addi	sp,sp,-48
    2220:	02912223          	sw	s1,36(sp)
    2224:	01755493          	srli	s1,a0,0x17
    2228:	03212023          	sw	s2,32(sp)
    222c:	01512a23          	sw	s5,20(sp)
    2230:	01612823          	sw	s6,16(sp)
    2234:	00951a93          	slli	s5,a0,0x9
    2238:	02112623          	sw	ra,44(sp)
    223c:	02812423          	sw	s0,40(sp)
    2240:	01312e23          	sw	s3,28(sp)
    2244:	01412c23          	sw	s4,24(sp)
    2248:	01712623          	sw	s7,12(sp)
    224c:	01812423          	sw	s8,8(sp)
    2250:	0ff4f493          	zext.b	s1,s1
    2254:	00058b13          	mv	s6,a1
    2258:	009ada93          	srli	s5,s5,0x9
    225c:	01f55913          	srli	s2,a0,0x1f
    2260:	08048463          	beqz	s1,22e8 <__divsf3+0xcc>
    2264:	0ff00793          	li	a5,255
    2268:	0af48063          	beq	s1,a5,2308 <__divsf3+0xec>
    226c:	003a9a93          	slli	s5,s5,0x3
    2270:	040007b7          	lui	a5,0x4000
    2274:	00faeab3          	or	s5,s5,a5
    2278:	f8148493          	addi	s1,s1,-127 # 7fff81 <__heap_start+0x7fbf81>
    227c:	00000b93          	li	s7,0
    2280:	017b5793          	srli	a5,s6,0x17
    2284:	009b1413          	slli	s0,s6,0x9
    2288:	0ff7f793          	zext.b	a5,a5
    228c:	00945413          	srli	s0,s0,0x9
    2290:	01fb5b13          	srli	s6,s6,0x1f
    2294:	08078863          	beqz	a5,2324 <__divsf3+0x108>
    2298:	0ff00713          	li	a4,255
    229c:	0ae78463          	beq	a5,a4,2344 <__divsf3+0x128>
    22a0:	00341413          	slli	s0,s0,0x3
    22a4:	04000737          	lui	a4,0x4000
    22a8:	00e46433          	or	s0,s0,a4
    22ac:	f8178793          	addi	a5,a5,-127 # 3ffff81 <__heap_start+0x3ffbf81>
    22b0:	00000713          	li	a4,0
    22b4:	40f48a33          	sub	s4,s1,a5
    22b8:	002b9793          	slli	a5,s7,0x2
    22bc:	00e7e7b3          	or	a5,a5,a4
    22c0:	fff78793          	addi	a5,a5,-1
    22c4:	00e00693          	li	a3,14
    22c8:	016949b3          	xor	s3,s2,s6
    22cc:	08f6ea63          	bltu	a3,a5,2360 <__divsf3+0x144>
    22d0:	000036b7          	lui	a3,0x3
    22d4:	00279793          	slli	a5,a5,0x2
    22d8:	23468693          	addi	a3,a3,564 # 3234 <__clzsi2+0xcc>
    22dc:	00d787b3          	add	a5,a5,a3
    22e0:	0007a783          	lw	a5,0(a5)
    22e4:	00078067          	jr	a5
    22e8:	020a8863          	beqz	s5,2318 <__divsf3+0xfc>
    22ec:	000a8513          	mv	a0,s5
    22f0:	679000ef          	jal	3168 <__clzsi2>
    22f4:	ffb50793          	addi	a5,a0,-5
    22f8:	f8a00493          	li	s1,-118
    22fc:	00fa9ab3          	sll	s5,s5,a5
    2300:	40a484b3          	sub	s1,s1,a0
    2304:	f79ff06f          	j	227c <__divsf3+0x60>
    2308:	00200b93          	li	s7,2
    230c:	f60a8ae3          	beqz	s5,2280 <__divsf3+0x64>
    2310:	00300b93          	li	s7,3
    2314:	f6dff06f          	j	2280 <__divsf3+0x64>
    2318:	00000493          	li	s1,0
    231c:	00100b93          	li	s7,1
    2320:	f61ff06f          	j	2280 <__divsf3+0x64>
    2324:	02040863          	beqz	s0,2354 <__divsf3+0x138>
    2328:	00040513          	mv	a0,s0
    232c:	63d000ef          	jal	3168 <__clzsi2>
    2330:	ffb50793          	addi	a5,a0,-5
    2334:	00f41433          	sll	s0,s0,a5
    2338:	f8a00793          	li	a5,-118
    233c:	40a787b3          	sub	a5,a5,a0
    2340:	f71ff06f          	j	22b0 <__divsf3+0x94>
    2344:	00200713          	li	a4,2
    2348:	f60406e3          	beqz	s0,22b4 <__divsf3+0x98>
    234c:	00300713          	li	a4,3
    2350:	f65ff06f          	j	22b4 <__divsf3+0x98>
    2354:	00000793          	li	a5,0
    2358:	00100713          	li	a4,1
    235c:	f59ff06f          	j	22b4 <__divsf3+0x98>
    2360:	00541c13          	slli	s8,s0,0x5
    2364:	168af663          	bgeu	s5,s0,24d0 <__divsf3+0x2b4>
    2368:	fffa0a13          	addi	s4,s4,-1
    236c:	00000413          	li	s0,0
    2370:	010c5b13          	srli	s6,s8,0x10
    2374:	000b0593          	mv	a1,s6
    2378:	010c1913          	slli	s2,s8,0x10
    237c:	000a8513          	mv	a0,s5
    2380:	f1dfd0ef          	jal	29c <__hidden___udivsi3>
    2384:	01095913          	srli	s2,s2,0x10
    2388:	00050593          	mv	a1,a0
    238c:	00050b93          	mv	s7,a0
    2390:	00090513          	mv	a0,s2
    2394:	eddfd0ef          	jal	270 <__mulsi3>
    2398:	00050493          	mv	s1,a0
    239c:	000b0593          	mv	a1,s6
    23a0:	000a8513          	mv	a0,s5
    23a4:	f41fd0ef          	jal	2e4 <__umodsi3>
    23a8:	01045793          	srli	a5,s0,0x10
    23ac:	01051513          	slli	a0,a0,0x10
    23b0:	00a7e7b3          	or	a5,a5,a0
    23b4:	000b8413          	mv	s0,s7
    23b8:	0097fe63          	bgeu	a5,s1,23d4 <__divsf3+0x1b8>
    23bc:	00fc07b3          	add	a5,s8,a5
    23c0:	fffb8413          	addi	s0,s7,-1
    23c4:	0187e863          	bltu	a5,s8,23d4 <__divsf3+0x1b8>
    23c8:	0097f663          	bgeu	a5,s1,23d4 <__divsf3+0x1b8>
    23cc:	ffeb8413          	addi	s0,s7,-2
    23d0:	018787b3          	add	a5,a5,s8
    23d4:	409784b3          	sub	s1,a5,s1
    23d8:	000b0593          	mv	a1,s6
    23dc:	00048513          	mv	a0,s1
    23e0:	ebdfd0ef          	jal	29c <__hidden___udivsi3>
    23e4:	00050593          	mv	a1,a0
    23e8:	00050a93          	mv	s5,a0
    23ec:	00090513          	mv	a0,s2
    23f0:	e81fd0ef          	jal	270 <__mulsi3>
    23f4:	00050913          	mv	s2,a0
    23f8:	000b0593          	mv	a1,s6
    23fc:	00048513          	mv	a0,s1
    2400:	ee5fd0ef          	jal	2e4 <__umodsi3>
    2404:	01051793          	slli	a5,a0,0x10
    2408:	000a8713          	mv	a4,s5
    240c:	0327f263          	bgeu	a5,s2,2430 <__divsf3+0x214>
    2410:	018786b3          	add	a3,a5,s8
    2414:	00f6b633          	sltu	a2,a3,a5
    2418:	fffa8713          	addi	a4,s5,-1
    241c:	00068793          	mv	a5,a3
    2420:	00061863          	bnez	a2,2430 <__divsf3+0x214>
    2424:	0126f663          	bgeu	a3,s2,2430 <__divsf3+0x214>
    2428:	ffea8713          	addi	a4,s5,-2
    242c:	018687b3          	add	a5,a3,s8
    2430:	01041413          	slli	s0,s0,0x10
    2434:	412787b3          	sub	a5,a5,s2
    2438:	00e46433          	or	s0,s0,a4
    243c:	00f037b3          	snez	a5,a5
    2440:	00f46433          	or	s0,s0,a5
    2444:	07fa0713          	addi	a4,s4,127
    2448:	0ce05663          	blez	a4,2514 <__divsf3+0x2f8>
    244c:	00747793          	andi	a5,s0,7
    2450:	00078a63          	beqz	a5,2464 <__divsf3+0x248>
    2454:	00f47793          	andi	a5,s0,15
    2458:	00400693          	li	a3,4
    245c:	00d78463          	beq	a5,a3,2464 <__divsf3+0x248>
    2460:	00d40433          	add	s0,s0,a3
    2464:	00441793          	slli	a5,s0,0x4
    2468:	0007da63          	bgez	a5,247c <__divsf3+0x260>
    246c:	f80007b7          	lui	a5,0xf8000
    2470:	fff78793          	addi	a5,a5,-1 # f7ffffff <__heap_start+0xf7ffbfff>
    2474:	00f47433          	and	s0,s0,a5
    2478:	080a0713          	addi	a4,s4,128
    247c:	0fe00793          	li	a5,254
    2480:	10e7c263          	blt	a5,a4,2584 <__divsf3+0x368>
    2484:	00345793          	srli	a5,s0,0x3
    2488:	02c12083          	lw	ra,44(sp)
    248c:	02812403          	lw	s0,40(sp)
    2490:	00979793          	slli	a5,a5,0x9
    2494:	01771713          	slli	a4,a4,0x17
    2498:	0097d793          	srli	a5,a5,0x9
    249c:	01f99513          	slli	a0,s3,0x1f
    24a0:	00f76733          	or	a4,a4,a5
    24a4:	02412483          	lw	s1,36(sp)
    24a8:	02012903          	lw	s2,32(sp)
    24ac:	01c12983          	lw	s3,28(sp)
    24b0:	01812a03          	lw	s4,24(sp)
    24b4:	01412a83          	lw	s5,20(sp)
    24b8:	01012b03          	lw	s6,16(sp)
    24bc:	00c12b83          	lw	s7,12(sp)
    24c0:	00812c03          	lw	s8,8(sp)
    24c4:	00a76533          	or	a0,a4,a0
    24c8:	03010113          	addi	sp,sp,48
    24cc:	00008067          	ret
    24d0:	01fa9413          	slli	s0,s5,0x1f
    24d4:	001ada93          	srli	s5,s5,0x1
    24d8:	e99ff06f          	j	2370 <__divsf3+0x154>
    24dc:	000b0993          	mv	s3,s6
    24e0:	00200793          	li	a5,2
    24e4:	0af70063          	beq	a4,a5,2584 <__divsf3+0x368>
    24e8:	00300793          	li	a5,3
    24ec:	08f70463          	beq	a4,a5,2574 <__divsf3+0x358>
    24f0:	00100793          	li	a5,1
    24f4:	f4f718e3          	bne	a4,a5,2444 <__divsf3+0x228>
    24f8:	00000793          	li	a5,0
    24fc:	00000713          	li	a4,0
    2500:	f89ff06f          	j	2488 <__divsf3+0x26c>
    2504:	00090993          	mv	s3,s2
    2508:	000a8413          	mv	s0,s5
    250c:	000b8713          	mv	a4,s7
    2510:	fd1ff06f          	j	24e0 <__divsf3+0x2c4>
    2514:	00100693          	li	a3,1
    2518:	00070c63          	beqz	a4,2530 <__divsf3+0x314>
    251c:	40e686b3          	sub	a3,a3,a4
    2520:	01b00613          	li	a2,27
    2524:	00000793          	li	a5,0
    2528:	00000713          	li	a4,0
    252c:	f4d64ee3          	blt	a2,a3,2488 <__divsf3+0x26c>
    2530:	09ea0493          	addi	s1,s4,158
    2534:	00d456b3          	srl	a3,s0,a3
    2538:	00941433          	sll	s0,s0,s1
    253c:	00803433          	snez	s0,s0
    2540:	0086e7b3          	or	a5,a3,s0
    2544:	0077f713          	andi	a4,a5,7
    2548:	00070a63          	beqz	a4,255c <__divsf3+0x340>
    254c:	00f7f713          	andi	a4,a5,15
    2550:	00400693          	li	a3,4
    2554:	00d70463          	beq	a4,a3,255c <__divsf3+0x340>
    2558:	00d787b3          	add	a5,a5,a3
    255c:	00579713          	slli	a4,a5,0x5
    2560:	0037d793          	srli	a5,a5,0x3
    2564:	f8075ce3          	bgez	a4,24fc <__divsf3+0x2e0>
    2568:	00000793          	li	a5,0
    256c:	00100713          	li	a4,1
    2570:	f19ff06f          	j	2488 <__divsf3+0x26c>
    2574:	004007b7          	lui	a5,0x400
    2578:	0ff00713          	li	a4,255
    257c:	00000993          	li	s3,0
    2580:	f09ff06f          	j	2488 <__divsf3+0x26c>
    2584:	00000793          	li	a5,0
    2588:	0ff00713          	li	a4,255
    258c:	efdff06f          	j	2488 <__divsf3+0x26c>

Disassembly of section .text.__eqsf2:

00002590 <__eqsf2>:
    2590:	01755693          	srli	a3,a0,0x17
    2594:	008007b7          	lui	a5,0x800
    2598:	fff78793          	addi	a5,a5,-1 # 7fffff <__heap_start+0x7fbfff>
    259c:	0175d613          	srli	a2,a1,0x17
    25a0:	0ff6f693          	zext.b	a3,a3
    25a4:	0ff00893          	li	a7,255
    25a8:	00a7f833          	and	a6,a5,a0
    25ac:	01f55713          	srli	a4,a0,0x1f
    25b0:	00b7f7b3          	and	a5,a5,a1
    25b4:	0ff67613          	zext.b	a2,a2
    25b8:	01f5d593          	srli	a1,a1,0x1f
    25bc:	00100513          	li	a0,1
    25c0:	01169a63          	bne	a3,a7,25d4 <__eqsf2+0x44>
    25c4:	00081663          	bnez	a6,25d0 <__eqsf2+0x40>
    25c8:	00d61463          	bne	a2,a3,25d0 <__eqsf2+0x40>
    25cc:	00078a63          	beqz	a5,25e0 <__eqsf2+0x50>
    25d0:	00008067          	ret
    25d4:	ff160ee3          	beq	a2,a7,25d0 <__eqsf2+0x40>
    25d8:	fec69ce3          	bne	a3,a2,25d0 <__eqsf2+0x40>
    25dc:	fef81ae3          	bne	a6,a5,25d0 <__eqsf2+0x40>
    25e0:	00000513          	li	a0,0
    25e4:	feb706e3          	beq	a4,a1,25d0 <__eqsf2+0x40>
    25e8:	00100513          	li	a0,1
    25ec:	fe0692e3          	bnez	a3,25d0 <__eqsf2+0x40>
    25f0:	01003533          	snez	a0,a6
    25f4:	00008067          	ret

Disassembly of section .text.__gesf2:

000025f8 <__gesf2>:
    25f8:	00800737          	lui	a4,0x800
    25fc:	fff70713          	addi	a4,a4,-1 # 7fffff <__heap_start+0x7fbfff>
    2600:	01755693          	srli	a3,a0,0x17
    2604:	00a77633          	and	a2,a4,a0
    2608:	01f55793          	srli	a5,a0,0x1f
    260c:	0ff6f693          	zext.b	a3,a3
    2610:	0175d513          	srli	a0,a1,0x17
    2614:	0ff00813          	li	a6,255
    2618:	00b77733          	and	a4,a4,a1
    261c:	0ff57513          	zext.b	a0,a0
    2620:	01f5d593          	srli	a1,a1,0x1f
    2624:	01069463          	bne	a3,a6,262c <__gesf2+0x34>
    2628:	02061e63          	bnez	a2,2664 <__gesf2+0x6c>
    262c:	01051463          	bne	a0,a6,2634 <__gesf2+0x3c>
    2630:	02071a63          	bnez	a4,2664 <__gesf2+0x6c>
    2634:	04069863          	bnez	a3,2684 <__gesf2+0x8c>
    2638:	02051a63          	bnez	a0,266c <__gesf2+0x74>
    263c:	04061663          	bnez	a2,2688 <__gesf2+0x90>
    2640:	02070063          	beqz	a4,2660 <__gesf2+0x68>
    2644:	00159513          	slli	a0,a1,0x1
    2648:	fff50513          	addi	a0,a0,-1
    264c:	00008067          	ret
    2650:	fea6cae3          	blt	a3,a0,2644 <__gesf2+0x4c>
    2654:	02c76263          	bltu	a4,a2,2678 <__gesf2+0x80>
    2658:	00000513          	li	a0,0
    265c:	fee664e3          	bltu	a2,a4,2644 <__gesf2+0x4c>
    2660:	00008067          	ret
    2664:	ffe00513          	li	a0,-2
    2668:	00008067          	ret
    266c:	fc060ce3          	beqz	a2,2644 <__gesf2+0x4c>
    2670:	00f59e63          	bne	a1,a5,268c <__gesf2+0x94>
    2674:	fcd55ee3          	bge	a0,a3,2650 <__gesf2+0x58>
    2678:	40b005b3          	neg	a1,a1
    267c:	0015e513          	ori	a0,a1,1
    2680:	00008067          	ret
    2684:	fe0516e3          	bnez	a0,2670 <__gesf2+0x78>
    2688:	fe0714e3          	bnez	a4,2670 <__gesf2+0x78>
    268c:	40f00533          	neg	a0,a5
    2690:	00156513          	ori	a0,a0,1
    2694:	00008067          	ret

Disassembly of section .text.__lesf2:

00002698 <__lesf2>:
    2698:	00800737          	lui	a4,0x800
    269c:	fff70713          	addi	a4,a4,-1 # 7fffff <__heap_start+0x7fbfff>
    26a0:	01755693          	srli	a3,a0,0x17
    26a4:	00a77633          	and	a2,a4,a0
    26a8:	01f55793          	srli	a5,a0,0x1f
    26ac:	0ff6f693          	zext.b	a3,a3
    26b0:	0175d513          	srli	a0,a1,0x17
    26b4:	0ff00813          	li	a6,255
    26b8:	00b77733          	and	a4,a4,a1
    26bc:	0ff57513          	zext.b	a0,a0
    26c0:	01f5d593          	srli	a1,a1,0x1f
    26c4:	01069463          	bne	a3,a6,26cc <__lesf2+0x34>
    26c8:	02061e63          	bnez	a2,2704 <__lesf2+0x6c>
    26cc:	01051463          	bne	a0,a6,26d4 <__lesf2+0x3c>
    26d0:	02071a63          	bnez	a4,2704 <__lesf2+0x6c>
    26d4:	04069863          	bnez	a3,2724 <__lesf2+0x8c>
    26d8:	02051a63          	bnez	a0,270c <__lesf2+0x74>
    26dc:	04061663          	bnez	a2,2728 <__lesf2+0x90>
    26e0:	02070063          	beqz	a4,2700 <__lesf2+0x68>
    26e4:	00159513          	slli	a0,a1,0x1
    26e8:	fff50513          	addi	a0,a0,-1
    26ec:	00008067          	ret
    26f0:	fea6cae3          	blt	a3,a0,26e4 <__lesf2+0x4c>
    26f4:	02c76263          	bltu	a4,a2,2718 <__lesf2+0x80>
    26f8:	00000513          	li	a0,0
    26fc:	fee664e3          	bltu	a2,a4,26e4 <__lesf2+0x4c>
    2700:	00008067          	ret
    2704:	00200513          	li	a0,2
    2708:	00008067          	ret
    270c:	fc060ce3          	beqz	a2,26e4 <__lesf2+0x4c>
    2710:	00f59e63          	bne	a1,a5,272c <__lesf2+0x94>
    2714:	fcd55ee3          	bge	a0,a3,26f0 <__lesf2+0x58>
    2718:	40b005b3          	neg	a1,a1
    271c:	0015e513          	ori	a0,a1,1
    2720:	00008067          	ret
    2724:	fe0516e3          	bnez	a0,2710 <__lesf2+0x78>
    2728:	fe0714e3          	bnez	a4,2710 <__lesf2+0x78>
    272c:	40f00533          	neg	a0,a5
    2730:	00156513          	ori	a0,a0,1
    2734:	00008067          	ret

Disassembly of section .text.__mulsf3:

00002738 <__mulsf3>:
    2738:	fe010113          	addi	sp,sp,-32
    273c:	01212823          	sw	s2,16(sp)
    2740:	01755913          	srli	s2,a0,0x17
    2744:	00912a23          	sw	s1,20(sp)
    2748:	01312623          	sw	s3,12(sp)
    274c:	01512223          	sw	s5,4(sp)
    2750:	00951493          	slli	s1,a0,0x9
    2754:	00112e23          	sw	ra,28(sp)
    2758:	00812c23          	sw	s0,24(sp)
    275c:	01412423          	sw	s4,8(sp)
    2760:	0ff97913          	zext.b	s2,s2
    2764:	00058a93          	mv	s5,a1
    2768:	0094d493          	srli	s1,s1,0x9
    276c:	01f55993          	srli	s3,a0,0x1f
    2770:	1a090c63          	beqz	s2,2928 <__mulsf3+0x1f0>
    2774:	0ff00793          	li	a5,255
    2778:	1cf90863          	beq	s2,a5,2948 <__mulsf3+0x210>
    277c:	00349493          	slli	s1,s1,0x3
    2780:	040007b7          	lui	a5,0x4000
    2784:	00f4e4b3          	or	s1,s1,a5
    2788:	f8190913          	addi	s2,s2,-127
    278c:	00000a13          	li	s4,0
    2790:	017ad793          	srli	a5,s5,0x17
    2794:	009a9413          	slli	s0,s5,0x9
    2798:	0ff7f793          	zext.b	a5,a5
    279c:	00945413          	srli	s0,s0,0x9
    27a0:	01fada93          	srli	s5,s5,0x1f
    27a4:	1c078063          	beqz	a5,2964 <__mulsf3+0x22c>
    27a8:	0ff00713          	li	a4,255
    27ac:	1ce78c63          	beq	a5,a4,2984 <__mulsf3+0x24c>
    27b0:	00341413          	slli	s0,s0,0x3
    27b4:	04000737          	lui	a4,0x4000
    27b8:	00e46433          	or	s0,s0,a4
    27bc:	f8178793          	addi	a5,a5,-127 # 3ffff81 <__heap_start+0x3ffbf81>
    27c0:	00000713          	li	a4,0
    27c4:	00f90933          	add	s2,s2,a5
    27c8:	002a1793          	slli	a5,s4,0x2
    27cc:	00e7e7b3          	or	a5,a5,a4
    27d0:	00a00693          	li	a3,10
    27d4:	00190813          	addi	a6,s2,1
    27d8:	20f6c663          	blt	a3,a5,29e4 <__mulsf3+0x2ac>
    27dc:	00200613          	li	a2,2
    27e0:	0159c9b3          	xor	s3,s3,s5
    27e4:	00100693          	li	a3,1
    27e8:	1af64c63          	blt	a2,a5,29a0 <__mulsf3+0x268>
    27ec:	fff78793          	addi	a5,a5,-1
    27f0:	1cf6f863          	bgeu	a3,a5,29c0 <__mulsf3+0x288>
    27f4:	0104de13          	srli	t3,s1,0x10
    27f8:	01045793          	srli	a5,s0,0x10
    27fc:	01049493          	slli	s1,s1,0x10
    2800:	01041413          	slli	s0,s0,0x10
    2804:	0104d493          	srli	s1,s1,0x10
    2808:	01045413          	srli	s0,s0,0x10
    280c:	00048513          	mv	a0,s1
    2810:	00040593          	mv	a1,s0
    2814:	a5dfd0ef          	jal	270 <__mulsi3>
    2818:	00050893          	mv	a7,a0
    281c:	00078593          	mv	a1,a5
    2820:	00048513          	mv	a0,s1
    2824:	a4dfd0ef          	jal	270 <__mulsi3>
    2828:	00050713          	mv	a4,a0
    282c:	00040593          	mv	a1,s0
    2830:	000e0513          	mv	a0,t3
    2834:	a3dfd0ef          	jal	270 <__mulsi3>
    2838:	00050313          	mv	t1,a0
    283c:	00078593          	mv	a1,a5
    2840:	000e0513          	mv	a0,t3
    2844:	a2dfd0ef          	jal	270 <__mulsi3>
    2848:	0108d793          	srli	a5,a7,0x10
    284c:	00670733          	add	a4,a4,t1
    2850:	00e787b3          	add	a5,a5,a4
    2854:	00050693          	mv	a3,a0
    2858:	0067f663          	bgeu	a5,t1,2864 <__mulsf3+0x12c>
    285c:	00010737          	lui	a4,0x10
    2860:	00e506b3          	add	a3,a0,a4
    2864:	01089893          	slli	a7,a7,0x10
    2868:	01079713          	slli	a4,a5,0x10
    286c:	0108d893          	srli	a7,a7,0x10
    2870:	01170733          	add	a4,a4,a7
    2874:	0107d793          	srli	a5,a5,0x10
    2878:	00671413          	slli	s0,a4,0x6
    287c:	00d787b3          	add	a5,a5,a3
    2880:	01a75713          	srli	a4,a4,0x1a
    2884:	00679793          	slli	a5,a5,0x6
    2888:	00803433          	snez	s0,s0
    288c:	00e46433          	or	s0,s0,a4
    2890:	00479713          	slli	a4,a5,0x4
    2894:	0087e433          	or	s0,a5,s0
    2898:	16075463          	bgez	a4,2a00 <__mulsf3+0x2c8>
    289c:	00145793          	srli	a5,s0,0x1
    28a0:	00147413          	andi	s0,s0,1
    28a4:	0087e433          	or	s0,a5,s0
    28a8:	07f80513          	addi	a0,a6,127
    28ac:	14a05e63          	blez	a0,2a08 <__mulsf3+0x2d0>
    28b0:	00747793          	andi	a5,s0,7
    28b4:	00078a63          	beqz	a5,28c8 <__mulsf3+0x190>
    28b8:	00f47793          	andi	a5,s0,15
    28bc:	00400713          	li	a4,4
    28c0:	00e78463          	beq	a5,a4,28c8 <__mulsf3+0x190>
    28c4:	00e40433          	add	s0,s0,a4
    28c8:	00441793          	slli	a5,s0,0x4
    28cc:	0007da63          	bgez	a5,28e0 <__mulsf3+0x1a8>
    28d0:	f80007b7          	lui	a5,0xf8000
    28d4:	fff78793          	addi	a5,a5,-1 # f7ffffff <__heap_start+0xf7ffbfff>
    28d8:	00f47433          	and	s0,s0,a5
    28dc:	08080513          	addi	a0,a6,128
    28e0:	0fe00793          	li	a5,254
    28e4:	18a7ca63          	blt	a5,a0,2a78 <__mulsf3+0x340>
    28e8:	00345793          	srli	a5,s0,0x3
    28ec:	01c12083          	lw	ra,28(sp)
    28f0:	01812403          	lw	s0,24(sp)
    28f4:	00979793          	slli	a5,a5,0x9
    28f8:	01751513          	slli	a0,a0,0x17
    28fc:	0097d793          	srli	a5,a5,0x9
    2900:	01f99993          	slli	s3,s3,0x1f
    2904:	00f56533          	or	a0,a0,a5
    2908:	01412483          	lw	s1,20(sp)
    290c:	01012903          	lw	s2,16(sp)
    2910:	00812a03          	lw	s4,8(sp)
    2914:	00412a83          	lw	s5,4(sp)
    2918:	01356533          	or	a0,a0,s3
    291c:	00c12983          	lw	s3,12(sp)
    2920:	02010113          	addi	sp,sp,32
    2924:	00008067          	ret
    2928:	02048863          	beqz	s1,2958 <__mulsf3+0x220>
    292c:	00048513          	mv	a0,s1
    2930:	039000ef          	jal	3168 <__clzsi2>
    2934:	ffb50793          	addi	a5,a0,-5
    2938:	f8a00913          	li	s2,-118
    293c:	00f494b3          	sll	s1,s1,a5
    2940:	40a90933          	sub	s2,s2,a0
    2944:	e49ff06f          	j	278c <__mulsf3+0x54>
    2948:	00200a13          	li	s4,2
    294c:	e40482e3          	beqz	s1,2790 <__mulsf3+0x58>
    2950:	00300a13          	li	s4,3
    2954:	e3dff06f          	j	2790 <__mulsf3+0x58>
    2958:	00000913          	li	s2,0
    295c:	00100a13          	li	s4,1
    2960:	e31ff06f          	j	2790 <__mulsf3+0x58>
    2964:	02040863          	beqz	s0,2994 <__mulsf3+0x25c>
    2968:	00040513          	mv	a0,s0
    296c:	7fc000ef          	jal	3168 <__clzsi2>
    2970:	ffb50793          	addi	a5,a0,-5
    2974:	00f41433          	sll	s0,s0,a5
    2978:	f8a00793          	li	a5,-118
    297c:	40a787b3          	sub	a5,a5,a0
    2980:	e41ff06f          	j	27c0 <__mulsf3+0x88>
    2984:	00200713          	li	a4,2
    2988:	e2040ee3          	beqz	s0,27c4 <__mulsf3+0x8c>
    298c:	00300713          	li	a4,3
    2990:	e35ff06f          	j	27c4 <__mulsf3+0x8c>
    2994:	00000793          	li	a5,0
    2998:	00100713          	li	a4,1
    299c:	e29ff06f          	j	27c4 <__mulsf3+0x8c>
    29a0:	00f697b3          	sll	a5,a3,a5
    29a4:	5307f693          	andi	a3,a5,1328
    29a8:	04069663          	bnez	a3,29f4 <__mulsf3+0x2bc>
    29ac:	2407f693          	andi	a3,a5,576
    29b0:	0a069c63          	bnez	a3,2a68 <__mulsf3+0x330>
    29b4:	0887f793          	andi	a5,a5,136
    29b8:	e2078ee3          	beqz	a5,27f4 <__mulsf3+0xbc>
    29bc:	000a8993          	mv	s3,s5
    29c0:	00200793          	li	a5,2
    29c4:	0af70a63          	beq	a4,a5,2a78 <__mulsf3+0x340>
    29c8:	00300793          	li	a5,3
    29cc:	08f70e63          	beq	a4,a5,2a68 <__mulsf3+0x330>
    29d0:	00100793          	li	a5,1
    29d4:	ecf71ae3          	bne	a4,a5,28a8 <__mulsf3+0x170>
    29d8:	00000793          	li	a5,0
    29dc:	00000513          	li	a0,0
    29e0:	f0dff06f          	j	28ec <__mulsf3+0x1b4>
    29e4:	00f00693          	li	a3,15
    29e8:	08d78063          	beq	a5,a3,2a68 <__mulsf3+0x330>
    29ec:	00b00693          	li	a3,11
    29f0:	fcd786e3          	beq	a5,a3,29bc <__mulsf3+0x284>
    29f4:	00048413          	mv	s0,s1
    29f8:	000a0713          	mv	a4,s4
    29fc:	fc5ff06f          	j	29c0 <__mulsf3+0x288>
    2a00:	00090813          	mv	a6,s2
    2a04:	ea5ff06f          	j	28a8 <__mulsf3+0x170>
    2a08:	00100713          	li	a4,1
    2a0c:	00050c63          	beqz	a0,2a24 <__mulsf3+0x2ec>
    2a10:	40a70733          	sub	a4,a4,a0
    2a14:	01b00693          	li	a3,27
    2a18:	00000793          	li	a5,0
    2a1c:	00000513          	li	a0,0
    2a20:	ece6c6e3          	blt	a3,a4,28ec <__mulsf3+0x1b4>
    2a24:	09e80813          	addi	a6,a6,158
    2a28:	00e45733          	srl	a4,s0,a4
    2a2c:	01041433          	sll	s0,s0,a6
    2a30:	00803433          	snez	s0,s0
    2a34:	008767b3          	or	a5,a4,s0
    2a38:	0077f713          	andi	a4,a5,7
    2a3c:	00070a63          	beqz	a4,2a50 <__mulsf3+0x318>
    2a40:	00f7f713          	andi	a4,a5,15
    2a44:	00400693          	li	a3,4
    2a48:	00d70463          	beq	a4,a3,2a50 <__mulsf3+0x318>
    2a4c:	00d787b3          	add	a5,a5,a3
    2a50:	00579713          	slli	a4,a5,0x5
    2a54:	0037d793          	srli	a5,a5,0x3
    2a58:	f80752e3          	bgez	a4,29dc <__mulsf3+0x2a4>
    2a5c:	00000793          	li	a5,0
    2a60:	00100513          	li	a0,1
    2a64:	e89ff06f          	j	28ec <__mulsf3+0x1b4>
    2a68:	004007b7          	lui	a5,0x400
    2a6c:	0ff00513          	li	a0,255
    2a70:	00000993          	li	s3,0
    2a74:	e79ff06f          	j	28ec <__mulsf3+0x1b4>
    2a78:	00000793          	li	a5,0
    2a7c:	0ff00513          	li	a0,255
    2a80:	e6dff06f          	j	28ec <__mulsf3+0x1b4>

Disassembly of section .text.__subsf3:

00002a84 <__subsf3>:
    2a84:	00800737          	lui	a4,0x800
    2a88:	ff010113          	addi	sp,sp,-16
    2a8c:	fff70713          	addi	a4,a4,-1 # 7fffff <__heap_start+0x7fbfff>
    2a90:	0175d693          	srli	a3,a1,0x17
    2a94:	00a777b3          	and	a5,a4,a0
    2a98:	00812423          	sw	s0,8(sp)
    2a9c:	00b77733          	and	a4,a4,a1
    2aa0:	00912223          	sw	s1,4(sp)
    2aa4:	01755413          	srli	s0,a0,0x17
    2aa8:	00112623          	sw	ra,12(sp)
    2aac:	01212023          	sw	s2,0(sp)
    2ab0:	0ff6f693          	zext.b	a3,a3
    2ab4:	0ff00613          	li	a2,255
    2ab8:	0ff47413          	zext.b	s0,s0
    2abc:	01f55493          	srli	s1,a0,0x1f
    2ac0:	00379793          	slli	a5,a5,0x3
    2ac4:	01f5d593          	srli	a1,a1,0x1f
    2ac8:	00371713          	slli	a4,a4,0x3
    2acc:	00c69463          	bne	a3,a2,2ad4 <__subsf3+0x50>
    2ad0:	00071463          	bnez	a4,2ad8 <__subsf3+0x54>
    2ad4:	0015c593          	xori	a1,a1,1
    2ad8:	40d40633          	sub	a2,s0,a3
    2adc:	1c959e63          	bne	a1,s1,2cb8 <__subsf3+0x234>
    2ae0:	08c05e63          	blez	a2,2b7c <__subsf3+0xf8>
    2ae4:	0ff00513          	li	a0,255
    2ae8:	02069663          	bnez	a3,2b14 <__subsf3+0x90>
    2aec:	00070e63          	beqz	a4,2b08 <__subsf3+0x84>
    2af0:	fff60593          	addi	a1,a2,-1 # 3ffffff <__heap_start+0x3ffbfff>
    2af4:	00059863          	bnez	a1,2b04 <__subsf3+0x80>
    2af8:	00e787b3          	add	a5,a5,a4
    2afc:	00100413          	li	s0,1
    2b00:	04c0006f          	j	2b4c <__subsf3+0xc8>
    2b04:	02a61063          	bne	a2,a0,2b24 <__subsf3+0xa0>
    2b08:	00060413          	mv	s0,a2
    2b0c:	00078713          	mv	a4,a5
    2b10:	2c40006f          	j	2dd4 <__subsf3+0x350>
    2b14:	fea40ce3          	beq	s0,a0,2b0c <__subsf3+0x88>
    2b18:	040006b7          	lui	a3,0x4000
    2b1c:	00d76733          	or	a4,a4,a3
    2b20:	00060593          	mv	a1,a2
    2b24:	01b00613          	li	a2,27
    2b28:	00100693          	li	a3,1
    2b2c:	00b64e63          	blt	a2,a1,2b48 <__subsf3+0xc4>
    2b30:	02000693          	li	a3,32
    2b34:	40b686b3          	sub	a3,a3,a1
    2b38:	00b75633          	srl	a2,a4,a1
    2b3c:	00d71733          	sll	a4,a4,a3
    2b40:	00e03733          	snez	a4,a4
    2b44:	00e666b3          	or	a3,a2,a4
    2b48:	00d787b3          	add	a5,a5,a3
    2b4c:	00579713          	slli	a4,a5,0x5
    2b50:	12075463          	bgez	a4,2c78 <__subsf3+0x1f4>
    2b54:	00140413          	addi	s0,s0,1
    2b58:	0ff00713          	li	a4,255
    2b5c:	36e40063          	beq	s0,a4,2ebc <__subsf3+0x438>
    2b60:	7e000737          	lui	a4,0x7e000
    2b64:	0017f693          	andi	a3,a5,1
    2b68:	fff70713          	addi	a4,a4,-1 # 7dffffff <__heap_start+0x7dffbfff>
    2b6c:	0017d793          	srli	a5,a5,0x1
    2b70:	00e7f7b3          	and	a5,a5,a4
    2b74:	00d7e7b3          	or	a5,a5,a3
    2b78:	1000006f          	j	2c78 <__subsf3+0x1f4>
    2b7c:	06060463          	beqz	a2,2be4 <__subsf3+0x160>
    2b80:	40868633          	sub	a2,a3,s0
    2b84:	0ff00513          	li	a0,255
    2b88:	00041e63          	bnez	s0,2ba4 <__subsf3+0x120>
    2b8c:	32078263          	beqz	a5,2eb0 <__subsf3+0x42c>
    2b90:	fff60593          	addi	a1,a2,-1
    2b94:	f60582e3          	beqz	a1,2af8 <__subsf3+0x74>
    2b98:	00a61e63          	bne	a2,a0,2bb4 <__subsf3+0x130>
    2b9c:	0ff00413          	li	s0,255
    2ba0:	2340006f          	j	2dd4 <__subsf3+0x350>
    2ba4:	fea68ce3          	beq	a3,a0,2b9c <__subsf3+0x118>
    2ba8:	040005b7          	lui	a1,0x4000
    2bac:	00b7e7b3          	or	a5,a5,a1
    2bb0:	00060593          	mv	a1,a2
    2bb4:	01b00513          	li	a0,27
    2bb8:	00100613          	li	a2,1
    2bbc:	00b54e63          	blt	a0,a1,2bd8 <__subsf3+0x154>
    2bc0:	02000613          	li	a2,32
    2bc4:	40b60633          	sub	a2,a2,a1
    2bc8:	00b7d533          	srl	a0,a5,a1
    2bcc:	00c797b3          	sll	a5,a5,a2
    2bd0:	00f037b3          	snez	a5,a5
    2bd4:	00f56633          	or	a2,a0,a5
    2bd8:	00e607b3          	add	a5,a2,a4
    2bdc:	00068413          	mv	s0,a3
    2be0:	f6dff06f          	j	2b4c <__subsf3+0xc8>
    2be4:	00140693          	addi	a3,s0,1
    2be8:	0fe6f613          	andi	a2,a3,254
    2bec:	06061c63          	bnez	a2,2c64 <__subsf3+0x1e0>
    2bf0:	06041263          	bnez	s0,2c54 <__subsf3+0x1d0>
    2bf4:	2a078863          	beqz	a5,2ea4 <__subsf3+0x420>
    2bf8:	08070c63          	beqz	a4,2c90 <__subsf3+0x20c>
    2bfc:	00f70733          	add	a4,a4,a5
    2c00:	00571793          	slli	a5,a4,0x5
    2c04:	1c07d863          	bgez	a5,2dd4 <__subsf3+0x350>
    2c08:	1f8007b7          	lui	a5,0x1f800
    2c0c:	00375713          	srli	a4,a4,0x3
    2c10:	fff78793          	addi	a5,a5,-1 # 1f7fffff <__heap_start+0x1f7fbfff>
    2c14:	00f777b3          	and	a5,a4,a5
    2c18:	00100413          	li	s0,1
    2c1c:	01741413          	slli	s0,s0,0x17
    2c20:	7f800737          	lui	a4,0x7f800
    2c24:	00979793          	slli	a5,a5,0x9
    2c28:	00e47433          	and	s0,s0,a4
    2c2c:	0097d793          	srli	a5,a5,0x9
    2c30:	00f46433          	or	s0,s0,a5
    2c34:	01f49513          	slli	a0,s1,0x1f
    2c38:	00c12083          	lw	ra,12(sp)
    2c3c:	00a46533          	or	a0,s0,a0
    2c40:	00812403          	lw	s0,8(sp)
    2c44:	00412483          	lw	s1,4(sp)
    2c48:	00012903          	lw	s2,0(sp)
    2c4c:	01010113          	addi	sp,sp,16
    2c50:	00008067          	ret
    2c54:	f40784e3          	beqz	a5,2b9c <__subsf3+0x118>
    2c58:	1c071863          	bnez	a4,2e28 <__subsf3+0x3a4>
    2c5c:	00078713          	mv	a4,a5
    2c60:	f3dff06f          	j	2b9c <__subsf3+0x118>
    2c64:	0ff00613          	li	a2,255
    2c68:	24c68863          	beq	a3,a2,2eb8 <__subsf3+0x434>
    2c6c:	00e78733          	add	a4,a5,a4
    2c70:	00175793          	srli	a5,a4,0x1
    2c74:	00068413          	mv	s0,a3
    2c78:	0077f713          	andi	a4,a5,7
    2c7c:	00070a63          	beqz	a4,2c90 <__subsf3+0x20c>
    2c80:	00f7f713          	andi	a4,a5,15
    2c84:	00400693          	li	a3,4
    2c88:	00d70463          	beq	a4,a3,2c90 <__subsf3+0x20c>
    2c8c:	00d787b3          	add	a5,a5,a3
    2c90:	00579713          	slli	a4,a5,0x5
    2c94:	e6075ce3          	bgez	a4,2b0c <__subsf3+0x88>
    2c98:	00140413          	addi	s0,s0,1
    2c9c:	0ff00713          	li	a4,255
    2ca0:	20e40e63          	beq	s0,a4,2ebc <__subsf3+0x438>
    2ca4:	1f800737          	lui	a4,0x1f800
    2ca8:	0037d793          	srli	a5,a5,0x3
    2cac:	fff70713          	addi	a4,a4,-1 # 1f7fffff <__heap_start+0x1f7fbfff>
    2cb0:	00e7f7b3          	and	a5,a5,a4
    2cb4:	f69ff06f          	j	2c1c <__subsf3+0x198>
    2cb8:	08c05063          	blez	a2,2d38 <__subsf3+0x2b4>
    2cbc:	06069263          	bnez	a3,2d20 <__subsf3+0x29c>
    2cc0:	e40704e3          	beqz	a4,2b08 <__subsf3+0x84>
    2cc4:	fff60593          	addi	a1,a2,-1
    2cc8:	00059863          	bnez	a1,2cd8 <__subsf3+0x254>
    2ccc:	40e787b3          	sub	a5,a5,a4
    2cd0:	00100413          	li	s0,1
    2cd4:	0340006f          	j	2d08 <__subsf3+0x284>
    2cd8:	0ff00693          	li	a3,255
    2cdc:	e2d606e3          	beq	a2,a3,2b08 <__subsf3+0x84>
    2ce0:	01b00613          	li	a2,27
    2ce4:	00100693          	li	a3,1
    2ce8:	00b64e63          	blt	a2,a1,2d04 <__subsf3+0x280>
    2cec:	02000693          	li	a3,32
    2cf0:	40b686b3          	sub	a3,a3,a1
    2cf4:	00b75633          	srl	a2,a4,a1
    2cf8:	00d71733          	sll	a4,a4,a3
    2cfc:	00e03733          	snez	a4,a4
    2d00:	00e666b3          	or	a3,a2,a4
    2d04:	40d787b3          	sub	a5,a5,a3
    2d08:	00579713          	slli	a4,a5,0x5
    2d0c:	f60756e3          	bgez	a4,2c78 <__subsf3+0x1f4>
    2d10:	04000937          	lui	s2,0x4000
    2d14:	fff90913          	addi	s2,s2,-1 # 3ffffff <__heap_start+0x3ffbfff>
    2d18:	0127f933          	and	s2,a5,s2
    2d1c:	1300006f          	j	2e4c <__subsf3+0x3c8>
    2d20:	0ff00693          	li	a3,255
    2d24:	ded404e3          	beq	s0,a3,2b0c <__subsf3+0x88>
    2d28:	040006b7          	lui	a3,0x4000
    2d2c:	00d76733          	or	a4,a4,a3
    2d30:	00060593          	mv	a1,a2
    2d34:	fadff06f          	j	2ce0 <__subsf3+0x25c>
    2d38:	06060e63          	beqz	a2,2db4 <__subsf3+0x330>
    2d3c:	40868633          	sub	a2,a3,s0
    2d40:	02041663          	bnez	s0,2d6c <__subsf3+0x2e8>
    2d44:	16078463          	beqz	a5,2eac <__subsf3+0x428>
    2d48:	fff60513          	addi	a0,a2,-1
    2d4c:	00051863          	bnez	a0,2d5c <__subsf3+0x2d8>
    2d50:	40f707b3          	sub	a5,a4,a5
    2d54:	00058493          	mv	s1,a1
    2d58:	f79ff06f          	j	2cd0 <__subsf3+0x24c>
    2d5c:	0ff00813          	li	a6,255
    2d60:	03061063          	bne	a2,a6,2d80 <__subsf3+0x2fc>
    2d64:	00058493          	mv	s1,a1
    2d68:	e35ff06f          	j	2b9c <__subsf3+0x118>
    2d6c:	0ff00513          	li	a0,255
    2d70:	fea68ae3          	beq	a3,a0,2d64 <__subsf3+0x2e0>
    2d74:	04000537          	lui	a0,0x4000
    2d78:	00a7e7b3          	or	a5,a5,a0
    2d7c:	00060513          	mv	a0,a2
    2d80:	01b00813          	li	a6,27
    2d84:	00100613          	li	a2,1
    2d88:	00a84e63          	blt	a6,a0,2da4 <__subsf3+0x320>
    2d8c:	02000613          	li	a2,32
    2d90:	40a60633          	sub	a2,a2,a0
    2d94:	00a7d833          	srl	a6,a5,a0
    2d98:	00c797b3          	sll	a5,a5,a2
    2d9c:	00f037b3          	snez	a5,a5
    2da0:	00f86633          	or	a2,a6,a5
    2da4:	40c707b3          	sub	a5,a4,a2
    2da8:	00068413          	mv	s0,a3
    2dac:	00058493          	mv	s1,a1
    2db0:	f59ff06f          	j	2d08 <__subsf3+0x284>
    2db4:	00140693          	addi	a3,s0,1
    2db8:	0fe6f693          	andi	a3,a3,254
    2dbc:	06069e63          	bnez	a3,2e38 <__subsf3+0x3b4>
    2dc0:	06041263          	bnez	s0,2e24 <__subsf3+0x3a0>
    2dc4:	02079463          	bnez	a5,2dec <__subsf3+0x368>
    2dc8:	00000493          	li	s1,0
    2dcc:	e40708e3          	beqz	a4,2c1c <__subsf3+0x198>
    2dd0:	00058493          	mv	s1,a1
    2dd4:	00375793          	srli	a5,a4,0x3
    2dd8:	0ff00713          	li	a4,255
    2ddc:	e4e410e3          	bne	s0,a4,2c1c <__subsf3+0x198>
    2de0:	e2078ee3          	beqz	a5,2c1c <__subsf3+0x198>
    2de4:	004007b7          	lui	a5,0x400
    2de8:	0340006f          	j	2e1c <__subsf3+0x398>
    2dec:	ea0702e3          	beqz	a4,2c90 <__subsf3+0x20c>
    2df0:	40e786b3          	sub	a3,a5,a4
    2df4:	00569613          	slli	a2,a3,0x5
    2df8:	00065c63          	bgez	a2,2e10 <__subsf3+0x38c>
    2dfc:	40f707b3          	sub	a5,a4,a5
    2e00:	00058493          	mv	s1,a1
    2e04:	00000413          	li	s0,0
    2e08:	e0078ae3          	beqz	a5,2c1c <__subsf3+0x198>
    2e0c:	e6dff06f          	j	2c78 <__subsf3+0x1f4>
    2e10:	00068713          	mv	a4,a3
    2e14:	fc0690e3          	bnez	a3,2dd4 <__subsf3+0x350>
    2e18:	00000793          	li	a5,0
    2e1c:	00000493          	li	s1,0
    2e20:	dfdff06f          	j	2c1c <__subsf3+0x198>
    2e24:	e2079ae3          	bnez	a5,2c58 <__subsf3+0x1d4>
    2e28:	00000493          	li	s1,0
    2e2c:	0ff00413          	li	s0,255
    2e30:	004007b7          	lui	a5,0x400
    2e34:	de9ff06f          	j	2c1c <__subsf3+0x198>
    2e38:	40e78933          	sub	s2,a5,a4
    2e3c:	00591693          	slli	a3,s2,0x5
    2e40:	0406d263          	bgez	a3,2e84 <__subsf3+0x400>
    2e44:	40f70933          	sub	s2,a4,a5
    2e48:	00058493          	mv	s1,a1
    2e4c:	00090513          	mv	a0,s2
    2e50:	318000ef          	jal	3168 <__clzsi2>
    2e54:	ffb50513          	addi	a0,a0,-5 # 3fffffb <__heap_start+0x3ffbffb>
    2e58:	00a91933          	sll	s2,s2,a0
    2e5c:	02854a63          	blt	a0,s0,2e90 <__subsf3+0x40c>
    2e60:	40850533          	sub	a0,a0,s0
    2e64:	00150513          	addi	a0,a0,1
    2e68:	02000713          	li	a4,32
    2e6c:	40a70733          	sub	a4,a4,a0
    2e70:	00a957b3          	srl	a5,s2,a0
    2e74:	00e91933          	sll	s2,s2,a4
    2e78:	01203933          	snez	s2,s2
    2e7c:	0127e7b3          	or	a5,a5,s2
    2e80:	f85ff06f          	j	2e04 <__subsf3+0x380>
    2e84:	fc0914e3          	bnez	s2,2e4c <__subsf3+0x3c8>
    2e88:	00000413          	li	s0,0
    2e8c:	f8dff06f          	j	2e18 <__subsf3+0x394>
    2e90:	fc0007b7          	lui	a5,0xfc000
    2e94:	fff78793          	addi	a5,a5,-1 # fbffffff <__heap_start+0xfbffbfff>
    2e98:	40a40433          	sub	s0,s0,a0
    2e9c:	00f977b3          	and	a5,s2,a5
    2ea0:	dd9ff06f          	j	2c78 <__subsf3+0x1f4>
    2ea4:	00070793          	mv	a5,a4
    2ea8:	f5dff06f          	j	2e04 <__subsf3+0x380>
    2eac:	00058493          	mv	s1,a1
    2eb0:	00060413          	mv	s0,a2
    2eb4:	f21ff06f          	j	2dd4 <__subsf3+0x350>
    2eb8:	00068413          	mv	s0,a3
    2ebc:	00000793          	li	a5,0
    2ec0:	d5dff06f          	j	2c1c <__subsf3+0x198>

Disassembly of section .text.__fixsfsi:

00002ec4 <__fixsfsi>:
    2ec4:	00800637          	lui	a2,0x800
    2ec8:	01755713          	srli	a4,a0,0x17
    2ecc:	fff60793          	addi	a5,a2,-1 # 7fffff <__heap_start+0x7fbfff>
    2ed0:	0ff77713          	zext.b	a4,a4
    2ed4:	07e00593          	li	a1,126
    2ed8:	00a7f7b3          	and	a5,a5,a0
    2edc:	01f55693          	srli	a3,a0,0x1f
    2ee0:	04e5d663          	bge	a1,a4,2f2c <__fixsfsi+0x68>
    2ee4:	09d00593          	li	a1,157
    2ee8:	00e5da63          	bge	a1,a4,2efc <__fixsfsi+0x38>
    2eec:	80000537          	lui	a0,0x80000
    2ef0:	fff50513          	addi	a0,a0,-1 # 7fffffff <__heap_start+0x7fffbfff>
    2ef4:	00a68533          	add	a0,a3,a0
    2ef8:	00008067          	ret
    2efc:	00c7e533          	or	a0,a5,a2
    2f00:	09500793          	li	a5,149
    2f04:	00e7dc63          	bge	a5,a4,2f1c <__fixsfsi+0x58>
    2f08:	f6a70713          	addi	a4,a4,-150
    2f0c:	00e51533          	sll	a0,a0,a4
    2f10:	02068063          	beqz	a3,2f30 <__fixsfsi+0x6c>
    2f14:	40a00533          	neg	a0,a0
    2f18:	00008067          	ret
    2f1c:	09600793          	li	a5,150
    2f20:	40e787b3          	sub	a5,a5,a4
    2f24:	00f55533          	srl	a0,a0,a5
    2f28:	fe9ff06f          	j	2f10 <__fixsfsi+0x4c>
    2f2c:	00000513          	li	a0,0
    2f30:	00008067          	ret

Disassembly of section .text.__extendsfdf2:

00002f34 <__extendsfdf2>:
    2f34:	01755713          	srli	a4,a0,0x17
    2f38:	0ff77713          	zext.b	a4,a4
    2f3c:	fe010113          	addi	sp,sp,-32
    2f40:	00170793          	addi	a5,a4,1
    2f44:	00812c23          	sw	s0,24(sp)
    2f48:	00912a23          	sw	s1,20(sp)
    2f4c:	00951413          	slli	s0,a0,0x9
    2f50:	00112e23          	sw	ra,28(sp)
    2f54:	01212823          	sw	s2,16(sp)
    2f58:	01312623          	sw	s3,12(sp)
    2f5c:	0fe7f793          	andi	a5,a5,254
    2f60:	00945413          	srli	s0,s0,0x9
    2f64:	01f55493          	srli	s1,a0,0x1f
    2f68:	04078663          	beqz	a5,2fb4 <__extendsfdf2+0x80>
    2f6c:	00345793          	srli	a5,s0,0x3
    2f70:	38070713          	addi	a4,a4,896
    2f74:	01d41413          	slli	s0,s0,0x1d
    2f78:	00c79793          	slli	a5,a5,0xc
    2f7c:	00c7d793          	srli	a5,a5,0xc
    2f80:	01471713          	slli	a4,a4,0x14
    2f84:	01f49513          	slli	a0,s1,0x1f
    2f88:	00f76733          	or	a4,a4,a5
    2f8c:	01c12083          	lw	ra,28(sp)
    2f90:	00a767b3          	or	a5,a4,a0
    2f94:	00040513          	mv	a0,s0
    2f98:	01812403          	lw	s0,24(sp)
    2f9c:	01412483          	lw	s1,20(sp)
    2fa0:	01012903          	lw	s2,16(sp)
    2fa4:	00c12983          	lw	s3,12(sp)
    2fa8:	00078593          	mv	a1,a5
    2fac:	02010113          	addi	sp,sp,32
    2fb0:	00008067          	ret
    2fb4:	04071663          	bnez	a4,3000 <__extendsfdf2+0xcc>
    2fb8:	00000793          	li	a5,0
    2fbc:	fa040ee3          	beqz	s0,2f78 <__extendsfdf2+0x44>
    2fc0:	00040513          	mv	a0,s0
    2fc4:	1a4000ef          	jal	3168 <__clzsi2>
    2fc8:	00a00793          	li	a5,10
    2fcc:	02a7c263          	blt	a5,a0,2ff0 <__extendsfdf2+0xbc>
    2fd0:	00b00793          	li	a5,11
    2fd4:	40a787b3          	sub	a5,a5,a0
    2fd8:	01550713          	addi	a4,a0,21
    2fdc:	00f457b3          	srl	a5,s0,a5
    2fe0:	00e41433          	sll	s0,s0,a4
    2fe4:	38900713          	li	a4,905
    2fe8:	40a70733          	sub	a4,a4,a0
    2fec:	f8dff06f          	j	2f78 <__extendsfdf2+0x44>
    2ff0:	ff550793          	addi	a5,a0,-11
    2ff4:	00f417b3          	sll	a5,s0,a5
    2ff8:	00000413          	li	s0,0
    2ffc:	fe9ff06f          	j	2fe4 <__extendsfdf2+0xb0>
    3000:	00000793          	li	a5,0
    3004:	00040a63          	beqz	s0,3018 <__extendsfdf2+0xe4>
    3008:	00345793          	srli	a5,s0,0x3
    300c:	00080737          	lui	a4,0x80
    3010:	01d41413          	slli	s0,s0,0x1d
    3014:	00e7e7b3          	or	a5,a5,a4
    3018:	7ff00713          	li	a4,2047
    301c:	f5dff06f          	j	2f78 <__extendsfdf2+0x44>

Disassembly of section .text.__truncdfsf2:

00003020 <__truncdfsf2>:
    3020:	0145d713          	srli	a4,a1,0x14
    3024:	7ff77713          	andi	a4,a4,2047
    3028:	00c59693          	slli	a3,a1,0xc
    302c:	00170613          	addi	a2,a4,1 # 80001 <__heap_start+0x7c001>
    3030:	0096d693          	srli	a3,a3,0x9
    3034:	01d55793          	srli	a5,a0,0x1d
    3038:	7fe67613          	andi	a2,a2,2046
    303c:	00d7e7b3          	or	a5,a5,a3
    3040:	01f5d593          	srli	a1,a1,0x1f
    3044:	00351693          	slli	a3,a0,0x3
    3048:	0c060063          	beqz	a2,3108 <__truncdfsf2+0xe8>
    304c:	c8070613          	addi	a2,a4,-896
    3050:	0fe00813          	li	a6,254
    3054:	10c84663          	blt	a6,a2,3160 <__truncdfsf2+0x140>
    3058:	06c04c63          	bgtz	a2,30d0 <__truncdfsf2+0xb0>
    305c:	fe900513          	li	a0,-23
    3060:	0ea64a63          	blt	a2,a0,3154 <__truncdfsf2+0x134>
    3064:	00800837          	lui	a6,0x800
    3068:	01e00893          	li	a7,30
    306c:	0107e833          	or	a6,a5,a6
    3070:	40c888b3          	sub	a7,a7,a2
    3074:	01f00793          	li	a5,31
    3078:	0317c463          	blt	a5,a7,30a0 <__truncdfsf2+0x80>
    307c:	c8270713          	addi	a4,a4,-894
    3080:	0116d8b3          	srl	a7,a3,a7
    3084:	00e696b3          	sll	a3,a3,a4
    3088:	00d036b3          	snez	a3,a3
    308c:	00e81833          	sll	a6,a6,a4
    3090:	0106e6b3          	or	a3,a3,a6
    3094:	00d8e7b3          	or	a5,a7,a3
    3098:	00000713          	li	a4,0
    309c:	0500006f          	j	30ec <__truncdfsf2+0xcc>
    30a0:	ffe00793          	li	a5,-2
    30a4:	40c787b3          	sub	a5,a5,a2
    30a8:	02000513          	li	a0,32
    30ac:	00f857b3          	srl	a5,a6,a5
    30b0:	00000613          	li	a2,0
    30b4:	00a88663          	beq	a7,a0,30c0 <__truncdfsf2+0xa0>
    30b8:	ca270613          	addi	a2,a4,-862
    30bc:	00c81633          	sll	a2,a6,a2
    30c0:	00d66633          	or	a2,a2,a3
    30c4:	00c03633          	snez	a2,a2
    30c8:	00c7e7b3          	or	a5,a5,a2
    30cc:	fcdff06f          	j	3098 <__truncdfsf2+0x78>
    30d0:	00651513          	slli	a0,a0,0x6
    30d4:	00a03533          	snez	a0,a0
    30d8:	00379793          	slli	a5,a5,0x3
    30dc:	01d6d693          	srli	a3,a3,0x1d
    30e0:	00f567b3          	or	a5,a0,a5
    30e4:	00d7e7b3          	or	a5,a5,a3
    30e8:	00060713          	mv	a4,a2
    30ec:	0077f693          	andi	a3,a5,7
    30f0:	00068863          	beqz	a3,3100 <__truncdfsf2+0xe0>
    30f4:	00f7f693          	andi	a3,a5,15
    30f8:	00400613          	li	a2,4
    30fc:	00c69e63          	bne	a3,a2,3118 <__truncdfsf2+0xf8>
    3100:	0037d793          	srli	a5,a5,0x3
    3104:	03c0006f          	j	3140 <__truncdfsf2+0x120>
    3108:	00d7e7b3          	or	a5,a5,a3
    310c:	02071263          	bnez	a4,3130 <__truncdfsf2+0x110>
    3110:	02078863          	beqz	a5,3140 <__truncdfsf2+0x120>
    3114:	00100793          	li	a5,1
    3118:	00478793          	addi	a5,a5,4
    311c:	00579693          	slli	a3,a5,0x5
    3120:	fe06d0e3          	bgez	a3,3100 <__truncdfsf2+0xe0>
    3124:	00170713          	addi	a4,a4,1
    3128:	00000793          	li	a5,0
    312c:	0140006f          	j	3140 <__truncdfsf2+0x120>
    3130:	0ff00713          	li	a4,255
    3134:	00078663          	beqz	a5,3140 <__truncdfsf2+0x120>
    3138:	00000593          	li	a1,0
    313c:	004007b7          	lui	a5,0x400
    3140:	01771713          	slli	a4,a4,0x17
    3144:	00f76733          	or	a4,a4,a5
    3148:	01f59513          	slli	a0,a1,0x1f
    314c:	00a76533          	or	a0,a4,a0
    3150:	00008067          	ret
    3154:	00100793          	li	a5,1
    3158:	00000713          	li	a4,0
    315c:	fbdff06f          	j	3118 <__truncdfsf2+0xf8>
    3160:	0ff00713          	li	a4,255
    3164:	fc5ff06f          	j	3128 <__truncdfsf2+0x108>

Disassembly of section .text.__clzsi2:

00003168 <__clzsi2>:
    3168:	000107b7          	lui	a5,0x10
    316c:	02f57a63          	bgeu	a0,a5,31a0 <__clzsi2+0x38>
    3170:	10053793          	sltiu	a5,a0,256
    3174:	0017b793          	seqz	a5,a5
    3178:	00379793          	slli	a5,a5,0x3
    317c:	00003737          	lui	a4,0x3
    3180:	02000693          	li	a3,32
    3184:	40f686b3          	sub	a3,a3,a5
    3188:	00f55533          	srl	a0,a0,a5
    318c:	27070793          	addi	a5,a4,624 # 3270 <__clz_tab>
    3190:	00a787b3          	add	a5,a5,a0
    3194:	0007c503          	lbu	a0,0(a5) # 10000 <__heap_start+0xc000>
    3198:	40a68533          	sub	a0,a3,a0
    319c:	00008067          	ret
    31a0:	01000737          	lui	a4,0x1000
    31a4:	01800793          	li	a5,24
    31a8:	fce57ae3          	bgeu	a0,a4,317c <__clzsi2+0x14>
    31ac:	01000793          	li	a5,16
    31b0:	fcdff06f          	j	317c <__clzsi2+0x14>

Disassembly of section .srodata.cst4:

000031c0 <.srodata.cst4>:
    31c0:	0000                	unimp
    31c2:	4010                	lw	a2,0(s0)
    31c4:	0000                	unimp
    31c6:	3f80                	.insn	2, 0x3f80
    31c8:	6666                	.insn	2, 0x6666
    31ca:	3de6                	.insn	2, 0x3de6
    31cc:	3a83126f          	jal	tp,34574 <__heap_start+0x30574>
    31d0:	0000                	unimp
    31d2:	3f00                	.insn	2, 0x3f00
    31d4:	0000                	unimp
    31d6:	bfc0                	.insn	2, 0xbfc0
    31d8:	0000                	unimp
    31da:	3fc0                	.insn	2, 0x3fc0
    31dc:	d70a                	sw	sp,172(sp)
    31de:	b7173c23          	.insn	4, 0xb7173c23
    31e2:	38d1                	jal	2ab6 <__subsf3+0x32>
    31e4:	0000                	unimp
    31e6:	40a0                	lw	s0,64(s1)
    31e8:	cccd                	beqz	s1,32a2 <__clz_tab+0x32>
    31ea:	3ccc                	.insn	2, 0x3ccc
    31ec:	cccd                	beqz	s1,32a6 <__clz_tab+0x36>
    31ee:	3d4c                	.insn	2, 0x3d4c

Disassembly of section .srodata.cst8:

000031f0 <.srodata.cst8>:
    31f0:	0000                	unimp
    31f2:	0000                	unimp
    31f4:	0000                	unimp
    31f6:	3fe0                	.insn	2, 0x3fe0
