
/app/testcase/fpga/multiarray.elf:     file format elf32-littleriscv


Disassembly of section .text:

00000000 <_start>:
   0:	00020137          	lui	sp,0x20
   4:	1e0000ef          	jal	1e4 <main>
   8:	0ff00513          	li	a0,255
   c:	000306b7          	lui	a3,0x30
  10:	00a68223          	sb	a0,4(a3) # 30004 <__heap_start+0x2f004>
  14:	bfe5                	j	c <_start+0xc>

00000016 <outl>:
  16:	7179                	addi	sp,sp,-48
  18:	d422                	sw	s0,40(sp)
  1a:	c85a                	sw	s6,16(sp)
  1c:	d606                	sw	ra,44(sp)
  1e:	d226                	sw	s1,36(sp)
  20:	d04a                	sw	s2,32(sp)
  22:	ce4e                	sw	s3,28(sp)
  24:	cc52                	sw	s4,24(sp)
  26:	ca56                	sw	s5,20(sp)
  28:	842a                	mv	s0,a0
  2a:	4b01                	li	s6,0
  2c:	00055563          	bgez	a0,36 <outl+0x20>
  30:	40a00433          	neg	s0,a0
  34:	4b05                	li	s6,1
  36:	4901                	li	s2,0
  38:	00410993          	addi	s3,sp,4 # 20004 <__heap_start+0x1f004>
  3c:	4aa5                	li	s5,9
  3e:	45a9                	li	a1,10
  40:	8522                	mv	a0,s0
  42:	2a8d                	jal	1b4 <__modsi3>
  44:	84ca                	mv	s1,s2
  46:	0905                	addi	s2,s2,1
  48:	01298a33          	add	s4,s3,s2
  4c:	03050513          	addi	a0,a0,48
  50:	feaa0fa3          	sb	a0,-1(s4)
  54:	45a9                	li	a1,10
  56:	8522                	mv	a0,s0
  58:	8a22                	mv	s4,s0
  5a:	28d9                	jal	130 <__divsi3>
  5c:	842a                	mv	s0,a0
  5e:	ff4ac0e3          	blt	s5,s4,3e <outl+0x28>
  62:	000b0963          	beqz	s6,74 <outl+0x5e>
  66:	002907b3          	add	a5,s2,sp
  6a:	02d00713          	li	a4,45
  6e:	84ca                	mv	s1,s2
  70:	00e78223          	sb	a4,4(a5)
  74:	009987b3          	add	a5,s3,s1
  78:	00030637          	lui	a2,0x30
  7c:	0007c683          	lbu	a3,0(a5)
  80:	873e                	mv	a4,a5
  82:	17fd                	addi	a5,a5,-1
  84:	00d60023          	sb	a3,0(a2) # 30000 <__heap_start+0x2f000>
  88:	fee99ae3          	bne	s3,a4,7c <outl+0x66>
  8c:	50b2                	lw	ra,44(sp)
  8e:	5422                	lw	s0,40(sp)
  90:	5492                	lw	s1,36(sp)
  92:	5902                	lw	s2,32(sp)
  94:	49f2                	lw	s3,28(sp)
  96:	4a62                	lw	s4,24(sp)
  98:	4ad2                	lw	s5,20(sp)
  9a:	4b42                	lw	s6,16(sp)
  9c:	6145                	addi	sp,sp,48
  9e:	8082                	ret

000000a0 <printNum>:
  a0:	7179                	addi	sp,sp,-48
  a2:	d422                	sw	s0,40(sp)
  a4:	c85a                	sw	s6,16(sp)
  a6:	d606                	sw	ra,44(sp)
  a8:	d226                	sw	s1,36(sp)
  aa:	d04a                	sw	s2,32(sp)
  ac:	ce4e                	sw	s3,28(sp)
  ae:	cc52                	sw	s4,24(sp)
  b0:	ca56                	sw	s5,20(sp)
  b2:	842a                	mv	s0,a0
  b4:	4b01                	li	s6,0
  b6:	00055563          	bgez	a0,c0 <printNum+0x20>
  ba:	40a00433          	neg	s0,a0
  be:	4b05                	li	s6,1
  c0:	4901                	li	s2,0
  c2:	00410993          	addi	s3,sp,4
  c6:	4aa5                	li	s5,9
  c8:	45a9                	li	a1,10
  ca:	8522                	mv	a0,s0
  cc:	20e5                	jal	1b4 <__modsi3>
  ce:	84ca                	mv	s1,s2
  d0:	0905                	addi	s2,s2,1
  d2:	01298a33          	add	s4,s3,s2
  d6:	03050513          	addi	a0,a0,48
  da:	feaa0fa3          	sb	a0,-1(s4)
  de:	45a9                	li	a1,10
  e0:	8522                	mv	a0,s0
  e2:	8a22                	mv	s4,s0
  e4:	20b1                	jal	130 <__divsi3>
  e6:	842a                	mv	s0,a0
  e8:	ff4ac0e3          	blt	s5,s4,c8 <printNum+0x28>
  ec:	000b0963          	beqz	s6,fe <printNum+0x5e>
  f0:	002907b3          	add	a5,s2,sp
  f4:	02d00713          	li	a4,45
  f8:	84ca                	mv	s1,s2
  fa:	00e78223          	sb	a4,4(a5)
  fe:	009987b3          	add	a5,s3,s1
 102:	00030637          	lui	a2,0x30
 106:	0007c683          	lbu	a3,0(a5)
 10a:	873e                	mv	a4,a5
 10c:	17fd                	addi	a5,a5,-1
 10e:	00d60023          	sb	a3,0(a2) # 30000 <__heap_start+0x2f000>
 112:	fee99ae3          	bne	s3,a4,106 <printNum+0x66>
 116:	47a9                	li	a5,10
 118:	00f60023          	sb	a5,0(a2)
 11c:	50b2                	lw	ra,44(sp)
 11e:	5422                	lw	s0,40(sp)
 120:	5492                	lw	s1,36(sp)
 122:	5902                	lw	s2,32(sp)
 124:	49f2                	lw	s3,28(sp)
 126:	4a62                	lw	s4,24(sp)
 128:	4ad2                	lw	s5,20(sp)
 12a:	4b42                	lw	s6,16(sp)
 12c:	6145                	addi	sp,sp,48
 12e:	8082                	ret

00000130 <__divsi3>:
 130:	06054063          	bltz	a0,190 <__umodsi3+0x10>
 134:	0605c663          	bltz	a1,1a0 <__umodsi3+0x20>

00000138 <__hidden___udivsi3>:
 138:	00058613          	mv	a2,a1
 13c:	00050593          	mv	a1,a0
 140:	fff00513          	li	a0,-1
 144:	02060c63          	beqz	a2,17c <__hidden___udivsi3+0x44>
 148:	00100693          	li	a3,1
 14c:	00b67a63          	bgeu	a2,a1,160 <__hidden___udivsi3+0x28>
 150:	00c05863          	blez	a2,160 <__hidden___udivsi3+0x28>
 154:	00161613          	slli	a2,a2,0x1
 158:	00169693          	slli	a3,a3,0x1
 15c:	feb66ae3          	bltu	a2,a1,150 <__hidden___udivsi3+0x18>
 160:	00000513          	li	a0,0
 164:	00c5e663          	bltu	a1,a2,170 <__hidden___udivsi3+0x38>
 168:	40c585b3          	sub	a1,a1,a2
 16c:	00d56533          	or	a0,a0,a3
 170:	0016d693          	srli	a3,a3,0x1
 174:	00165613          	srli	a2,a2,0x1
 178:	fe0696e3          	bnez	a3,164 <__hidden___udivsi3+0x2c>
 17c:	00008067          	ret

00000180 <__umodsi3>:
 180:	00008293          	mv	t0,ra
 184:	fb5ff0ef          	jal	138 <__hidden___udivsi3>
 188:	00058513          	mv	a0,a1
 18c:	00028067          	jr	t0
 190:	40a00533          	neg	a0,a0
 194:	00b04863          	bgtz	a1,1a4 <__umodsi3+0x24>
 198:	40b005b3          	neg	a1,a1
 19c:	f9dff06f          	j	138 <__hidden___udivsi3>
 1a0:	40b005b3          	neg	a1,a1
 1a4:	00008293          	mv	t0,ra
 1a8:	f91ff0ef          	jal	138 <__hidden___udivsi3>
 1ac:	40a00533          	neg	a0,a0
 1b0:	00028067          	jr	t0

000001b4 <__modsi3>:
 1b4:	00008293          	mv	t0,ra
 1b8:	0005ca63          	bltz	a1,1cc <__modsi3+0x18>
 1bc:	00054c63          	bltz	a0,1d4 <__modsi3+0x20>
 1c0:	f79ff0ef          	jal	138 <__hidden___udivsi3>
 1c4:	00058513          	mv	a0,a1
 1c8:	00028067          	jr	t0
 1cc:	40b005b3          	neg	a1,a1
 1d0:	fe0558e3          	bgez	a0,1c0 <__modsi3+0xc>
 1d4:	40a00533          	neg	a0,a0
 1d8:	f61ff0ef          	jal	138 <__hidden___udivsi3>
 1dc:	40b00533          	neg	a0,a1
 1e0:	00028067          	jr	t0

Disassembly of section .text.startup:

000001e4 <main>:
 1e4:	715d                	addi	sp,sp,-80
 1e6:	c4a2                	sw	s0,72(sp)
 1e8:	d85a                	sw	s6,48(sp)
 1ea:	36400b13          	li	s6,868
 1ee:	c686                	sw	ra,76(sp)
 1f0:	c2a6                	sw	s1,68(sp)
 1f2:	c0ca                	sw	s2,64(sp)
 1f4:	de4e                	sw	s3,60(sp)
 1f6:	dc52                	sw	s4,56(sp)
 1f8:	da56                	sw	s5,52(sp)
 1fa:	d65e                	sw	s7,44(sp)
 1fc:	d462                	sw	s8,40(sp)
 1fe:	d266                	sw	s9,36(sp)
 200:	d06a                	sw	s10,32(sp)
 202:	ce6e                	sw	s11,28(sp)
 204:	36400413          	li	s0,868
 208:	028b0713          	addi	a4,s6,40
 20c:	0d8b0613          	addi	a2,s6,216
 210:	37800693          	li	a3,888
 214:	fd870793          	addi	a5,a4,-40
 218:	c394                	sw	a3,0(a5)
 21a:	0791                	addi	a5,a5,4
 21c:	fee79ee3          	bne	a5,a4,218 <main+0x34>
 220:	02c78713          	addi	a4,a5,44
 224:	fec718e3          	bne	a4,a2,214 <main+0x30>
 228:	0a8b2503          	lw	a0,168(s6)
 22c:	57fd                	li	a5,-1
 22e:	0afb2c23          	sw	a5,184(s6)
 232:	0cfb2023          	sw	a5,192(s6)
 236:	0cfb2423          	sw	a5,200(s6)
 23a:	0cfb2823          	sw	a5,208(s6)
 23e:	3be1                	jal	16 <outl>
 240:	000307b7          	lui	a5,0x30
 244:	46a9                	li	a3,10
 246:	00d78023          	sb	a3,0(a5) # 30000 <__heap_start+0x2f000>
 24a:	03200613          	li	a2,50
 24e:	ff668793          	addi	a5,a3,-10
 252:	8722                	mv	a4,s0
 254:	c31c                	sw	a5,0(a4)
 256:	0785                	addi	a5,a5,1
 258:	0711                	addi	a4,a4,4
 25a:	fed79de3          	bne	a5,a3,254 <main+0x70>
 25e:	00a78693          	addi	a3,a5,10
 262:	02c40413          	addi	s0,s0,44
 266:	fec694e3          	bne	a3,a2,24e <main+0x6a>
 26a:	44002023          	sw	zero,1088(zero) # 440 <i>
 26e:	4601                	li	a2,0
 270:	00410c93          	addi	s9,sp,4
 274:	4ba9                	li	s7,10
 276:	4925                	li	s2,9
 278:	000309b7          	lui	s3,0x30
 27c:	42002e23          	sw	zero,1084(zero) # 43c <j>
 280:	4681                	li	a3,0
 282:	00161793          	slli	a5,a2,0x1
 286:	97b2                	add	a5,a5,a2
 288:	078a                	slli	a5,a5,0x2
 28a:	8f91                	sub	a5,a5,a2
 28c:	97b6                	add	a5,a5,a3
 28e:	078a                	slli	a5,a5,0x2
 290:	97da                	add	a5,a5,s6
 292:	4380                	lw	s0,0(a5)
 294:	4d01                	li	s10,0
 296:	0c044363          	bltz	s0,35c <main+0x178>
 29a:	4d81                	li	s11,0
 29c:	45a9                	li	a1,10
 29e:	8522                	mv	a0,s0
 2a0:	3f11                	jal	1b4 <__modsi3>
 2a2:	84ee                	mv	s1,s11
 2a4:	0d85                	addi	s11,s11,1
 2a6:	01bc8c33          	add	s8,s9,s11
 2aa:	03050513          	addi	a0,a0,48
 2ae:	feac0fa3          	sb	a0,-1(s8)
 2b2:	45a9                	li	a1,10
 2b4:	8522                	mv	a0,s0
 2b6:	8c22                	mv	s8,s0
 2b8:	3da5                	jal	130 <__divsi3>
 2ba:	842a                	mv	s0,a0
 2bc:	ff8940e3          	blt	s2,s8,29c <main+0xb8>
 2c0:	000d0963          	beqz	s10,2d2 <main+0xee>
 2c4:	002d87b3          	add	a5,s11,sp
 2c8:	02d00713          	li	a4,45
 2cc:	00e78223          	sb	a4,4(a5)
 2d0:	84ee                	mv	s1,s11
 2d2:	009c87b3          	add	a5,s9,s1
 2d6:	0007c603          	lbu	a2,0(a5)
 2da:	86be                	mv	a3,a5
 2dc:	17fd                	addi	a5,a5,-1
 2de:	00c98023          	sb	a2,0(s3) # 30000 <__heap_start+0x2f000>
 2e2:	fedc9ae3          	bne	s9,a3,2d6 <main+0xf2>
 2e6:	01798023          	sb	s7,0(s3)
 2ea:	43c02683          	lw	a3,1084(zero) # 43c <j>
 2ee:	44002603          	lw	a2,1088(zero) # 440 <i>
 2f2:	0685                	addi	a3,a3,1
 2f4:	42d02e23          	sw	a3,1084(zero) # 43c <j>
 2f8:	f8d955e3          	bge	s2,a3,282 <main+0x9e>
 2fc:	0605                	addi	a2,a2,1
 2fe:	44c02023          	sw	a2,1088(zero) # 440 <i>
 302:	478d                	li	a5,3
 304:	f6c7dce3          	bge	a5,a2,27c <main+0x98>
 308:	4501                	li	a0,0
 30a:	080b2023          	sw	zero,128(s6)
 30e:	3321                	jal	16 <outl>
 310:	080b2783          	lw	a5,128(s6)
 314:	5779                	li	a4,-2
 316:	01798023          	sb	s7,0(s3)
 31a:	078e                	slli	a5,a5,0x3
 31c:	0aeb2823          	sw	a4,176(s6)
 320:	97da                	add	a5,a5,s6
 322:	5759                	li	a4,-10
 324:	0ae7a823          	sw	a4,176(a5)
 328:	0b0b2503          	lw	a0,176(s6)
 32c:	31ed                	jal	16 <outl>
 32e:	0b8b2503          	lw	a0,184(s6)
 332:	01798023          	sb	s7,0(s3)
 336:	31c5                	jal	16 <outl>
 338:	01798023          	sb	s7,0(s3)
 33c:	40b6                	lw	ra,76(sp)
 33e:	4426                	lw	s0,72(sp)
 340:	4496                	lw	s1,68(sp)
 342:	4906                	lw	s2,64(sp)
 344:	59f2                	lw	s3,60(sp)
 346:	5a62                	lw	s4,56(sp)
 348:	5ad2                	lw	s5,52(sp)
 34a:	5b42                	lw	s6,48(sp)
 34c:	5bb2                	lw	s7,44(sp)
 34e:	5c22                	lw	s8,40(sp)
 350:	5c92                	lw	s9,36(sp)
 352:	5d02                	lw	s10,32(sp)
 354:	4df2                	lw	s11,28(sp)
 356:	4501                	li	a0,0
 358:	6161                	addi	sp,sp,80
 35a:	8082                	ret
 35c:	40800433          	neg	s0,s0
 360:	4d05                	li	s10,1
 362:	bf25                	j	29a <main+0xb6>
