
/app/testcase/fpga/pi.elf:     file format elf32-littleriscv


Disassembly of section .text:

00000000 <_start>:
   0:	00020137          	lui	sp,0x20
   4:	0ec000ef          	jal	f0 <main>
   8:	0ff00513          	li	a0,255
   c:	000306b7          	lui	a3,0x30
  10:	00a68223          	sb	a0,4(a3) # 30004 <__heap_start+0x2d004>
  14:	bfe5                	j	c <_start+0xc>
	...

00000018 <__mulsi3>:
  18:	00050613          	mv	a2,a0
  1c:	00000513          	li	a0,0
  20:	0015f693          	andi	a3,a1,1
  24:	00068463          	beqz	a3,2c <__mulsi3+0x14>
  28:	00c50533          	add	a0,a0,a2
  2c:	0015d593          	srli	a1,a1,0x1
  30:	00161613          	slli	a2,a2,0x1
  34:	fe0596e3          	bnez	a1,20 <__mulsi3+0x8>
  38:	00008067          	ret

0000003c <__divsi3>:
  3c:	06054063          	bltz	a0,9c <__umodsi3+0x10>
  40:	0605c663          	bltz	a1,ac <__umodsi3+0x20>

00000044 <__hidden___udivsi3>:
  44:	00058613          	mv	a2,a1
  48:	00050593          	mv	a1,a0
  4c:	fff00513          	li	a0,-1
  50:	02060c63          	beqz	a2,88 <__hidden___udivsi3+0x44>
  54:	00100693          	li	a3,1
  58:	00b67a63          	bgeu	a2,a1,6c <__hidden___udivsi3+0x28>
  5c:	00c05863          	blez	a2,6c <__hidden___udivsi3+0x28>
  60:	00161613          	slli	a2,a2,0x1
  64:	00169693          	slli	a3,a3,0x1
  68:	feb66ae3          	bltu	a2,a1,5c <__hidden___udivsi3+0x18>
  6c:	00000513          	li	a0,0
  70:	00c5e663          	bltu	a1,a2,7c <__hidden___udivsi3+0x38>
  74:	40c585b3          	sub	a1,a1,a2
  78:	00d56533          	or	a0,a0,a3
  7c:	0016d693          	srli	a3,a3,0x1
  80:	00165613          	srli	a2,a2,0x1
  84:	fe0696e3          	bnez	a3,70 <__hidden___udivsi3+0x2c>
  88:	00008067          	ret

0000008c <__umodsi3>:
  8c:	00008293          	mv	t0,ra
  90:	fb5ff0ef          	jal	44 <__hidden___udivsi3>
  94:	00058513          	mv	a0,a1
  98:	00028067          	jr	t0
  9c:	40a00533          	neg	a0,a0
  a0:	00b04863          	bgtz	a1,b0 <__umodsi3+0x24>
  a4:	40b005b3          	neg	a1,a1
  a8:	f9dff06f          	j	44 <__hidden___udivsi3>
  ac:	40b005b3          	neg	a1,a1
  b0:	00008293          	mv	t0,ra
  b4:	f91ff0ef          	jal	44 <__hidden___udivsi3>
  b8:	40a00533          	neg	a0,a0
  bc:	00028067          	jr	t0

000000c0 <__modsi3>:
  c0:	00008293          	mv	t0,ra
  c4:	0005ca63          	bltz	a1,d8 <__modsi3+0x18>
  c8:	00054c63          	bltz	a0,e0 <__modsi3+0x20>
  cc:	f79ff0ef          	jal	44 <__hidden___udivsi3>
  d0:	00058513          	mv	a0,a1
  d4:	00028067          	jr	t0
  d8:	40b005b3          	neg	a1,a1
  dc:	fe0558e3          	bgez	a0,cc <__modsi3+0xc>
  e0:	40a00533          	neg	a0,a0
  e4:	f61ff0ef          	jal	44 <__hidden___udivsi3>
  e8:	40b00533          	neg	a0,a1
  ec:	00028067          	jr	t0

Disassembly of section .text.startup:

000000f0 <main>:
  f0:	670d                	lui	a4,0x3
  f2:	715d                	addi	sp,sp,-80
  f4:	24c00793          	li	a5,588
  f8:	bc070713          	addi	a4,a4,-1088 # 2bc0 <f+0x2974>
  fc:	c686                	sw	ra,76(sp)
  fe:	c4a2                	sw	s0,72(sp)
 100:	c2a6                	sw	s1,68(sp)
 102:	c0ca                	sw	s2,64(sp)
 104:	de4e                	sw	s3,60(sp)
 106:	dc52                	sw	s4,56(sp)
 108:	da56                	sw	s5,52(sp)
 10a:	d85a                	sw	s6,48(sp)
 10c:	d65e                	sw	s7,44(sp)
 10e:	d462                	sw	s8,40(sp)
 110:	d266                	sw	s9,36(sp)
 112:	d06a                	sw	s10,32(sp)
 114:	ce6e                	sw	s11,28(sp)
 116:	973e                	add	a4,a4,a5
 118:	7d000693          	li	a3,2000
 11c:	c394                	sw	a3,0(a5)
 11e:	0791                	addi	a5,a5,4
 120:	fee79ee3          	bne	a5,a4,11c <main+0x2c>
 124:	6c85                	lui	s9,0x1
 126:	8b66                	mv	s6,s9
 128:	6b8d                	lui	s7,0x3
 12a:	e08b8b93          	addi	s7,s7,-504 # 2e08 <f+0x2bbc>
 12e:	aefc8c93          	addi	s9,s9,-1297 # aef <f+0x8a3>
 132:	5dfb0b13          	addi	s6,s6,1503
 136:	4c01                	li	s8,0
 138:	00410993          	addi	s3,sp,4 # 20004 <__heap_start+0x1d004>
 13c:	4a25                	li	s4,9
 13e:	00030ab7          	lui	s5,0x30
 142:	004ba783          	lw	a5,4(s7)
 146:	85da                	mv	a1,s6
 148:	8de6                	mv	s11,s9
 14a:	00279413          	slli	s0,a5,0x2
 14e:	943e                	add	s0,s0,a5
 150:	040e                	slli	s0,s0,0x3
 152:	8c1d                	sub	s0,s0,a5
 154:	0412                	slli	s0,s0,0x4
 156:	943e                	add	s0,s0,a5
 158:	0412                	slli	s0,s0,0x4
 15a:	8522                	mv	a0,s0
 15c:	3795                	jal	c0 <__modsi3>
 15e:	87aa                	mv	a5,a0
 160:	85da                	mv	a1,s6
 162:	8522                	mv	a0,s0
 164:	00fba223          	sw	a5,4(s7)
 168:	3dd1                	jal	3c <__divsi3>
 16a:	842a                	mv	s0,a0
 16c:	ffeb0913          	addi	s2,s6,-2
 170:	84de                	mv	s1,s7
 172:	85ee                	mv	a1,s11
 174:	8522                	mv	a0,s0
 176:	354d                	jal	18 <__mulsi3>
 178:	4098                	lw	a4,0(s1)
 17a:	85ca                	mv	a1,s2
 17c:	1dfd                	addi	s11,s11,-1
 17e:	00271413          	slli	s0,a4,0x2
 182:	943a                	add	s0,s0,a4
 184:	040e                	slli	s0,s0,0x3
 186:	8c19                	sub	s0,s0,a4
 188:	0412                	slli	s0,s0,0x4
 18a:	943a                	add	s0,s0,a4
 18c:	0412                	slli	s0,s0,0x4
 18e:	942a                	add	s0,s0,a0
 190:	8522                	mv	a0,s0
 192:	373d                	jal	c0 <__modsi3>
 194:	872a                	mv	a4,a0
 196:	85ca                	mv	a1,s2
 198:	8522                	mv	a0,s0
 19a:	c098                	sw	a4,0(s1)
 19c:	3545                	jal	3c <__divsi3>
 19e:	14f1                	addi	s1,s1,-4
 1a0:	1979                	addi	s2,s2,-2
 1a2:	842a                	mv	s0,a0
 1a4:	fc0d97e3          	bnez	s11,172 <main+0x82>
 1a8:	6589                	lui	a1,0x2
 1aa:	71058593          	addi	a1,a1,1808 # 2710 <f+0x24c4>
 1ae:	3579                	jal	3c <__divsi3>
 1b0:	018504b3          	add	s1,a0,s8
 1b4:	4901                	li	s2,0
 1b6:	0004d563          	bgez	s1,1c0 <main+0xd0>
 1ba:	409004b3          	neg	s1,s1
 1be:	4905                	li	s2,1
 1c0:	45a9                	li	a1,10
 1c2:	8526                	mv	a0,s1
 1c4:	3df5                	jal	c0 <__modsi3>
 1c6:	8c6e                	mv	s8,s11
 1c8:	0d85                	addi	s11,s11,1
 1ca:	01b98d33          	add	s10,s3,s11
 1ce:	03050513          	addi	a0,a0,48
 1d2:	fead0fa3          	sb	a0,-1(s10)
 1d6:	45a9                	li	a1,10
 1d8:	8526                	mv	a0,s1
 1da:	8d26                	mv	s10,s1
 1dc:	3585                	jal	3c <__divsi3>
 1de:	84aa                	mv	s1,a0
 1e0:	ffaa40e3          	blt	s4,s10,1c0 <main+0xd0>
 1e4:	00090963          	beqz	s2,1f6 <main+0x106>
 1e8:	002d8733          	add	a4,s11,sp
 1ec:	02d00793          	li	a5,45
 1f0:	00f70223          	sb	a5,4(a4)
 1f4:	8c6e                	mv	s8,s11
 1f6:	018987b3          	add	a5,s3,s8
 1fa:	0007c683          	lbu	a3,0(a5)
 1fe:	873e                	mv	a4,a5
 200:	17fd                	addi	a5,a5,-1
 202:	00da8023          	sb	a3,0(s5) # 30000 <__heap_start+0x2d000>
 206:	fee99ae3          	bne	s3,a4,1fa <main+0x10a>
 20a:	6589                	lui	a1,0x2
 20c:	8522                	mv	a0,s0
 20e:	71058593          	addi	a1,a1,1808 # 2710 <f+0x24c4>
 212:	357d                	jal	c0 <__modsi3>
 214:	1b11                	addi	s6,s6,-28
 216:	57fd                	li	a5,-1
 218:	1cc9                	addi	s9,s9,-14
 21a:	fc8b8b93          	addi	s7,s7,-56
 21e:	8c2a                	mv	s8,a0
 220:	f2fb11e3          	bne	s6,a5,142 <main+0x52>
 224:	47a9                	li	a5,10
 226:	00fa8023          	sb	a5,0(s5)
 22a:	40b6                	lw	ra,76(sp)
 22c:	4426                	lw	s0,72(sp)
 22e:	4496                	lw	s1,68(sp)
 230:	4906                	lw	s2,64(sp)
 232:	59f2                	lw	s3,60(sp)
 234:	5a62                	lw	s4,56(sp)
 236:	5ad2                	lw	s5,52(sp)
 238:	5b42                	lw	s6,48(sp)
 23a:	5bb2                	lw	s7,44(sp)
 23c:	5c22                	lw	s8,40(sp)
 23e:	5c92                	lw	s9,36(sp)
 240:	5d02                	lw	s10,32(sp)
 242:	4df2                	lw	s11,28(sp)
 244:	4501                	li	a0,0
 246:	6161                	addi	sp,sp,80
 248:	8082                	ret
