
/app/testcase/fpga/statement_test.elf:     file format elf32-littleriscv


Disassembly of section .text:

00000000 <_start>:
   0:	00020137          	lui	sp,0x20
   4:	0ec000ef          	jal	f0 <main>
   8:	0ff00513          	li	a0,255
   c:	000306b7          	lui	a3,0x30
  10:	00a68223          	sb	a0,4(a3) # 30004 <__heap_start+0x2f004>
  14:	bfe5                	j	c <_start+0xc>
	...

00000018 <__mulsi3>:
  18:	00050613          	mv	a2,a0
  1c:	00000513          	li	a0,0
  20:	0015f693          	andi	a3,a1,1
  24:	00068463          	beqz	a3,2c <__mulsi3+0x14>
  28:	00c50533          	add	a0,a0,a2
  2c:	0015d593          	srli	a1,a1,0x1
  30:	00161613          	slli	a2,a2,0x1
  34:	fe0596e3          	bnez	a1,20 <__mulsi3+0x8>
  38:	00008067          	ret

0000003c <__divsi3>:
  3c:	06054063          	bltz	a0,9c <__umodsi3+0x10>
  40:	0605c663          	bltz	a1,ac <__umodsi3+0x20>

00000044 <__hidden___udivsi3>:
  44:	00058613          	mv	a2,a1
  48:	00050593          	mv	a1,a0
  4c:	fff00513          	li	a0,-1
  50:	02060c63          	beqz	a2,88 <__hidden___udivsi3+0x44>
  54:	00100693          	li	a3,1
  58:	00b67a63          	bgeu	a2,a1,6c <__hidden___udivsi3+0x28>
  5c:	00c05863          	blez	a2,6c <__hidden___udivsi3+0x28>
  60:	00161613          	slli	a2,a2,0x1
  64:	00169693          	slli	a3,a3,0x1
  68:	feb66ae3          	bltu	a2,a1,5c <__hidden___udivsi3+0x18>
  6c:	00000513          	li	a0,0
  70:	00c5e663          	bltu	a1,a2,7c <__hidden___udivsi3+0x38>
  74:	40c585b3          	sub	a1,a1,a2
  78:	00d56533          	or	a0,a0,a3
  7c:	0016d693          	srli	a3,a3,0x1
  80:	00165613          	srli	a2,a2,0x1
  84:	fe0696e3          	bnez	a3,70 <__hidden___udivsi3+0x2c>
  88:	00008067          	ret

0000008c <__umodsi3>:
  8c:	00008293          	mv	t0,ra
  90:	fb5ff0ef          	jal	44 <__hidden___udivsi3>
  94:	00058513          	mv	a0,a1
  98:	00028067          	jr	t0
  9c:	40a00533          	neg	a0,a0
  a0:	00b04863          	bgtz	a1,b0 <__umodsi3+0x24>
  a4:	40b005b3          	neg	a1,a1
  a8:	f9dff06f          	j	44 <__hidden___udivsi3>
  ac:	40b005b3          	neg	a1,a1
  b0:	00008293          	mv	t0,ra
  b4:	f91ff0ef          	jal	44 <__hidden___udivsi3>
  b8:	40a00533          	neg	a0,a0
  bc:	00028067          	jr	t0

000000c0 <__modsi3>:
  c0:	00008293          	mv	t0,ra
  c4:	0005ca63          	bltz	a1,d8 <__modsi3+0x18>
  c8:	00054c63          	bltz	a0,e0 <__modsi3+0x20>
  cc:	f79ff0ef          	jal	44 <__hidden___udivsi3>
  d0:	00058513          	mv	a0,a1
  d4:	00028067          	jr	t0
  d8:	40b005b3          	neg	a1,a1
  dc:	fe0558e3          	bgez	a0,cc <__modsi3+0xc>
  e0:	40a00533          	neg	a0,a0
  e4:	f61ff0ef          	jal	44 <__hidden___udivsi3>
  e8:	40b00533          	neg	a0,a1
  ec:	00028067          	jr	t0

Disassembly of section .text.startup:

000000f0 <main>:
  f0:	7115                	addi	sp,sp,-224
  f2:	cf86                	sw	ra,220(sp)
  f4:	dd62                	sw	s8,184(sp)
  f6:	000306b7          	lui	a3,0x30
  fa:	4629                	li	a2,10
  fc:	a019                	j	102 <main+0x12>
  fe:	1ec71263          	bne	a4,a2,2e2 <main+0x1f2>
 102:	0006c783          	lbu	a5,0(a3) # 30000 <__heap_start+0x2f000>
 106:	0ff7f713          	zext.b	a4,a5
 10a:	fbf5                	bnez	a5,fe <main+0xe>
 10c:	4881                	li	a7,0
 10e:	4601                	li	a2,0
 110:	02d00593          	li	a1,45
 114:	4825                	li	a6,9
 116:	00030537          	lui	a0,0x30
 11a:	a819                	j	130 <main+0x40>
 11c:	18d86d63          	bltu	a6,a3,2b6 <main+0x1c6>
 120:	00054683          	lbu	a3,0(a0) # 30000 <__heap_start+0x2f000>
 124:	fd078613          	addi	a2,a5,-48
 128:	0ff6f713          	zext.b	a4,a3
 12c:	18068563          	beqz	a3,2b6 <main+0x1c6>
 130:	00261793          	slli	a5,a2,0x2
 134:	97b2                	add	a5,a5,a2
 136:	0786                	slli	a5,a5,0x1
 138:	fd070693          	addi	a3,a4,-48
 13c:	97ba                	add	a5,a5,a4
 13e:	0ff6f693          	zext.b	a3,a3
 142:	fcb71de3          	bne	a4,a1,11c <main+0x2c>
 146:	14088f63          	beqz	a7,2a4 <main+0x1b4>
 14a:	40c00633          	neg	a2,a2
 14e:	34c02623          	sw	a2,844(zero) # 34c <N>
 152:	8c32                	mv	s8,a2
 154:	14064363          	bltz	a2,29a <main+0x1aa>
 158:	db66                	sw	s9,180(sp)
 15a:	2f800c93          	li	s9,760
 15e:	004c8693          	addi	a3,s9,4
 162:	00261713          	slli	a4,a2,0x2
 166:	9736                	add	a4,a4,a3
 168:	2f800793          	li	a5,760
 16c:	4685                	li	a3,1
 16e:	c394                	sw	a3,0(a5)
 170:	0791                	addi	a5,a5,4
 172:	fee79ee3          	bne	a5,a4,16e <main+0x7e>
 176:	16c6de63          	bge	a3,a2,2f2 <main+0x202>
 17a:	008c8793          	addi	a5,s9,8
 17e:	c5d2                	sw	s4,200(sp)
 180:	c3d6                	sw	s5,196(sp)
 182:	df5e                	sw	s7,188(sp)
 184:	cda2                	sw	s0,216(sp)
 186:	cba6                	sw	s1,212(sp)
 188:	c9ca                	sw	s2,208(sp)
 18a:	c7ce                	sw	s3,204(sp)
 18c:	c1da                	sw	s6,192(sp)
 18e:	d96a                	sw	s10,176(sp)
 190:	d76e                	sw	s11,172(sp)
 192:	c63e                	sw	a5,12(sp)
 194:	03010b93          	addi	s7,sp,48 # 20030 <__heap_start+0x1f030>
 198:	4a09                	li	s4,2
 19a:	01c10a93          	addi	s5,sp,28
 19e:	47b2                	lw	a5,12(sp)
 1a0:	34802b03          	lw	s6,840(zero) # 348 <M>
 1a4:	439c                	lw	a5,0(a5)
 1a6:	10078f63          	beqz	a5,2c4 <main+0x1d4>
 1aa:	0b05                	addi	s6,s6,1
 1ac:	002b1793          	slli	a5,s6,0x2
 1b0:	978a                	add	a5,a5,sp
 1b2:	fffa0413          	addi	s0,s4,-1
 1b6:	35602423          	sw	s6,840(zero) # 348 <M>
 1ba:	0747a223          	sw	s4,100(a5)
 1be:	008ba023          	sw	s0,0(s7)
 1c2:	4481                	li	s1,0
 1c4:	05605c63          	blez	s6,21c <main+0x12c>
 1c8:	06810913          	addi	s2,sp,104
 1cc:	4985                	li	s3,1
 1ce:	a035                	j	1fa <main+0x10a>
 1d0:	0006a023          	sw	zero,0(a3)
 1d4:	35f5                	jal	c0 <__modsi3>
 1d6:	87aa                	mv	a5,a0
 1d8:	1038                	addi	a4,sp,40
 1da:	85a2                	mv	a1,s0
 1dc:	fff48513          	addi	a0,s1,-1
 1e0:	00ed0db3          	add	s11,s10,a4
 1e4:	0e078563          	beqz	a5,2ce <main+0x1de>
 1e8:	3d05                	jal	18 <__mulsi3>
 1ea:	00ada023          	sw	a0,0(s11)
 1ee:	0985                	addi	s3,s3,1
 1f0:	000ba403          	lw	s0,0(s7)
 1f4:	0911                	addi	s2,s2,4
 1f6:	033b4063          	blt	s6,s3,216 <main+0x126>
 1fa:	00092483          	lw	s1,0(s2)
 1fe:	85d2                	mv	a1,s4
 200:	8526                	mv	a0,s1
 202:	3d19                	jal	18 <__mulsi3>
 204:	87aa                	mv	a5,a0
 206:	00279d13          	slli	s10,a5,0x2
 20a:	85a6                	mv	a1,s1
 20c:	8552                	mv	a0,s4
 20e:	01ac86b3          	add	a3,s9,s10
 212:	fafc5fe3          	bge	s8,a5,1d0 <main+0xe0>
 216:	4481                	li	s1,0
 218:	0a044263          	bltz	s0,2bc <main+0x1cc>
 21c:	4981                	li	s3,0
 21e:	45a9                	li	a1,10
 220:	8522                	mv	a0,s0
 222:	3d79                	jal	c0 <__modsi3>
 224:	894e                	mv	s2,s3
 226:	0985                	addi	s3,s3,1
 228:	013a8b33          	add	s6,s5,s3
 22c:	03050513          	addi	a0,a0,48
 230:	feab0fa3          	sb	a0,-1(s6)
 234:	45a9                	li	a1,10
 236:	8522                	mv	a0,s0
 238:	3511                	jal	3c <__divsi3>
 23a:	8b22                	mv	s6,s0
 23c:	47a5                	li	a5,9
 23e:	842a                	mv	s0,a0
 240:	fd67cfe3          	blt	a5,s6,21e <main+0x12e>
 244:	c881                	beqz	s1,254 <main+0x164>
 246:	002987b3          	add	a5,s3,sp
 24a:	02d00713          	li	a4,45
 24e:	00e78e23          	sb	a4,28(a5)
 252:	894e                	mv	s2,s3
 254:	012a87b3          	add	a5,s5,s2
 258:	0007c683          	lbu	a3,0(a5)
 25c:	00030637          	lui	a2,0x30
 260:	873e                	mv	a4,a5
 262:	00d60023          	sb	a3,0(a2) # 30000 <__heap_start+0x2f000>
 266:	17fd                	addi	a5,a5,-1
 268:	feea98e3          	bne	s5,a4,258 <main+0x168>
 26c:	4729                	li	a4,10
 26e:	00e60023          	sb	a4,0(a2)
 272:	34c02c03          	lw	s8,844(zero) # 34c <N>
 276:	47b2                	lw	a5,12(sp)
 278:	0a05                	addi	s4,s4,1
 27a:	0b91                	addi	s7,s7,4
 27c:	0791                	addi	a5,a5,4
 27e:	c63e                	sw	a5,12(sp)
 280:	f14c5fe3          	bge	s8,s4,19e <main+0xae>
 284:	446e                	lw	s0,216(sp)
 286:	44de                	lw	s1,212(sp)
 288:	494e                	lw	s2,208(sp)
 28a:	49be                	lw	s3,204(sp)
 28c:	4a2e                	lw	s4,200(sp)
 28e:	4a9e                	lw	s5,196(sp)
 290:	4b0e                	lw	s6,192(sp)
 292:	5bfa                	lw	s7,188(sp)
 294:	5cda                	lw	s9,180(sp)
 296:	5d4a                	lw	s10,176(sp)
 298:	5dba                	lw	s11,172(sp)
 29a:	40fe                	lw	ra,220(sp)
 29c:	5c6a                	lw	s8,184(sp)
 29e:	4501                	li	a0,0
 2a0:	612d                	addi	sp,sp,224
 2a2:	8082                	ret
 2a4:	00054683          	lbu	a3,0(a0)
 2a8:	4885                	li	a7,1
 2aa:	fd078613          	addi	a2,a5,-48
 2ae:	0ff6f713          	zext.b	a4,a3
 2b2:	e6069fe3          	bnez	a3,130 <main+0x40>
 2b6:	e8088ce3          	beqz	a7,14e <main+0x5e>
 2ba:	bd41                	j	14a <main+0x5a>
 2bc:	40800433          	neg	s0,s0
 2c0:	4485                	li	s1,1
 2c2:	bfa9                	j	21c <main+0x12c>
 2c4:	000ba403          	lw	s0,0(s7)
 2c8:	f16040e3          	bgtz	s6,1c8 <main+0xd8>
 2cc:	b7a9                	j	216 <main+0x126>
 2ce:	8526                	mv	a0,s1
 2d0:	33a1                	jal	18 <__mulsi3>
 2d2:	00ada023          	sw	a0,0(s11)
 2d6:	000ba403          	lw	s0,0(s7)
 2da:	4481                	li	s1,0
 2dc:	f40450e3          	bgez	s0,21c <main+0x12c>
 2e0:	bff1                	j	2bc <main+0x1cc>
 2e2:	02000793          	li	a5,32
 2e6:	e0f70ee3          	beq	a4,a5,102 <main+0x12>
 2ea:	47a5                	li	a5,9
 2ec:	e0f70be3          	beq	a4,a5,102 <main+0x12>
 2f0:	bd31                	j	10c <main+0x1c>
 2f2:	5cda                	lw	s9,180(sp)
 2f4:	b75d                	j	29a <main+0x1aa>
