
/app/testcase/fpga/statement_test.elf:     file format elf32-littleriscv


Disassembly of section .text:

00000000 <_start>:
   0:	00020137          	lui	sp,0x20
   4:	0ec000ef          	jal	f0 <main>
   8:	0ff00513          	li	a0,255
   c:	000306b7          	lui	a3,0x30
  10:	00a68223          	sb	a0,4(a3) # 30004 <__heap_start+0x2f004>
  14:	bfe5                	j	c <_start+0xc>
	...

00000018 <__mulsi3>:
  18:	00050613          	mv	a2,a0
  1c:	00000513          	li	a0,0
  20:	0015f693          	andi	a3,a1,1
  24:	00068463          	beqz	a3,2c <__mulsi3+0x14>
  28:	00c50533          	add	a0,a0,a2
  2c:	0015d593          	srli	a1,a1,0x1
  30:	00161613          	slli	a2,a2,0x1
  34:	fe0596e3          	bnez	a1,20 <__mulsi3+0x8>
  38:	00008067          	ret

0000003c <__divsi3>:
  3c:	06054063          	bltz	a0,9c <__umodsi3+0x10>
  40:	0605c663          	bltz	a1,ac <__umodsi3+0x20>

00000044 <__hidden___udivsi3>:
  44:	00058613          	mv	a2,a1
  48:	00050593          	mv	a1,a0
  4c:	fff00513          	li	a0,-1
  50:	02060c63          	beqz	a2,88 <__hidden___udivsi3+0x44>
  54:	00100693          	li	a3,1
  58:	00b67a63          	bgeu	a2,a1,6c <__hidden___udivsi3+0x28>
  5c:	00c05863          	blez	a2,6c <__hidden___udivsi3+0x28>
  60:	00161613          	slli	a2,a2,0x1
  64:	00169693          	slli	a3,a3,0x1
  68:	feb66ae3          	bltu	a2,a1,5c <__hidden___udivsi3+0x18>
  6c:	00000513          	li	a0,0
  70:	00c5e663          	bltu	a1,a2,7c <__hidden___udivsi3+0x38>
  74:	40c585b3          	sub	a1,a1,a2
  78:	00d56533          	or	a0,a0,a3
  7c:	0016d693          	srli	a3,a3,0x1
  80:	00165613          	srli	a2,a2,0x1
  84:	fe0696e3          	bnez	a3,70 <__hidden___udivsi3+0x2c>
  88:	00008067          	ret

0000008c <__umodsi3>:
  8c:	00008293          	mv	t0,ra
  90:	fb5ff0ef          	jal	44 <__hidden___udivsi3>
  94:	00058513          	mv	a0,a1
  98:	00028067          	jr	t0
  9c:	40a00533          	neg	a0,a0
  a0:	00b04863          	bgtz	a1,b0 <__umodsi3+0x24>
  a4:	40b005b3          	neg	a1,a1
  a8:	f9dff06f          	j	44 <__hidden___udivsi3>
  ac:	40b005b3          	neg	a1,a1
  b0:	00008293          	mv	t0,ra
  b4:	f91ff0ef          	jal	44 <__hidden___udivsi3>
  b8:	40a00533          	neg	a0,a0
  bc:	00028067          	jr	t0

000000c0 <__modsi3>:
  c0:	00008293          	mv	t0,ra
  c4:	0005ca63          	bltz	a1,d8 <__modsi3+0x18>
  c8:	00054c63          	bltz	a0,e0 <__modsi3+0x20>
  cc:	f79ff0ef          	jal	44 <__hidden___udivsi3>
  d0:	00058513          	mv	a0,a1
  d4:	00028067          	jr	t0
  d8:	40b005b3          	neg	a1,a1
  dc:	fe0558e3          	bgez	a0,cc <__modsi3+0xc>
  e0:	40a00533          	neg	a0,a0
  e4:	f61ff0ef          	jal	44 <__hidden___udivsi3>
  e8:	40b00533          	neg	a0,a1
  ec:	00028067          	jr	t0

Disassembly of section .text.startup:

000000f0 <main>:
  f0:	7115                	addi	sp,sp,-224
  f2:	cf86                	sw	ra,220(sp)
  f4:	dd62                	sw	s8,184(sp)
  f6:	000306b7          	lui	a3,0x30
  fa:	4629                	li	a2,10
  fc:	a019                	j	102 <main+0x12>
  fe:	1ec71263          	bne	a4,a2,2e2 <main+0x1f2>
 102:	0006c783          	lbu	a5,0(a3) # 30000 <__heap_start+0x2f000>
 106:	0ff7f713          	zext.b	a4,a5
 10a:	fbf5                	bnez	a5,fe <main+0xe>
 10c:	4881                	li	a7,0
 10e:	4601                	li	a2,0
 110:	02d00593          	li	a1,45
 114:	4825                	li	a6,9
 116:	00030537          	lui	a0,0x30
 11a:	a819                	j	130 <main+0x40>
 11c:	18d86d63          	bltu	a6,a3,2b6 <main+0x1c6>
 120:	00054683          	lbu	a3,0(a0) # 30000 <__heap_start+0x2f000>
 124:	fd078613          	addi	a2,a5,-48
 128:	0ff6f713          	zext.b	a4,a3
 12c:	18068563          	beqz	a3,2b6 <main+0x1c6>
 130:	00261793          	slli	a5,a2,0x2
 134:	97b2                	add	a5,a5,a2
 136:	0786                	slli	a5,a5,0x1
 138:	fd070693          	addi	a3,a4,-48
 13c:	97ba                	add	a5,a5,a4
 13e:	0ff6f693          	zext.b	a3,a3
 142:	fcb71de3          	bne	a4,a1,11c <main+0x2c>
 146:	14088f63          	beqz	a7,2a4 <main+0x1b4>
 14a:	40c00633          	neg	a2,a2
 14e:	34c02623          	sw	a2,844(zero) # 34c <N>
 152:	8c32                	mv	s8,a2
 154:	14064363          	bltz	a2,29a <main+0x1aa>
 158:	db66                	sw	s9,180(sp)
 15a:	2f800c93          	li	s9,760
 15e:	004c8693          	addi	a3,s9,4
 162:	00261713          	slli	a4,a2,0x2
 166:	9736                	add	a4,a4,a3
 168:	2f800793          	li	a5,760
 16c:	4685                	li	a3,1
 16e:	c394                	sw	a3,0(a5)
 170:	0791                	addi	a5,a5,4
 172:	fee79ee3          	bne	a5,a4,16e <main+0x7e>
 176:	16c6de63          	bge	a3,a2,2f2 <main+0x202>
 17a:	008c8793          	addi	a5,s9,8
 17e:	c5d2                	sw	s4,200(sp)
 180:	c3d6                	sw	s5,196(sp)
 182:	df5e                	sw	s7,188(sp)
 184:	cda2                	sw	s0,216(sp)
 186:	cba6                	sw	s1,212(sp)
 188:	c9ca                	sw	s2,208(sp)
 18a:	c7ce                	sw	s3,204(sp)
 18c:	c1da                	sw	s6,192(sp)
 18e:	d96a                	sw	s10,176(sp)
 190:	d76e                	sw	s11,172(sp)
 192:	c63e                	sw	a5,12(sp)
 194:	03010b93          	addi	s7,sp,48 # 20030 <__heap_start+0x1f030>
 198:	4a09                	li	s4,2
 19a:	01c10a93          	addi	s5,sp,28
 19e:	47b2                	lw	a5,12(sp)
 1a0:	34802b03          	lw	s6,840(zero) # 348 <M>
 1a4:	439c                	lw	a5,0(a5)
 1a6:	10078f63          	beqz	a5,2c4 <main+0x1d4>
 1aa:	0b05                	addi	s6,s6,1
 1ac:	002b1793          	slli	a5,s6,0x2
 1b0:	978a                	add	a5,a5,sp
 1b2:	fffa0413          	addi	s0,s4,-1
 1b6:	35602423          	sw	s6,840(zero) # 348 <M>
 1ba:	0747a223          	sw	s4,100(a5)
 1be:	008ba023          	sw	s0,0(s7)
 1c2:	4481                	li	s1,0
 1c4:	05605c63          	blez	s6,21c <main+0x12c>
 1c8:	06810913          	addi	s2,sp,104
 1cc:	4985                	li	s3,1
 1ce:	a035                	j	1fa <main+0x10a>
 1d0:	0006a023          	sw	zero,0(a3)
 1d4:	35f5                	jal	c0 <__modsi3>
 1d6:	87aa                	mv	a5,a0
 1d8:	1038                	addi	a4,sp,40
 1da:	85a2                	mv	a1,s0
 1dc:	fff48513          	addi	a0,s1,-1
 1e0:	00ed0db3          	add	s11,s10,a4
 1e4:	0e078563          	beqz	a5,2ce <main+0x1de>
 1e8:	3d05                	jal	18 <__mulsi3>
 1ea:	00ada023          	sw	a0,0(s11)
 1ee:	0985                	addi	s3,s3,1
 1f0:	000ba403          	lw	s0,0(s7)
 1f4:	0911                	addi	s2,s2,4
 1f6:	033b4063          	blt	s6,s3,216 <main+0x126>
 1fa:	00092483          	lw	s1,0(s2)
 1fe:	85d2                	mv	a1,s4
 200:	8526                	mv	a0,s1
 202:	3d19                	jal	18 <__mulsi3>
 204:	87aa                	mv	a5,a0
 206:	00279d13          	slli	s10,a5,0x2
 20a:	85a6                	mv	a1,s1
 20c:	8552                	mv	a0,s4
 20e:	01ac86b3          	add	a3,s9,s10
 212:	fafc5fe3          	bge	s8,a5,1d0 <main+0xe0>
 216:	4481                	li	s1,0
 218:	0a044263          	bltz	s0,2bc <main+0x1cc>
 21c:	4981                	li	s3,0
 21e:	45a9                	li	a1,10
 220:	8522                	mv	a0,s0
 222:	3d79                	jal	c0 <__modsi3>
 224:	894e                	mv	s2,s3
 226:	0985                	addi	s3,s3,1
 228:	013a8b33          	add	s6,s5,s3
 22c:	03050513          	addi	a0,a0,48
 230:	feab0fa3          	sb	a0,-1(s6)
 234:	45a9                	li	a1,10
 236:	8522                	mv	a0,s0
 238:	3511                	jal	3c <__divsi3>
 23a:	8b22                	mv	s6,s0
 23c:	47a5                	li	a5,9
 23e:	842a                	mv	s0,a0
 240:	fd67cfe3          	blt	a5,s6,21e <main+0x12e>
 244:	c881                	beqz	s1,254 <main+0x164>
 246:	002987b3          	add	a5,s3,sp
 24a:	02d00713          	li	a4,45
 24e:	00e78e23          	sb	a4,28(a5)
 252:	894e                	mv	s2,s3
 254:	012a87b3          	add	a5,s5,s2
 258:	0007c683          	lbu	a3,0(a5)
 25c:	00030637          	lui	a2,0x30
 260:	873e                	mv	a4,a5
 262:	00d60023          	sb	a3,0(a2) # 30000 <__heap_start+0x2f000>
 266:	17fd                	addi	a5,a5,-1
 268:	feea98e3          	bne	s5,a4,258 <main+0x168>
 26c:	4729                	li	a4,10
 26e:	00e60023          	sb	a4,0(a2)
 272:	34c02c03          	lw	s8,844(zero) # 34c <N>
 276:	47b2                	lw	a5,12(sp)
 278:	0a05                	addi	s4,s4,1
 27a:	0b91                	addi	s7,s7,4
 27c:	0791                	addi	a5,a5,4
 27e:	c63e                	sw	a5,12(sp)
 280:	f14c5fe3          	bge	s8,s4,19e <main+0xae>
 284:	446e                	lw	s0,216(sp)
 286:	44de                	lw	s1,212(sp)
 288:	494e                	lw	s2,208(sp)
 28a:	49be                	lw	s3,204(sp)
 28c:	4a2e                	lw	s4,200(sp)
 28e:	4a9e                	lw	s5,196(sp)
 290:	4b0e                	lw	s6,192(sp)
 292:	5bfa                	lw	s7,188(sp)
 294:	5cda                	lw	s9,180(sp)
 296:	5d4a                	lw	s10,176(sp)
 298:	5dba                	lw	s11,172(sp)
 29a:	40fe                	lw	ra,220(sp)
 29c:	5c6a                	lw	s8,184(sp)
 29e:	4501                	li	a0,0
 2a0:	612d                	addi	sp,sp,224
 2a2:	8082                	ret
 2a4:	00054683          	lbu	a3,0(a0)
 2a8:	4885                	li	a7,1
 2aa:	fd078613          	addi	a2,a5,-48
 2ae:	0ff6f713          	zext.b	a4,a3
 2b2:	e6069fe3          	bnez	a3,130 <main+0x40>
 2b6:	e8088ce3          	beqz	a7,14e <main+0x5e>
 2ba:	bd41                	j	14a <main+0x5a>
 2bc:	40800433          	neg	s0,s0
 2c0:	4485                	li	s1,1
 2c2:	bfa9                	j	21c <main+0x12c>
 2c4:	000ba403          	lw	s0,0(s7)
 2c8:	f16040e3          	bgtz	s6,1c8 <main+0xd8>
 2cc:	b7a9                	j	216 <main+0x126>
 2ce:	8526                	mv	a0,s1
 2d0:	33a1                	jal	18 <__mulsi3>
 2d2:	00ada023          	sw	a0,0(s11)
 2d6:	000ba403          	lw	s0,0(s7)
 2da:	4481                	li	s1,0
 2dc:	f40450e3          	bgez	s0,21c <main+0x12c>
 2e0:	bff1                	j	2bc <main+0x1cc>
 2e2:	02000793          	li	a5,32
 2e6:	e0f70ee3          	beq	a4,a5,102 <main+0x12>
 2ea:	47a5                	li	a5,9
 2ec:	e0f70be3          	beq	a4,a5,102 <main+0x12>
 2f0:	bd31                	j	10c <main+0x1c>
 2f2:	5cda                	lw	s9,180(sp)
 2f4:	b75d                	j	29a <main+0x1aa>

Disassembly of section .riscv.attributes:

00000000 <.riscv.attributes>:
   0:	2041                	jal	80 <__hidden___udivsi3+0x3c>
   2:	0000                	unimp
   4:	7200                	.insn	2, 0x7200
   6:	7369                	lui	t1,0xffffa
   8:	01007663          	bgeu	zero,a6,14 <_start+0x14>
   c:	0016                	c.slli	zero,0x5
   e:	0000                	unimp
  10:	1004                	addi	s1,sp,32
  12:	7205                	lui	tp,0xfffe1
  14:	3376                	.insn	2, 0x3376
  16:	6932                	.insn	2, 0x6932
  18:	7032                	.insn	2, 0x7032
  1a:	5f31                	li	t5,-20
  1c:	30703263          	.insn	4, 0x30703263
	...

Disassembly of section .comment:

00000000 <.comment>:
   0:	3a434347          	.insn	4, 0x3a434347
   4:	2820                	.insn	2, 0x2820
   6:	7241                	lui	tp,0xffff0
   8:	4c206863          	bltu	zero,sp,4d8 <N+0x18c>
   c:	6e69                	lui	t3,0x1a
   e:	7875                	lui	a6,0xffffd
  10:	5220                	lw	s0,96(a2)
  12:	7065                	c.lui	zero,0xffff9
  14:	7469736f          	jal	t1,9775a <__heap_start+0x9675a>
  18:	6569726f          	jal	tp,9766e <__heap_start+0x9666e>
  1c:	31202973          	.insn	4, 0x31202973
  20:	2e34                	.insn	2, 0x2e34
  22:	2e31                	jal	33e <check+0x46>
  24:	0030                	addi	a2,sp,8

Disassembly of section .debug_info:

00000000 <.debug_info>:
   0:	00000317          	auipc	t1,0x0
   4:	0005                	c.nop	1
   6:	0401                	addi	s0,s0,0
   8:	0000                	unimp
   a:	0000                	unimp
   c:	00005813          	srli	a6,zero,0x0
  10:	1d00                	addi	s0,sp,688
  12:	000e                	c.slli	zero,0x3
  14:	0000                	unimp
  16:	0000                	unimp
  18:	0000                	unimp
  1a:	0121                	addi	sp,sp,8
	...
  24:	0000                	unimp
  26:	4e0d                	li	t3,3
  28:	1000                	addi	s0,sp,32
  2a:	0034                	addi	a3,sp,8
  2c:	0000                	unimp
  2e:	0305                	addi	t1,t1,1 # 1 <_start+0x1>
  30:	034c                	addi	a1,sp,388
  32:	0000                	unimp
  34:	0414                	addi	a3,sp,512
  36:	6905                	lui	s2,0x1
  38:	746e                	.insn	2, 0x746e
  3a:	0500                	addi	s0,sp,640
  3c:	0034                	addi	a3,sp,8
  3e:	0000                	unimp
  40:	4d0d                	li	s10,3
  42:	1100                	addi	s0,sp,160
  44:	0034                	addi	a3,sp,8
  46:	0000                	unimp
  48:	0305                	addi	t1,t1,1
  4a:	0348                	addi	a0,sp,388
  4c:	0000                	unimp
  4e:	3406                	.insn	2, 0x3406
  50:	0000                	unimp
  52:	5e00                	lw	s0,56(a2)
  54:	0000                	unimp
  56:	0700                	addi	s0,sp,896
  58:	005e                	c.slli	zero,0x17
  5a:	0000                	unimp
  5c:	04080013          	addi	zero,a6,64 # ffffd040 <__heap_start+0xffffc040>
  60:	00001207          	.insn	4, 0x1207
  64:	0500                	addi	s0,sp,640
  66:	005e                	c.slli	zero,0x17
  68:	0000                	unimp
  6a:	0015                	c.nop	5
  6c:	0000                	unimp
  6e:	0100                	addi	s0,sp,128
  70:	0512                	slli	a0,a0,0x4
  72:	004e                	c.slli	zero,0x13
  74:	0000                	unimp
  76:	0305                	addi	t1,t1,1
  78:	02f8                	addi	a4,sp,332
  7a:	0000                	unimp
  7c:	3c16                	.insn	2, 0x3c16
  7e:	0000                	unimp
  80:	0100                	addi	s0,sp,128
  82:	0514                	addi	a3,sp,640
  84:	0034                	addi	a3,sp,8
  86:	0000                	unimp
  88:	00f0                	addi	a2,sp,76
  8a:	0000                	unimp
  8c:	0206                	slli	tp,tp,0x1
  8e:	0000                	unimp
  90:	9c01                	.insn	2, 0x9c01
  92:	021c                	addi	a5,sp,256
  94:	0000                	unimp
  96:	6909                	lui	s2,0x2
  98:	1600                	addi	s0,sp,800
  9a:	3406                	.insn	2, 0x3406
  9c:	0000                	unimp
  9e:	0c00                	addi	s0,sp,528
  a0:	0000                	unimp
  a2:	0e00                	addi	s0,sp,784
  a4:	6870                	.insn	2, 0x6870
  a6:	0069                	c.nop	26
  a8:	1c18                	addi	a4,sp,560
  aa:	0002                	c.slli64	zero
  ac:	0300                	addi	s0,sp,384
  ae:	c891                	beqz	s1,c2 <__modsi3+0x2>
  b0:	0e7e                	slli	t3,t3,0x1f
  b2:	0050                	addi	a2,sp,4
  b4:	1c19                	addi	s8,s8,-26
  b6:	0002                	c.slli64	zero
  b8:	0300                	addi	s0,sp,384
  ba:	8491                	srai	s1,s1,0x4
  bc:	0f7f 007b 0000 01cb 	.insn	10, 0x01cb0000007b0f7f
  c4:	0000 
  c6:	6b01                	.insn	2, 0x6b01
  c8:	0100                	addi	s0,sp,128
  ca:	0721                	addi	a4,a4,8
  cc:	0034                	addi	a3,sp,8
  ce:	0000                	unimp
  d0:	6909                	lui	s2,0x2
  d2:	2200                	.insn	2, 0x2200
  d4:	00003407          	.insn	4, 0x3407
  d8:	5d00                	lw	s0,56(a0)
  da:	0000                	unimp
  dc:	0f00                	addi	s0,sp,912
  de:	00fc                	addi	a5,sp,76
  e0:	0000                	unimp
  e2:	0111                	addi	sp,sp,4
  e4:	0000                	unimp
  e6:	7409                	lui	s0,0xfffe2
  e8:	706d                	c.lui	zero,0xffffb
  ea:	2400                	.insn	2, 0x2400
  ec:	3408                	.insn	2, 0x3408
  ee:	0000                	unimp
  f0:	8c00                	.insn	2, 0x8c00
  f2:	0000                	unimp
  f4:	0200                	addi	s0,sp,256
  f6:	01d6                	slli	gp,gp,0x15
  f8:	0000                	unimp
  fa:	02ff 0000 ea02 0001 	.insn	10, 0x08000001ea02000002ff
 102:	0800 
 104:	02000003          	lb	zero,32(zero) # 20 <__mulsi3+0x8>
 108:	02d2                	slli	t0,t0,0x14
 10a:	0000                	unimp
 10c:	0308                	addi	a0,sp,384
 10e:	0000                	unimp
 110:	1000                	addi	s0,sp,32
 112:	022c                	addi	a1,sp,264
 114:	0000                	unimp
 116:	01c2                	slli	gp,gp,0x10
 118:	0000                	unimp
 11a:	00b2                	slli	ra,ra,0xc
 11c:	0000                	unimp
 11e:	2f01                	jal	82e <N+0x4e2>
 120:	0001c103          	lbu	sp,0(gp)
 124:	0400                	addi	s0,sp,512
 126:	0236                	slli	tp,tp,0xd
 128:	0000                	unimp
 12a:	000000a3          	sb	zero,1(zero) # 1 <_start+0x1>
 12e:	4210                	lw	a2,0(a2)
 130:	0002                	c.slli64	zero
 132:	c200                	sw	s0,0(a2)
 134:	0001                	nop
 136:	d700                	sw	s0,40(a4)
 138:	0000                	unimp
 13a:	0200                	addi	s0,sp,256
 13c:	01a60553          	.insn	4, 0x01a60553
 140:	0000                	unimp
 142:	4c04                	lw	s1,24(s0)
 144:	0002                	c.slli64	zero
 146:	a300                	.insn	2, 0xa300
 148:	0000                	unimp
 14a:	1100                	addi	s0,sp,160
 14c:	000000d7          	.insn	4, 0x00d7
 150:	00025717          	auipc	a4,0x25
 154:	0300                	addi	s0,sp,384
 156:	bc91                	j	fffffbaa <__heap_start+0xffffebaa>
 158:	037e                	slli	t1,t1,0x1f
 15a:	00000263          	beqz	zero,15e <main+0x6e>
 15e:	00cc                	addi	a1,sp,68
 160:	0000                	unimp
 162:	00026f03          	.insn	4, 0x00026f03
 166:	0b00                	addi	s0,sp,400
 168:	0001                	nop
 16a:	0300                	addi	s0,sp,384
 16c:	0279                	addi	tp,tp,30 # ffff001e <__heap_start+0xfffef01e>
 16e:	0000                	unimp
 170:	0168                	addi	a0,sp,140
 172:	0000                	unimp
 174:	dc18                	sw	a4,56(s0)
 176:	0002                	c.slli64	zero
 178:	5c00                	lw	s0,56(s0)
 17a:	0002                	c.slli64	zero
 17c:	0a00                	addi	s0,sp,272
 17e:	0000                	unimp
 180:	0200                	addi	s0,sp,256
 182:	0941                	addi	s2,s2,16 # 2010 <__heap_start+0x1010>
 184:	0192                	slli	gp,gp,0x4
 186:	0000                	unimp
 188:	e604                	.insn	2, 0xe604
 18a:	0002                	c.slli64	zero
 18c:	9800                	.insn	2, 0x9800
 18e:	0001                	nop
 190:	0000                	unimp
 192:	2402                	.insn	2, 0x2402
 194:	0002                	c.slli64	zero
 196:	ff00                	.insn	2, 0xff00
 198:	0002                	c.slli64	zero
 19a:	0200                	addi	s0,sp,256
 19c:	023a                	slli	tp,tp,0xe
 19e:	0000                	unimp
 1a0:	0311                	addi	t1,t1,4
 1a2:	0000                	unimp
 1a4:	0000                	unimp
 1a6:	dc19                	beqz	s0,c4 <__modsi3+0x4>
 1a8:	0002                	c.slli64	zero
 1aa:	6c00                	.insn	2, 0x6c00
 1ac:	0002                	c.slli64	zero
 1ae:	0600                	addi	s0,sp,768
 1b0:	0000                	unimp
 1b2:	0200                	addi	s0,sp,256
 1b4:	0254                	addi	a3,sp,260
 1b6:	e604                	.insn	2, 0xe604
 1b8:	0002                	c.slli64	zero
 1ba:	a500                	.insn	2, 0xa500
 1bc:	0001                	nop
 1be:	0000                	unimp
 1c0:	0200                	addi	s0,sp,256
 1c2:	0204                	addi	s1,sp,256
 1c4:	0000                	unimp
 1c6:	0308                	addi	a0,sp,384
 1c8:	0000                	unimp
 1ca:	1a00                	addi	s0,sp,304
 1cc:	02a0                	addi	s0,sp,328
 1ce:	0000                	unimp
 1d0:	00f0                	addi	a2,sp,76
 1d2:	0000                	unimp
 1d4:	000c                	.insn	2, 0x000c
 1d6:	0000                	unimp
 1d8:	1501                	addi	a0,a0,-32
 1da:	1109                	addi	sp,sp,-30
 1dc:	000c                	.insn	2, 0x000c
 1de:	0000                	unimp
 1e0:	0002b103          	.insn	4, 0x0002b103
 1e4:	b200                	.insn	2, 0xb200
 1e6:	0001                	nop
 1e8:	0300                	addi	s0,sp,384
 1ea:	02bd                	addi	t0,t0,15
 1ec:	0000                	unimp
 1ee:	01e1                	addi	gp,gp,24
 1f0:	0000                	unimp
 1f2:	0002c803          	lbu	a6,0(t0)
 1f6:	0e00                	addi	s0,sp,784
 1f8:	0002                	c.slli64	zero
 1fa:	1200                	addi	s0,sp,288
 1fc:	02f2                	slli	t0,t0,0x1c
 1fe:	0000                	unimp
 200:	00f6                	slli	ra,ra,0x1d
 202:	0000                	unimp
 204:	003a                	c.slli	zero,0xe
 206:	0000                	unimp
 208:	101c                	addi	a5,sp,32
 20a:	f212                	.insn	2, 0xf212
 20c:	0002                	c.slli64	zero
 20e:	1600                	addi	s0,sp,800
 210:	0001                	nop
 212:	4d00                	lw	s0,24(a0)
 214:	0000                	unimp
 216:	2100                	.insn	2, 0x2100
 218:	0011                	c.nop	4
 21a:	0000                	unimp
 21c:	3406                	.insn	2, 0x3406
 21e:	0000                	unimp
 220:	2c00                	.insn	2, 0x2c00
 222:	0002                	c.slli64	zero
 224:	0700                	addi	s0,sp,896
 226:	005e                	c.slli	zero,0x17
 228:	0000                	unimp
 22a:	000e                	c.slli	zero,0x3
 22c:	060a                	slli	a2,a2,0x2
 22e:	0000                	unimp
 230:	5100                	lw	s0,32(a0)
 232:	0242                	slli	tp,tp,0x10
 234:	0000                	unimp
 236:	0000240b          	.insn	4, 0x240b
 23a:	5100                	lw	s0,32(a0)
 23c:	652e                	.insn	2, 0x652e
 23e:	0000                	unimp
 240:	0000                	unimp
 242:	290a                	.insn	2, 0x290a
 244:	0000                	unimp
 246:	3200                	.insn	2, 0x3200
 248:	0284                	addi	s1,sp,320
 24a:	0000                	unimp
 24c:	0000240b          	.insn	4, 0x240b
 250:	3200                	.insn	2, 0x3200
 252:	00003b23          	.insn	4, 0x3b23
 256:	0100                	addi	s0,sp,128
 258:	00727473          	.insn	4, 0x00727473
 25c:	3402                	.insn	2, 0x3402
 25e:	00028413          	mv	s0,t0
 262:	0100                	addi	s0,sp,128
 264:	6d74                	.insn	2, 0x6d74
 266:	0070                	addi	a2,sp,12
 268:	3502                	.insn	2, 0x3502
 26a:	3409                	jal	fffffc6c <__heap_start+0xffffec6c>
 26c:	0000                	unimp
 26e:	0100                	addi	s0,sp,128
 270:	0069                	c.nop	26
 272:	3602                	.insn	2, 0x3602
 274:	3409                	jal	fffffc76 <__heap_start+0xffffec76>
 276:	0000                	unimp
 278:	0100                	addi	s0,sp,128
 27a:	36020073          	.insn	4, 0x36020073
 27e:	340e                	.insn	2, 0x340e
 280:	0000                	unimp
 282:	0000                	unimp
 284:	9406                	add	s0,s0,ra
 286:	0002                	c.slli64	zero
 288:	9400                	.insn	2, 0x9400
 28a:	0002                	c.slli64	zero
 28c:	0700                	addi	s0,sp,896
 28e:	005e                	c.slli	zero,0x17
 290:	0000                	unimp
 292:	0108000b          	.insn	4, 0x0108000b
 296:	2e08                	.insn	2, 0x2e08
 298:	0000                	unimp
 29a:	0500                	addi	s0,sp,640
 29c:	0294                	addi	a3,sp,320
 29e:	0000                	unimp
 2a0:	6c6e691b          	.insn	4, 0x6c6e691b
 2a4:	0200                	addi	s0,sp,256
 2a6:	02d51d17          	auipc	s10,0x2d51
 2aa:	0000                	unimp
 2ac:	0002d503          	lhu	a0,0(t0)
 2b0:	0100                	addi	s0,sp,128
 2b2:	6572                	.insn	2, 0x6572
 2b4:	0074                	addi	a3,sp,12
 2b6:	1902                	slli	s2,s2,0x20
 2b8:	0002d513          	srli	a0,t0,0x0
 2bc:	0100                	addi	s0,sp,128
 2be:	02006863          	bltu	zero,zero,2ee <main+0x1fe>
 2c2:	131a                	slli	t1,t1,0x26
 2c4:	0294                	addi	a3,sp,320
 2c6:	0000                	unimp
 2c8:	411c                	lw	a5,0(a0)
 2ca:	0000                	unimp
 2cc:	0200                	addi	s0,sp,256
 2ce:	0034091b          	.insn	4, 0x0034091b
 2d2:	0000                	unimp
 2d4:	0800                	addi	s0,sp,16
 2d6:	0704                	addi	s1,sp,896
 2d8:	000d                	c.nop	3
 2da:	0000                	unimp
 2dc:	1f0a                	slli	t5,t5,0x22
 2de:	0000                	unimp
 2e0:	1200                	addi	s0,sp,288
 2e2:	02f2                	slli	t0,t0,0x1c
 2e4:	0000                	unimp
 2e6:	0000240b          	.insn	4, 0x240b
 2ea:	1200                	addi	s0,sp,288
 2ec:	9b2d                	andi	a4,a4,-21
 2ee:	0002                	c.slli64	zero
 2f0:	0000                	unimp
 2f2:	691d                	lui	s2,0x7
 2f4:	626e                	.insn	2, 0x626e
 2f6:	0200                	addi	s0,sp,256
 2f8:	1d0d                	addi	s10,s10,-29 # 2d51289 <__heap_start+0x2d50289>
 2fa:	0294                	addi	a3,sp,320
 2fc:	0000                	unimp
 2fe:	00a50c03          	lb	s8,10(a0)
 302:	0000                	unimp
 304:	00a5                	addi	ra,ra,9
 306:	0000                	unimp
 308:	4f0c                	lw	a1,24(a4)
 30a:	0000                	unimp
 30c:	4f00                	lw	s0,24(a4)
 30e:	0000                	unimp
 310:	0c00                	addi	s0,sp,528
 312:	0046                	c.slli	zero,0x11
 314:	0000                	unimp
 316:	0046                	c.slli	zero,0x11
 318:	0000                	unimp
 31a:	2b00                	.insn	2, 0x2b00
 31c:	0000                	unimp
 31e:	0500                	addi	s0,sp,640
 320:	0100                	addi	s0,sp,128
 322:	ae04                	.insn	2, 0xae04
 324:	0001                	nop
 326:	0100                	addi	s0,sp,128
 328:	0632                	slli	a2,a2,0xc
 32a:	0000                	unimp
 32c:	0018                	.insn	2, 0x0018
 32e:	0000                	unimp
 330:	ae24                	.insn	2, 0xae24
 332:	0000                	unimp
 334:	f100                	.insn	2, 0xf100
 336:	0000                	unimp
 338:	3500                	.insn	2, 0x3500
 33a:	0001                	nop
 33c:	0100                	addi	s0,sp,128
 33e:	0280                	addi	s0,sp,320
 340:	0000004f          	.insn	4, 0x004f
 344:	0018                	.insn	2, 0x0018
 346:	0000                	unimp
 348:	0024                	addi	s1,sp,8
 34a:	0055                	c.nop	21
 34c:	0000                	unimp
 34e:	0005                	c.nop	1
 350:	0401                	addi	s0,s0,0 # fffe2000 <__heap_start+0xfffe1000>
 352:	000001cf          	.insn	4, 0x01cf
 356:	ac01                	j	566 <N+0x21a>
 358:	0006                	c.slli	zero,0x1
 35a:	3c00                	.insn	2, 0x3c00
 35c:	0000                	unimp
 35e:	b400                	.insn	2, 0xb400
 360:	4101                	li	sp,0
 362:	0001                	nop
 364:	f100                	.insn	2, 0xf100
 366:	0000                	unimp
 368:	3500                	.insn	2, 0x3500
 36a:	0001                	nop
 36c:	0100                	addi	s0,sp,128
 36e:	0280                	addi	s0,sp,320
 370:	0046                	c.slli	zero,0x11
 372:	0000                	unimp
 374:	003c                	addi	a5,sp,8
 376:	0000                	unimp
 378:	0184                	addi	s1,sp,192
 37a:	8a02                	jr	s4
 37c:	0001                	nop
 37e:	4400                	lw	s0,8(s0)
 380:	0000                	unimp
 382:	4800                	lw	s0,16(s0)
 384:	8102                	jr	sp
 386:	0001                	nop
 388:	4400                	lw	s0,8(s0)
 38a:	0000                	unimp
 38c:	4800                	lw	s0,16(s0)
 38e:	9402                	jalr	s0
 390:	0001                	nop
 392:	8c00                	.insn	2, 0x8c00
 394:	0000                	unimp
 396:	1000                	addi	s0,sp,32
 398:	a502                	.insn	2, 0xa502
 39a:	0000                	unimp
 39c:	c000                	sw	s0,0(s0)
 39e:	0000                	unimp
 3a0:	3000                	.insn	2, 0x3000
	...

Disassembly of section .debug_abbrev:

00000000 <.debug_abbrev>:
   0:	3401                	jal	fffffa00 <__heap_start+0xffffea00>
   2:	0300                	addi	s0,sp,384
   4:	3a08                	.insn	2, 0x3a08
   6:	390b3b0b          	.insn	4, 0x390b3b0b
   a:	0013490b          	.insn	4, 0x0013490b
   e:	0200                	addi	s0,sp,256
  10:	0048                	addi	a0,sp,4
  12:	017d                	addi	sp,sp,31
  14:	0000137f 31003403 	.insn	12, 0x00170213310034030000137f
  1c:	00170213 
  20:	0400                	addi	s0,sp,512
  22:	0005                	c.nop	1
  24:	1331                	addi	t1,t1,-20
  26:	1702                	slli	a4,a4,0x20
  28:	0000                	unimp
  2a:	2605                	jal	34a <M+0x2>
  2c:	4900                	lw	s0,16(a0)
  2e:	06000013          	li	zero,96
  32:	0101                	addi	sp,sp,0
  34:	1349                	addi	t1,t1,-14
  36:	1301                	addi	t1,t1,-32
  38:	0000                	unimp
  3a:	49002107          	.insn	4, 0x49002107
  3e:	000b2f13          	slti	t5,s6,0
  42:	0800                	addi	s0,sp,16
  44:	0024                	addi	s1,sp,8
  46:	0b3e0b0b          	.insn	4, 0x0b3e0b0b
  4a:	00000e03          	lb	t3,0(zero) # 0 <_start>
  4e:	3409                	jal	fffffa50 <__heap_start+0xffffea50>
  50:	0300                	addi	s0,sp,384
  52:	3a08                	.insn	2, 0x3a08
  54:	0121                	addi	sp,sp,8
  56:	0b390b3b          	.insn	4, 0x0b390b3b
  5a:	1349                	addi	t1,t1,-14
  5c:	1702                	slli	a4,a4,0x20
  5e:	0000                	unimp
  60:	2e0a                	.insn	2, 0x2e0a
  62:	0301                	addi	t1,t1,0
  64:	3a0e                	.insn	2, 0x3a0e
  66:	0221                	addi	tp,tp,8 # 8 <_start+0x8>
  68:	21390b3b          	.insn	4, 0x21390b3b
  6c:	2714                	.insn	2, 0x2714
  6e:	2019                	jal	74 <__hidden___udivsi3+0x30>
  70:	0321                	addi	t1,t1,8
  72:	1301                	addi	t1,t1,-32
  74:	0000                	unimp
  76:	0300050b          	.insn	4, 0x0300050b
  7a:	3a0e                	.insn	2, 0x3a0e
  7c:	0221                	addi	tp,tp,8 # 8 <_start+0x8>
  7e:	0b390b3b          	.insn	4, 0x0b390b3b
  82:	1349                	addi	t1,t1,-14
  84:	0000                	unimp
  86:	2e0c                	.insn	2, 0x2e0c
  88:	3f00                	.insn	2, 0x3f00
  8a:	3c19                	jal	fffffaa0 <__heap_start+0xffffeaa0>
  8c:	6e19                	lui	t3,0x6
  8e:	030e                	slli	t1,t1,0x3
  90:	000e                	c.slli	zero,0x3
  92:	0d00                	addi	s0,sp,656
  94:	0034                	addi	a3,sp,8
  96:	213a0803          	lb	a6,531(s4)
  9a:	3b01                	jal	fffffdaa <__heap_start+0xffffedaa>
  9c:	0521390b          	.insn	4, 0x0521390b
  a0:	1349                	addi	t1,t1,-14
  a2:	1802193f 340e0000 	.insn	8, 0x340e00001802193f
  aa:	0300                	addi	s0,sp,384
  ac:	3a08                	.insn	2, 0x3a08
  ae:	0121                	addi	sp,sp,8
  b0:	21390b3b          	.insn	4, 0x21390b3b
  b4:	4906                	lw	s2,64(sp)
  b6:	00180213          	addi	tp,a6,1
  ba:	0f00                	addi	s0,sp,912
  bc:	1755010b          	.insn	4, 0x1755010b
  c0:	1301                	addi	t1,t1,-32
  c2:	0000                	unimp
  c4:	1d10                	addi	a2,sp,688
  c6:	3101                	jal	fffffcc6 <__heap_start+0xffffecc6>
  c8:	55015213          	.insn	4, 0x55015213
  cc:	590b5817          	auipc	a6,0x590b5
  d0:	010b570b          	.insn	4, 0x010b570b
  d4:	11000013          	li	zero,272
  d8:	1755010b          	.insn	4, 0x1755010b
  dc:	0000                	unimp
  de:	1d12                	slli	s10,s10,0x24
  e0:	3100                	.insn	2, 0x3100
  e2:	55015213          	.insn	4, 0x55015213
  e6:	02215817          	auipc	a6,0x2215
  ea:	0b59                	addi	s6,s6,22
  ec:	00000b57          	.insn	4, 0x0b57
  f0:	25011113          	.insn	4, 0x25011113
  f4:	130e                	slli	t1,t1,0x23
  f6:	1b1f030b          	.insn	4, 0x1b1f030b
  fa:	551f 1117 1001      	.insn	6, 0x10011117551f
 100:	14000017          	auipc	zero,0x14000
 104:	0024                	addi	s1,sp,8
 106:	0b3e0b0b          	.insn	4, 0x0b3e0b0b
 10a:	00000803          	lb	a6,0(zero) # 0 <_start>
 10e:	3415                	jal	fffffb32 <__heap_start+0xffffeb32>
 110:	0300                	addi	s0,sp,384
 112:	3a0e                	.insn	2, 0x3a0e
 114:	390b3b0b          	.insn	4, 0x390b3b0b
 118:	3f13490b          	.insn	4, 0x3f13490b
 11c:	0219                	addi	tp,tp,6 # 6 <_start+0x6>
 11e:	0018                	.insn	2, 0x0018
 120:	1600                	addi	s0,sp,800
 122:	012e                	slli	sp,sp,0xb
 124:	0e03193f 0b3b0b3a 	.insn	8, 0x0b3b0b3a0e03193f
 12c:	0b39                	addi	s6,s6,14
 12e:	1349                	addi	t1,t1,-14
 130:	0111                	addi	sp,sp,4
 132:	0612                	slli	a2,a2,0x4
 134:	1840                	addi	s0,sp,52
 136:	197a                	slli	s2,s2,0x3e
 138:	1301                	addi	t1,t1,-32
 13a:	0000                	unimp
 13c:	31003417          	auipc	s0,0x31003
 140:	00180213          	addi	tp,a6,1 # 22150e7 <__heap_start+0x22140e7>
 144:	1800                	addi	s0,sp,48
 146:	011d                	addi	sp,sp,7
 148:	1331                	addi	t1,t1,-20
 14a:	0111                	addi	sp,sp,4
 14c:	0612                	slli	a2,a2,0x4
 14e:	0b58                	addi	a4,sp,404
 150:	0b59                	addi	s6,s6,22
 152:	13010b57          	.insn	4, 0x13010b57
 156:	0000                	unimp
 158:	1d19                	addi	s10,s10,-26
 15a:	3101                	jal	fffffd5a <__heap_start+0xffffed5a>
 15c:	12011113          	.insn	4, 0x12011113
 160:	5806                	lw	a6,96(sp)
 162:	570b590b          	.insn	4, 0x570b590b
 166:	1a00000b          	.insn	4, 0x1a00000b
 16a:	011d                	addi	sp,sp,7
 16c:	1331                	addi	t1,t1,-20
 16e:	0152                	slli	sp,sp,0x14
 170:	1755                	addi	a4,a4,-11 # 25145 <__heap_start+0x24145>
 172:	0b58                	addi	a4,sp,404
 174:	0b59                	addi	s6,s6,22
 176:	00000b57          	.insn	4, 0x0b57
 17a:	03012e1b          	.insn	4, 0x03012e1b
 17e:	3a08                	.insn	2, 0x3a08
 180:	390b3b0b          	.insn	4, 0x390b3b0b
 184:	2013490b          	.insn	4, 0x2013490b
 188:	0013010b          	.insn	4, 0x0013010b
 18c:	1c00                	addi	s0,sp,560
 18e:	0034                	addi	a3,sp,8
 190:	0b3a0e03          	lb	t3,179(s4)
 194:	0b390b3b          	.insn	4, 0x0b390b3b
 198:	1349                	addi	t1,t1,-14
 19a:	0000                	unimp
 19c:	2e1d                	jal	4d2 <N+0x186>
 19e:	0300                	addi	s0,sp,384
 1a0:	3a08                	.insn	2, 0x3a08
 1a2:	390b3b0b          	.insn	4, 0x390b3b0b
 1a6:	2013490b          	.insn	4, 0x2013490b
 1aa:	0000000b          	.insn	4, 0x000b
 1ae:	1101                	addi	sp,sp,-32
 1b0:	1001                	c.nop	-32
 1b2:	12011117          	auipc	sp,0x12011
 1b6:	1b0e030f          	.insn	4, 0x1b0e030f
 1ba:	250e                	.insn	2, 0x250e
 1bc:	130e                	slli	t1,t1,0x23
 1be:	0005                	c.nop	1
 1c0:	0200                	addi	s0,sp,256
 1c2:	002e                	c.slli	zero,0xb
 1c4:	193f0e03          	lb	t3,403(t5)
 1c8:	0111                	addi	sp,sp,4 # 120111b6 <__heap_start+0x120101b6>
 1ca:	0f12                	slli	t5,t5,0x4
 1cc:	0000                	unimp
 1ce:	0100                	addi	s0,sp,128
 1d0:	0111                	addi	sp,sp,4
 1d2:	1710                	addi	a2,sp,928
 1d4:	0111                	addi	sp,sp,4
 1d6:	0f12                	slli	t5,t5,0x4
 1d8:	0e1b0e03          	lb	t3,225(s6)
 1dc:	0e25                	addi	t3,t3,9 # 6009 <__heap_start+0x5009>
 1de:	00000513          	li	a0,0
 1e2:	2e02                	.insn	2, 0x2e02
 1e4:	0300                	addi	s0,sp,384
 1e6:	3f0e                	.insn	2, 0x3f0e
 1e8:	1119                	addi	sp,sp,-26
 1ea:	1201                	addi	tp,tp,-32 # ffffffe0 <__heap_start+0xffffefe0>
 1ec:	0000000f          	fence	unknown,unknown

Disassembly of section .debug_loclists:

00000000 <.debug_loclists>:
   0:	0245                	addi	tp,tp,17 # 11 <_start+0x11>
   2:	0000                	unimp
   4:	0005                	c.nop	1
   6:	0004                	.insn	2, 0x0004
   8:	0000                	unimp
   a:	0000                	unimp
   c:	00015207          	.insn	4, 0x00015207
  10:	6e00                	.insn	2, 0x6e00
  12:	0001                	nop
  14:	0200                	addi	s0,sp,256
  16:	9f30                	.insn	2, 0x9f30
  18:	00017607          	.insn	4, 0x00017607
  1c:	9e00                	.insn	2, 0x9e00
  1e:	0001                	nop
  20:	0200                	addi	s0,sp,256
  22:	9f32                	add	t5,t5,a2
  24:	00019e07          	.insn	4, 0x00019e07
  28:	d000                	sw	s0,32(s0)
  2a:	0001                	nop
  2c:	0100                	addi	s0,sp,128
  2e:	0764                	addi	s1,sp,908
  30:	01d0                	addi	a2,sp,196
  32:	0000                	unimp
  34:	01d5                	addi	gp,gp,21
  36:	0000                	unimp
  38:	5a01                	li	s4,-32
  3a:	0001d507          	.insn	4, 0x0001d507
  3e:	8e00                	.insn	2, 0x8e00
  40:	0002                	c.slli64	zero
  42:	0100                	addi	s0,sp,128
  44:	0764                	addi	s1,sp,908
  46:	02bc                	addi	a5,sp,328
  48:	0000                	unimp
  4a:	02e2                	slli	t0,t0,0x18
  4c:	0000                	unimp
  4e:	6401                	.insn	2, 0x6401
  50:	0002f207          	.insn	4, 0x0002f207
  54:	f600                	.insn	2, 0xf600
  56:	0002                	c.slli64	zero
  58:	0200                	addi	s0,sp,256
  5a:	9f32                	add	t5,t5,a2
  5c:	0700                	addi	s0,sp,896
  5e:	01c2                	slli	gp,gp,0x10
  60:	0000                	unimp
  62:	01d0                	addi	a2,sp,196
  64:	0000                	unimp
  66:	3102                	.insn	2, 0x3102
  68:	079f 01d0 0000      	.insn	6, 0x01d0079f
  6e:	0216                	slli	tp,tp,0x5
  70:	0000                	unimp
  72:	6301                	.insn	2, 0x6301
  74:	0002c407          	.insn	4, 0x0002c407
  78:	ce00                	sw	s0,24(a2)
  7a:	0002                	c.slli64	zero
  7c:	0200                	addi	s0,sp,256
  7e:	9f31                	.insn	2, 0x9f31
  80:	0002ce07          	.insn	4, 0x0002ce07
  84:	e200                	.insn	2, 0xe200
  86:	0002                	c.slli64	zero
  88:	0100                	addi	s0,sp,128
  8a:	d0070063          	beqz	a4,fffff58a <__heap_start+0xffffe58a>
  8e:	0001                	nop
  90:	d500                	sw	s0,40(a0)
  92:	0001                	nop
  94:	0100                	addi	s0,sp,128
  96:	075f 020e 0000      	.insn	6, 0x020e075f
  9c:	0216                	slli	tp,tp,0x5
  9e:	0000                	unimp
  a0:	5f01                	li	t5,-32
  a2:	0700                	addi	s0,sp,896
  a4:	0216                	slli	tp,tp,0x5
  a6:	0000                	unimp
  a8:	021c                	addi	a5,sp,256
  aa:	0000                	unimp
  ac:	840a                	mv	s0,sp
  ae:	3200                	.insn	2, 0x3200
  b0:	9124                	.insn	2, 0x9124
  b2:	2200                	.insn	2, 0x2200
  b4:	b808                	.insn	2, 0xb808
  b6:	071c                	addi	a5,sp,896
  b8:	02da                	slli	t0,t0,0x16
  ba:	0000                	unimp
  bc:	02e2                	slli	t0,t0,0x18
  be:	0000                	unimp
  c0:	840a                	mv	s0,sp
  c2:	3200                	.insn	2, 0x3200
  c4:	9124                	.insn	2, 0x9124
  c6:	2200                	.insn	2, 0x2200
  c8:	b808                	.insn	2, 0xb808
  ca:	001c                	.insn	2, 0x001c
  cc:	00021607          	.insn	4, 0x00021607
  d0:	1c00                	addi	s0,sp,560
  d2:	0002                	c.slli64	zero
  d4:	0a00                	addi	s0,sp,272
  d6:	0084                	addi	s1,sp,64
  d8:	2432                	.insn	2, 0x2432
  da:	0091                	addi	ra,ra,4
  dc:	0822                	slli	a6,a6,0x8
  de:	1cb8                	addi	a4,sp,632
  e0:	00021e07          	.insn	4, 0x00021e07
  e4:	6c00                	.insn	2, 0x6c00
  e6:	0002                	c.slli64	zero
  e8:	0100                	addi	s0,sp,128
  ea:	0758                	addi	a4,sp,900
  ec:	02c0                	addi	s0,sp,324
  ee:	0000                	unimp
  f0:	02c4                	addi	s1,sp,324
  f2:	0000                	unimp
  f4:	5801                	li	a6,-32
  f6:	0002da07          	.insn	4, 0x0002da07
  fa:	e200                	.insn	2, 0xe200
  fc:	0002                	c.slli64	zero
  fe:	0a00                	addi	s0,sp,272
 100:	0084                	addi	s1,sp,64
 102:	2432                	.insn	2, 0x2432
 104:	0091                	addi	ra,ra,4
 106:	0822                	slli	a6,a6,0x8
 108:	1cb8                	addi	a4,sp,632
 10a:	0700                	addi	s0,sp,896
 10c:	0216                	slli	tp,tp,0x5
 10e:	0000                	unimp
 110:	021c                	addi	a5,sp,256
 112:	0000                	unimp
 114:	3002                	.insn	2, 0x3002
 116:	079f 021e 0000      	.insn	6, 0x021e079f
 11c:	0246                	slli	tp,tp,0x11
 11e:	0000                	unimp
 120:	6301                	.insn	2, 0x6301
 122:	00024607          	.insn	4, 0x00024607
 126:	5200                	lw	s0,32(a2)
 128:	0002                	c.slli64	zero
 12a:	0300                	addi	s0,sp,384
 12c:	0282                	c.slli64	t0
 12e:	079f 0252 0000      	.insn	6, 0x0252079f
 134:	0254                	addi	a3,sp,260
 136:	0000                	unimp
 138:	9f028303          	lb	t1,-1552(t0)
 13c:	00025807          	.insn	4, 0x00025807
 140:	6600                	.insn	2, 0x6600
 142:	0002                	c.slli64	zero
 144:	0900                	addi	s0,sp,144
 146:	007f 0091 231c 01c4 	.insn	10, 0x079f01c4231c0091007f
 14e:	079f 
 150:	02bc                	addi	a5,sp,328
 152:	0000                	unimp
 154:	02c4                	addi	s1,sp,324
 156:	0000                	unimp
 158:	3002                	.insn	2, 0x3002
 15a:	079f 02da 0000      	.insn	6, 0x02da079f
 160:	02e2                	slli	t0,t0,0x18
 162:	0000                	unimp
 164:	3002                	.insn	2, 0x3002
 166:	009f 1607 0002      	.insn	6, 0x00021607009f
 16c:	1c00                	addi	s0,sp,560
 16e:	0002                	c.slli64	zero
 170:	0200                	addi	s0,sp,256
 172:	9f30                	.insn	2, 0x9f30
 174:	00021e07          	.insn	4, 0x00021e07
 178:	6c00                	.insn	2, 0x6c00
 17a:	0002                	c.slli64	zero
 17c:	0100                	addi	s0,sp,128
 17e:	0759                	addi	a4,a4,22
 180:	02bc                	addi	a5,sp,328
 182:	0000                	unimp
 184:	02c4                	addi	s1,sp,324
 186:	0000                	unimp
 188:	3102                	.insn	2, 0x3102
 18a:	079f 02da 0000      	.insn	6, 0x02da079f
 190:	02e2                	slli	t0,t0,0x18
 192:	0000                	unimp
 194:	3002                	.insn	2, 0x3002
 196:	009f 5c07 0002      	.insn	6, 0x00025c07009f
 19c:	6600                	.insn	2, 0x6600
 19e:	0002                	c.slli64	zero
 1a0:	0200                	addi	s0,sp,256
 1a2:	007f 0700 026c 0000 	.insn	10, 0x02720000026c0700007f
 1aa:	0272 
 1ac:	0000                	unimp
 1ae:	3a02                	.insn	2, 0x3a02
 1b0:	009f f007 0000      	.insn	6, 0xf007009f
 1b6:	1c00                	addi	s0,sp,560
 1b8:	0001                	nop
 1ba:	0200                	addi	s0,sp,256
 1bc:	9f30                	.insn	2, 0x9f30
 1be:	00011c07          	.insn	4, 0x00011c07
 1c2:	4e00                	lw	s0,24(a2)
 1c4:	0001                	nop
 1c6:	0100                	addi	s0,sp,128
 1c8:	075c                	addi	a5,sp,900
 1ca:	02a4                	addi	s1,sp,328
 1cc:	0000                	unimp
 1ce:	02bc                	addi	a5,sp,328
 1d0:	0000                	unimp
 1d2:	5c01                	li	s8,-32
 1d4:	0002e207          	.insn	4, 0x0002e207
 1d8:	f200                	.insn	2, 0xf200
 1da:	0002                	c.slli64	zero
 1dc:	0200                	addi	s0,sp,256
 1de:	9f30                	.insn	2, 0x9f30
 1e0:	0700                	addi	s0,sp,896
 1e2:	00fe                	slli	ra,ra,0x1f
 1e4:	0000                	unimp
 1e6:	0102                	c.slli64	sp
 1e8:	0000                	unimp
 1ea:	5e01                	li	t3,-32
 1ec:	00010a07          	.insn	4, 0x00010a07
 1f0:	4e00                	lw	s0,24(a2)
 1f2:	0001                	nop
 1f4:	0100                	addi	s0,sp,128
 1f6:	075e                	slli	a4,a4,0x17
 1f8:	02a4                	addi	s1,sp,328
 1fa:	0000                	unimp
 1fc:	02bc                	addi	a5,sp,328
 1fe:	0000                	unimp
 200:	5e01                	li	t3,-32
 202:	0002e207          	.insn	4, 0x0002e207
 206:	f200                	.insn	2, 0xf200
 208:	0002                	c.slli64	zero
 20a:	0100                	addi	s0,sp,128
 20c:	005e                	c.slli	zero,0x17
 20e:	0000f007          	.insn	4, 0xf007
 212:	1c00                	addi	s0,sp,560
 214:	0001                	nop
 216:	0200                	addi	s0,sp,256
 218:	9f30                	.insn	2, 0x9f30
 21a:	00011c07          	.insn	4, 0x00011c07
 21e:	4a00                	lw	s0,16(a2)
 220:	0001                	nop
 222:	0100                	addi	s0,sp,128
 224:	0761                	addi	a4,a4,24
 226:	014a                	slli	sp,sp,0x12
 228:	0000                	unimp
 22a:	014e                	slli	sp,sp,0x13
 22c:	0000                	unimp
 22e:	3102                	.insn	2, 0x3102
 230:	079f 02a4 0000      	.insn	6, 0x02a4079f
 236:	02bc                	addi	a5,sp,328
 238:	0000                	unimp
 23a:	6101                	addi	sp,sp,0
 23c:	0002e207          	.insn	4, 0x0002e207
 240:	f200                	.insn	2, 0xf200
 242:	0002                	c.slli64	zero
 244:	0200                	addi	s0,sp,256
 246:	9f30                	.insn	2, 0x9f30
	...

Disassembly of section .debug_aranges:

00000000 <.debug_aranges>:
   0:	001c                	.insn	2, 0x001c
   2:	0000                	unimp
   4:	0002                	c.slli64	zero
   6:	0000                	unimp
   8:	0000                	unimp
   a:	0004                	.insn	2, 0x0004
   c:	0000                	unimp
   e:	0000                	unimp
  10:	00f0                	addi	a2,sp,76
  12:	0000                	unimp
  14:	0206                	slli	tp,tp,0x1
	...
  1e:	0000                	unimp
  20:	001c                	.insn	2, 0x001c
  22:	0000                	unimp
  24:	0002                	c.slli64	zero
  26:	0000031b          	.insn	4, 0x031b
  2a:	0004                	.insn	2, 0x0004
  2c:	0000                	unimp
  2e:	0000                	unimp
  30:	0018                	.insn	2, 0x0018
  32:	0000                	unimp
  34:	0024                	addi	s1,sp,8
	...
  3e:	0000                	unimp
  40:	001c                	.insn	2, 0x001c
  42:	0000                	unimp
  44:	0002                	c.slli64	zero
  46:	034a                	slli	t1,t1,0x12
  48:	0000                	unimp
  4a:	0004                	.insn	2, 0x0004
  4c:	0000                	unimp
  4e:	0000                	unimp
  50:	003c                	addi	a5,sp,8
  52:	0000                	unimp
  54:	00b4                	addi	a3,sp,72
	...

Disassembly of section .debug_rnglists:

00000000 <.debug_rnglists>:
   0:	00000127          	.insn	4, 0x0127
   4:	0005                	c.nop	1
   6:	0004                	.insn	2, 0x0004
   8:	0000                	unimp
   a:	0000                	unimp
   c:	f006                	.insn	2, 0xf006
   e:	0000                	unimp
  10:	f000                	.insn	2, 0xf000
  12:	0000                	unimp
  14:	0600                	addi	s0,sp,768
  16:	00f6                	slli	ra,ra,0x1d
  18:	0000                	unimp
  1a:	010c                	addi	a1,sp,128
  1c:	0000                	unimp
  1e:	1006                	c.slli	zero,0x21
  20:	0001                	nop
  22:	4e00                	lw	s0,24(a2)
  24:	0001                	nop
  26:	0600                	addi	s0,sp,768
  28:	02a4                	addi	s1,sp,328
  2a:	0000                	unimp
  2c:	02bc                	addi	a5,sp,328
  2e:	0000                	unimp
  30:	e206                	.insn	2, 0xe206
  32:	0002                	c.slli64	zero
  34:	f600                	.insn	2, 0xf600
  36:	0002                	c.slli64	zero
  38:	0000                	unimp
  3a:	f606                	.insn	2, 0xf606
  3c:	0000                	unimp
  3e:	fa00                	.insn	2, 0xfa00
  40:	0000                	unimp
  42:	0600                	addi	s0,sp,768
  44:	0102                	c.slli64	sp
  46:	0000                	unimp
  48:	010a                	slli	sp,sp,0x2
  4a:	0000                	unimp
  4c:	0600                	addi	s0,sp,768
  4e:	0116                	slli	sp,sp,0x5
  50:	0000                	unimp
  52:	011c                	addi	a5,sp,128
  54:	0000                	unimp
  56:	2006                	.insn	2, 0x2006
  58:	0001                	nop
  5a:	2400                	.insn	2, 0x2400
  5c:	0001                	nop
  5e:	0600                	addi	s0,sp,768
  60:	0128                	addi	a0,sp,136
  62:	0000                	unimp
  64:	012c                	addi	a1,sp,136
  66:	0000                	unimp
  68:	a406                	.insn	2, 0xa406
  6a:	0002                	c.slli64	zero
  6c:	a800                	.insn	2, 0xa800
  6e:	0002                	c.slli64	zero
  70:	0600                	addi	s0,sp,768
  72:	02ae                	slli	t0,t0,0xb
  74:	0000                	unimp
  76:	02b2                	slli	t0,t0,0xc
  78:	0000                	unimp
  7a:	0600                	addi	s0,sp,768
  7c:	0176                	slli	sp,sp,0x1d
  7e:	0000                	unimp
  80:	0198                	addi	a4,sp,192
  82:	0000                	unimp
  84:	9e06                	add	t3,t3,ra
  86:	0001                	nop
  88:	cc00                	sw	s0,24(s0)
  8a:	0001                	nop
  8c:	0600                	addi	s0,sp,768
  8e:	01d0                	addi	a2,sp,196
  90:	0000                	unimp
  92:	0272                	slli	tp,tp,0x1c
  94:	0000                	unimp
  96:	7206                	.insn	2, 0x7206
  98:	0002                	c.slli64	zero
  9a:	7800                	.insn	2, 0x7800
  9c:	0002                	c.slli64	zero
  9e:	0600                	addi	s0,sp,768
  a0:	027a                	slli	tp,tp,0x1e
  a2:	0000                	unimp
  a4:	029a                	slli	t0,t0,0x6
  a6:	0000                	unimp
  a8:	bc06                	.insn	2, 0xbc06
  aa:	0002                	c.slli64	zero
  ac:	e200                	.insn	2, 0xe200
  ae:	0002                	c.slli64	zero
  b0:	0000                	unimp
  b2:	c206                	sw	ra,4(sp)
  b4:	0001                	nop
  b6:	c400                	sw	s0,8(s0)
  b8:	0001                	nop
  ba:	0600                	addi	s0,sp,768
  bc:	0216                	slli	tp,tp,0x5
  be:	0000                	unimp
  c0:	0272                	slli	tp,tp,0x1c
  c2:	0000                	unimp
  c4:	bc06                	.insn	2, 0xbc06
  c6:	0002                	c.slli64	zero
  c8:	c400                	sw	s0,8(s0)
  ca:	0002                	c.slli64	zero
  cc:	0600                	addi	s0,sp,768
  ce:	02da                	slli	t0,t0,0x16
  d0:	0000                	unimp
  d2:	02e2                	slli	t0,t0,0x18
  d4:	0000                	unimp
  d6:	0600                	addi	s0,sp,768
  d8:	01c2                	slli	gp,gp,0x10
  da:	0000                	unimp
  dc:	01c4                	addi	s1,sp,196
  de:	0000                	unimp
  e0:	1606                	slli	a2,a2,0x21
  e2:	0002                	c.slli64	zero
  e4:	6c00                	.insn	2, 0x6c00
  e6:	0002                	c.slli64	zero
  e8:	0600                	addi	s0,sp,768
  ea:	02bc                	addi	a5,sp,328
  ec:	0000                	unimp
  ee:	02c4                	addi	s1,sp,324
  f0:	0000                	unimp
  f2:	da06                	sw	ra,52(sp)
  f4:	0002                	c.slli64	zero
  f6:	e200                	.insn	2, 0xe200
  f8:	0002                	c.slli64	zero
  fa:	0000                	unimp
  fc:	d006                	sw	ra,32(sp)
  fe:	0001                	nop
 100:	ee00                	.insn	2, 0xee00
 102:	0001                	nop
 104:	0600                	addi	s0,sp,768
 106:	0204                	addi	s1,sp,256
 108:	0000                	unimp
 10a:	0204                	addi	s1,sp,256
 10c:	0000                	unimp
 10e:	0606                	slli	a2,a2,0x1
 110:	0002                	c.slli64	zero
 112:	1200                	addi	s0,sp,288
 114:	0002                	c.slli64	zero
 116:	0600                	addi	s0,sp,768
 118:	02ce                	slli	t0,t0,0x13
 11a:	0000                	unimp
 11c:	02d6                	slli	t0,t0,0x15
 11e:	0000                	unimp
 120:	0600                	addi	s0,sp,768
 122:	00f0                	addi	a2,sp,76
 124:	0000                	unimp
 126:	02f6                	slli	t0,t0,0x1d
 128:	0000                	unimp
	...

Disassembly of section .debug_line:

00000000 <.debug_line>:
   0:	062e                	slli	a2,a2,0xb
   2:	0000                	unimp
   4:	0005                	c.nop	1
   6:	0004                	.insn	2, 0x0004
   8:	00000033          	add	zero,zero,zero
   c:	0101                	addi	sp,sp,0
   e:	fb01                	bnez	a4,ffffff1e <__heap_start+0xffffef1e>
  10:	0d0e                	slli	s10,s10,0x3
  12:	0100                	addi	s0,sp,128
  14:	0101                	addi	sp,sp,0
  16:	0001                	nop
  18:	0000                	unimp
  1a:	0001                	nop
  1c:	0100                	addi	s0,sp,128
  1e:	0101                	addi	sp,sp,0
  20:	021f 0000 0000      	.insn	6, 0x021f
  26:	0032                	c.slli	zero,0xc
  28:	0000                	unimp
  2a:	0102                	c.slli64	sp
  2c:	021f 030f 0021      	.insn	6, 0x0021030f021f
  32:	0000                	unimp
  34:	2101                	jal	434 <N+0xe8>
  36:	0000                	unimp
  38:	0100                	addi	s0,sp,128
  3a:	0045                	c.nop	17
  3c:	0000                	unimp
  3e:	0500                	addi	s0,sp,640
  40:	000c                	.insn	2, 0x000c
  42:	0205                	addi	tp,tp,1 # 1 <_start+0x1>
  44:	00f0                	addi	a2,sp,76
  46:	0000                	unimp
  48:	05011303          	lh	t1,80(sp)
  4c:	0305                	addi	t1,t1,1
  4e:	0901                	addi	s2,s2,0 # 7000 <__heap_start+0x6000>
  50:	0000                	unimp
  52:	0401                	addi	s0,s0,0 # 3100313c <__heap_start+0x3100213c>
  54:	0302                	c.slli64	t1
  56:	0904                	addi	s1,sp,144
  58:	0000                	unimp
  5a:	0301                	addi	t1,t1,0
  5c:	0901                	addi	s2,s2,0
  5e:	0000                	unimp
  60:	0301                	addi	t1,t1,0
  62:	0901                	addi	s2,s2,0
  64:	0000                	unimp
  66:	0301                	addi	t1,t1,0
  68:	0901                	addi	s2,s2,0
  6a:	0000                	unimp
  6c:	0401                	addi	s0,s0,0
  6e:	0501                	addi	a0,a0,0
  70:	060c                	addi	a1,sp,768
  72:	00097803          	.insn	4, 0x00097803
  76:	0100                	addi	s0,sp,128
  78:	0204                	addi	s1,sp,256
  7a:	0905                	addi	s2,s2,1
  7c:	06097b03          	.insn	4, 0x06097b03
  80:	0100                	addi	s0,sp,128
  82:	1a05                	addi	s4,s4,-31
  84:	0200                	addi	s0,sp,256
  86:	0604                	addi	s1,sp,768
  88:	04090d03          	lb	s10,64(s2)
  8c:	0100                	addi	s0,sp,128
  8e:	0b05                	addi	s6,s6,1
  90:	02090003          	lb	zero,32(s2)
  94:	0100                	addi	s0,sp,128
  96:	1a05                	addi	s4,s4,-31
  98:	0200                	addi	s0,sp,256
  9a:	0604                	addi	s1,sp,768
  9c:	02090003          	lb	zero,32(s2)
  a0:	0100                	addi	s0,sp,128
  a2:	1805                	addi	a6,a6,-31
  a4:	0200                	addi	s0,sp,256
  a6:	0604                	addi	s1,sp,768
  a8:	0306                	slli	t1,t1,0x1
  aa:	0900                	addi	s0,sp,144
  ac:	0004                	.insn	2, 0x0004
  ae:	0501                	addi	a0,a0,0
  b0:	000c                	.insn	2, 0x000c
  b2:	0402                	c.slli64	s0
  b4:	0305                	addi	t1,t1,1
  b6:	0900                	addi	s0,sp,144
  b8:	0000                	unimp
  ba:	0501                	addi	a0,a0,0
  bc:	0302                	c.slli64	t1
  be:	00000973          	.insn	4, 0x0973
  c2:	0501                	addi	a0,a0,0
  c4:	0609                	addi	a2,a2,2
  c6:	00090003          	lb	zero,0(s2)
  ca:	0100                	addi	s0,sp,128
  cc:	0c05                	addi	s8,s8,1
  ce:	0200                	addi	s0,sp,256
  d0:	0104                	addi	s1,sp,128
  d2:	08090d03          	lb	s10,128(s2)
  d6:	0100                	addi	s0,sp,128
  d8:	0104                	addi	s1,sp,128
  da:	02097803          	.insn	4, 0x02097803
  de:	0100                	addi	s0,sp,128
  e0:	0204                	addi	s1,sp,256
  e2:	0b05                	addi	s6,s6,1
  e4:	04090a03          	lb	s4,64(s2)
  e8:	0100                	addi	s0,sp,128
  ea:	1005                	c.nop	-31
  ec:	04090103          	lb	sp,64(s2)
  f0:	0100                	addi	s0,sp,128
  f2:	0905                	addi	s2,s2,1
  f4:	02097003          	.insn	4, 0x02097003
  f8:	0100                	addi	s0,sp,128
  fa:	1005                	c.nop	-31
  fc:	06091003          	lh	zero,96(s2)
 100:	0100                	addi	s0,sp,128
 102:	0905                	addi	s2,s2,1
 104:	0306                	slli	t1,t1,0x1
 106:	0901                	addi	s2,s2,0
 108:	0004                	.insn	2, 0x0004
 10a:	0601                	addi	a2,a2,0
 10c:	00096f03          	.insn	4, 0x00096f03
 110:	0100                	addi	s0,sp,128
 112:	0d05                	addi	s10,s10,1
 114:	04091103          	lh	sp,64(s2)
 118:	0100                	addi	s0,sp,128
 11a:	0306                	slli	t1,t1,0x1
 11c:	0901                	addi	s2,s2,0
 11e:	0004                	.insn	2, 0x0004
 120:	0501                	addi	a0,a0,0
 122:	0302                	c.slli64	t1
 124:	096e                	slli	s2,s2,0x1b
 126:	0000                	unimp
 128:	0501                	addi	a0,a0,0
 12a:	0609                	addi	a2,a2,2
 12c:	00090003          	lb	zero,0(s2)
 130:	0100                	addi	s0,sp,128
 132:	0d05                	addi	s10,s10,1
 134:	0200                	addi	s0,sp,256
 136:	0104                	addi	s1,sp,128
 138:	04091203          	lh	tp,64(s2)
 13c:	0100                	addi	s0,sp,128
 13e:	0505                	addi	a0,a0,1
 140:	0306                	slli	t1,t1,0x1
 142:	097c                	addi	a5,sp,156
 144:	0004                	.insn	2, 0x0004
 146:	0501                	addi	a0,a0,0
 148:	0309                	addi	t1,t1,2
 14a:	0901                	addi	s2,s2,0
 14c:	0000                	unimp
 14e:	0501                	addi	a0,a0,0
 150:	030e                	slli	t1,t1,0x3
 152:	0901                	addi	s2,s2,0
 154:	0000                	unimp
 156:	0501                	addi	a0,a0,0
 158:	01030613          	addi	a2,t1,16
 15c:	0009                	c.nop	2
 15e:	0100                	addi	s0,sp,128
 160:	1705                	addi	a4,a4,-31
 162:	08097f03          	.insn	4, 0x08097f03
 166:	0100                	addi	s0,sp,128
 168:	1805                	addi	a6,a6,-31
 16a:	04090103          	lb	sp,64(s2)
 16e:	0100                	addi	s0,sp,128
 170:	1005                	c.nop	-31
 172:	02097f03          	.insn	4, 0x02097f03
 176:	0100                	addi	s0,sp,128
 178:	0b05                	addi	s6,s6,1
 17a:	04097f03          	.insn	4, 0x04097f03
 17e:	0100                	addi	s0,sp,128
 180:	1305                	addi	t1,t1,-31
 182:	0200                	addi	s0,sp,256
 184:	0104                	addi	s1,sp,128
 186:	04090003          	lb	zero,64(s2)
 18a:	0100                	addi	s0,sp,128
 18c:	1505                	addi	a0,a0,-31
 18e:	0200                	addi	s0,sp,256
 190:	0104                	addi	s1,sp,128
 192:	04090403          	lb	s0,64(s2)
 196:	0100                	addi	s0,sp,128
 198:	0104                	addi	s1,sp,128
 19a:	0705                	addi	a4,a4,1
 19c:	0200                	addi	s0,sp,256
 19e:	0104                	addi	s1,sp,128
 1a0:	04097303          	.insn	4, 0x04097303
 1a4:	0100                	addi	s0,sp,128
 1a6:	0205                	addi	tp,tp,1 # 1 <_start+0x1>
 1a8:	0306                	slli	t1,t1,0x1
 1aa:	0901                	addi	s2,s2,0
 1ac:	0004                	.insn	2, 0x0004
 1ae:	0301                	addi	t1,t1,0
 1b0:	0901                	addi	s2,s2,0
 1b2:	0000                	unimp
 1b4:	0501                	addi	a0,a0,0
 1b6:	000c                	.insn	2, 0x000c
 1b8:	0402                	c.slli64	s0
 1ba:	0301                	addi	t1,t1,0
 1bc:	0900                	addi	s0,sp,144
 1be:	0000                	unimp
 1c0:	0501                	addi	a0,a0,0
 1c2:	0009                	c.nop	2
 1c4:	0402                	c.slli64	s0
 1c6:	0601                	addi	a2,a2,0
 1c8:	00097e03          	.insn	4, 0x00097e03
 1cc:	0100                	addi	s0,sp,128
 1ce:	0c05                	addi	s8,s8,1
 1d0:	0200                	addi	s0,sp,256
 1d2:	0104                	addi	s1,sp,128
 1d4:	02090203          	lb	tp,32(s2)
 1d8:	0100                	addi	s0,sp,128
 1da:	1e05                	addi	t3,t3,-31
 1dc:	0200                	addi	s0,sp,256
 1de:	0204                	addi	s1,sp,256
 1e0:	18090003          	lb	zero,384(s2)
 1e4:	0100                	addi	s0,sp,128
 1e6:	1305                	addi	t1,t1,-31
 1e8:	0200                	addi	s0,sp,256
 1ea:	0204                	addi	s1,sp,256
 1ec:	0306                	slli	t1,t1,0x1
 1ee:	0900                	addi	s0,sp,144
 1f0:	0002                	c.slli64	zero
 1f2:	0501                	addi	a0,a0,0
 1f4:	001e                	c.slli	zero,0x7
 1f6:	0402                	c.slli64	s0
 1f8:	0602                	c.slli64	a2
 1fa:	00090003          	lb	zero,0(s2)
 1fe:	0100                	addi	s0,sp,128
 200:	0c05                	addi	s8,s8,1
 202:	0200                	addi	s0,sp,256
 204:	0104                	addi	s1,sp,128
 206:	0306                	slli	t1,t1,0x1
 208:	0900                	addi	s0,sp,144
 20a:	0002                	c.slli64	zero
 20c:	0501                	addi	a0,a0,0
 20e:	09050303          	lb	t1,144(a0)
 212:	0006                	c.slli	zero,0x1
 214:	0501                	addi	a0,a0,0
 216:	0606                	slli	a2,a2,0x1
 218:	00090003          	lb	zero,0(s2)
 21c:	0100                	addi	s0,sp,128
 21e:	0905                	addi	s2,s2,1
 220:	22097f03          	.insn	4, 0x22097f03
 224:	0100                	addi	s0,sp,128
 226:	0305                	addi	t1,t1,1
 228:	0306                	slli	t1,t1,0x1
 22a:	0902                	c.slli64	s2
 22c:	0006                	c.slli	zero,0x1
 22e:	0501                	addi	a0,a0,0
 230:	0606                	slli	a2,a2,0x1
 232:	00090003          	lb	zero,0(s2)
 236:	0100                	addi	s0,sp,128
 238:	02090103          	lb	sp,32(s2)
 23c:	0100                	addi	s0,sp,128
 23e:	04097f03          	.insn	4, 0x04097f03
 242:	0100                	addi	s0,sp,128
 244:	0405                	addi	s0,s0,1
 246:	0306                	slli	t1,t1,0x1
 248:	0901                	addi	s2,s2,0
 24a:	0006                	c.slli	zero,0x1
 24c:	0501                	addi	a0,a0,0
 24e:	0606                	slli	a2,a2,0x1
 250:	00090003          	lb	zero,0(s2)
 254:	0100                	addi	s0,sp,128
 256:	0b05                	addi	s6,s6,1
 258:	02090003          	lb	zero,32(s2)
 25c:	0100                	addi	s0,sp,128
 25e:	0f05                	addi	t5,t5,1
 260:	06090103          	lb	sp,96(s2)
 264:	0100                	addi	s0,sp,128
 266:	0b05                	addi	s6,s6,1
 268:	04097f03          	.insn	4, 0x04097f03
 26c:	0100                	addi	s0,sp,128
 26e:	0405                	addi	s0,s0,1
 270:	0306                	slli	t1,t1,0x1
 272:	0901                	addi	s2,s2,0
 274:	0008                	.insn	2, 0x0008
 276:	0501                	addi	a0,a0,0
 278:	0003060b          	.insn	4, 0x0003060b
 27c:	0009                	c.nop	2
 27e:	0100                	addi	s0,sp,128
 280:	1605                	addi	a2,a2,-31
 282:	0200                	addi	s0,sp,256
 284:	0104                	addi	s1,sp,128
 286:	0306                	slli	t1,t1,0x1
 288:	0904                	addi	s1,sp,144
 28a:	0004                	.insn	2, 0x0004
 28c:	0401                	addi	s0,s0,0
 28e:	0502                	c.slli64	a0
 290:	060e                	slli	a2,a2,0x3
 292:	00091303          	lh	t1,0(s2)
 296:	0100                	addi	s0,sp,128
 298:	0104                	addi	s1,sp,128
 29a:	1605                	addi	a2,a2,-31
 29c:	0200                	addi	s0,sp,256
 29e:	0104                	addi	s1,sp,128
 2a0:	02096d03          	.insn	4, 0x02096d03
 2a4:	0100                	addi	s0,sp,128
 2a6:	0905                	addi	s2,s2,1
 2a8:	08097803          	.insn	4, 0x08097803
 2ac:	0100                	addi	s0,sp,128
 2ae:	0f05                	addi	t5,t5,1
 2b0:	04090b03          	lb	s6,64(s2)
 2b4:	0100                	addi	s0,sp,128
 2b6:	0405                	addi	s0,s0,1
 2b8:	0306                	slli	t1,t1,0x1
 2ba:	0901                	addi	s2,s2,0
 2bc:	0004                	.insn	2, 0x0004
 2be:	0501                	addi	a0,a0,0
 2c0:	0003060b          	.insn	4, 0x0003060b
 2c4:	0009                	c.nop	2
 2c6:	0100                	addi	s0,sp,128
 2c8:	0505                	addi	a0,a0,1
 2ca:	0306                	slli	t1,t1,0x1
 2cc:	0905                	addi	s2,s2,1
 2ce:	0002                	c.slli64	zero
 2d0:	0501                	addi	a0,a0,0
 2d2:	7b03060b          	.insn	4, 0x7b03060b
 2d6:	0009                	c.nop	2
 2d8:	0100                	addi	s0,sp,128
 2da:	1305                	addi	t1,t1,-31
 2dc:	02090503          	lb	a0,32(s2)
 2e0:	0100                	addi	s0,sp,128
 2e2:	1c05                	addi	s8,s8,-31
 2e4:	02090003          	lb	zero,32(s2)
 2e8:	0100                	addi	s0,sp,128
 2ea:	1305                	addi	t1,t1,-31
 2ec:	06090003          	lb	zero,96(s2)
 2f0:	0100                	addi	s0,sp,128
 2f2:	0705                	addi	a4,a4,1
 2f4:	04097b03          	.insn	4, 0x04097b03
 2f8:	0100                	addi	s0,sp,128
 2fa:	1c05                	addi	s8,s8,-31
 2fc:	04090503          	lb	a0,64(s2)
 300:	0100                	addi	s0,sp,128
 302:	1305                	addi	t1,t1,-31
 304:	02090003          	lb	zero,32(s2)
 308:	0100                	addi	s0,sp,128
 30a:	2b05                	jal	83a <N+0x4ee>
 30c:	0200                	addi	s0,sp,256
 30e:	0204                	addi	s1,sp,256
 310:	0306                	slli	t1,t1,0x1
 312:	00040977          	.insn	4, 0x00040977
 316:	0501                	addi	a0,a0,0
 318:	0016                	c.slli	zero,0x5
 31a:	0402                	c.slli64	s0
 31c:	0301                	addi	t1,t1,0
 31e:	0900                	addi	s0,sp,144
 320:	0002                	c.slli64	zero
 322:	0501                	addi	a0,a0,0
 324:	060d                	addi	a2,a2,3
 326:	00090c03          	lb	s8,0(s2)
 32a:	0100                	addi	s0,sp,128
 32c:	1605                	addi	a2,a2,-31
 32e:	0200                	addi	s0,sp,256
 330:	0104                	addi	s1,sp,128
 332:	04097403          	.insn	4, 0x04097403
 336:	0100                	addi	s0,sp,128
 338:	1f05                	addi	t5,t5,-31
 33a:	0200                	addi	s0,sp,256
 33c:	0304                	addi	s1,sp,384
 33e:	06090003          	lb	zero,96(s2)
 342:	0100                	addi	s0,sp,128
 344:	1c05                	addi	s8,s8,-31
 346:	0200                	addi	s0,sp,256
 348:	0304                	addi	s1,sp,384
 34a:	04090003          	lb	zero,64(s2)
 34e:	0100                	addi	s0,sp,128
 350:	0405                	addi	s0,s0,1
 352:	0306                	slli	t1,t1,0x1
 354:	0901                	addi	s2,s2,0
 356:	0006                	c.slli	zero,0x1
 358:	0501                	addi	a0,a0,0
 35a:	001c                	.insn	2, 0x001c
 35c:	0402                	c.slli64	s0
 35e:	7f030603          	lb	a2,2032(t1)
 362:	0009                	c.nop	2
 364:	0100                	addi	s0,sp,128
 366:	0f05                	addi	t5,t5,1
 368:	02090303          	lb	t1,32(s2)
 36c:	0100                	addi	s0,sp,128
 36e:	0b05                	addi	s6,s6,1
 370:	04090103          	lb	sp,64(s2)
 374:	0100                	addi	s0,sp,128
 376:	0405                	addi	s0,s0,1
 378:	0306                	slli	t1,t1,0x1
 37a:	097e                	slli	s2,s2,0x1f
 37c:	0004                	.insn	2, 0x0004
 37e:	0301                	addi	t1,t1,0
 380:	0901                	addi	s2,s2,0
 382:	0000                	unimp
 384:	0501                	addi	a0,a0,0
 386:	0003060f          	.insn	4, 0x0003060f
 38a:	0009                	c.nop	2
 38c:	0100                	addi	s0,sp,128
 38e:	1605                	addi	a2,a2,-31
 390:	0200                	addi	s0,sp,256
 392:	0304                	addi	s1,sp,384
 394:	04097d03          	.insn	4, 0x04097d03
 398:	0100                	addi	s0,sp,128
 39a:	0305                	addi	t1,t1,1
 39c:	0306                	slli	t1,t1,0x1
 39e:	090c                	addi	a1,sp,144
 3a0:	0004                	.insn	2, 0x0004
 3a2:	0401                	addi	s0,s0,0
 3a4:	0502                	c.slli64	a0
 3a6:	0305                	addi	t1,t1,1
 3a8:	0924                	addi	s1,sp,152
 3aa:	0000                	unimp
 3ac:	0301                	addi	t1,t1,0
 3ae:	0961                	addi	s2,s2,24
 3b0:	0000                	unimp
 3b2:	0301                	addi	t1,t1,0
 3b4:	0901                	addi	s2,s2,0
 3b6:	0000                	unimp
 3b8:	0301                	addi	t1,t1,0
 3ba:	0901                	addi	s2,s2,0
 3bc:	0000                	unimp
 3be:	0301                	addi	t1,t1,0
 3c0:	0901                	addi	s2,s2,0
 3c2:	0000                	unimp
 3c4:	0501                	addi	a0,a0,0
 3c6:	060e                	slli	a2,a2,0x3
 3c8:	00097f03          	.insn	4, 0x00097f03
 3cc:	0100                	addi	s0,sp,128
 3ce:	0805                	addi	a6,a6,1
 3d0:	02090103          	lb	sp,32(s2)
 3d4:	0100                	addi	s0,sp,128
 3d6:	0e05                	addi	t3,t3,1
 3d8:	04097f03          	.insn	4, 0x04097f03
 3dc:	0100                	addi	s0,sp,128
 3de:	0505                	addi	a0,a0,1
 3e0:	0306                	slli	t1,t1,0x1
 3e2:	0905                	addi	s2,s2,1
 3e4:	0002                	c.slli64	zero
 3e6:	0501                	addi	a0,a0,0
 3e8:	0309                	addi	t1,t1,2
 3ea:	0901                	addi	s2,s2,0
 3ec:	0000                	unimp
 3ee:	0501                	addi	a0,a0,0
 3f0:	0618                	addi	a4,sp,768
 3f2:	00090003          	lb	zero,0(s2)
 3f6:	0100                	addi	s0,sp,128
 3f8:	0e05                	addi	t3,t3,1
 3fa:	08090003          	lb	zero,128(s2)
 3fe:	0100                	addi	s0,sp,128
 400:	1205                	addi	tp,tp,-31 # ffffffe1 <__heap_start+0xffffefe1>
 402:	02090003          	lb	zero,32(s2)
 406:	0100                	addi	s0,sp,128
 408:	1d05                	addi	s10,s10,-31
 40a:	04090003          	lb	zero,64(s2)
 40e:	0100                	addi	s0,sp,128
 410:	1205                	addi	tp,tp,-31 # ffffffe1 <__heap_start+0xffffefe1>
 412:	04090003          	lb	zero,64(s2)
 416:	0100                	addi	s0,sp,128
 418:	1505                	addi	a0,a0,-31
 41a:	0200                	addi	s0,sp,256
 41c:	0104                	addi	s1,sp,128
 41e:	0306                	slli	t1,t1,0x1
 420:	0902                	c.slli64	s2
 422:	0004                	.insn	2, 0x0004
 424:	0501                	addi	a0,a0,0
 426:	0010                	.insn	2, 0x0010
 428:	0402                	c.slli64	s0
 42a:	0601                	addi	a2,a2,0
 42c:	00090003          	lb	zero,0(s2)
 430:	0100                	addi	s0,sp,128
 432:	1505                	addi	a0,a0,-31
 434:	0200                	addi	s0,sp,256
 436:	0104                	addi	s1,sp,128
 438:	08090003          	lb	zero,128(s2)
 43c:	0100                	addi	s0,sp,128
 43e:	1005                	c.nop	-31
 440:	0200                	addi	s0,sp,256
 442:	0104                	addi	s1,sp,128
 444:	02090003          	lb	zero,32(s2)
 448:	0100                	addi	s0,sp,128
 44a:	1505                	addi	a0,a0,-31
 44c:	0200                	addi	s0,sp,256
 44e:	0104                	addi	s1,sp,128
 450:	02090003          	lb	zero,32(s2)
 454:	0100                	addi	s0,sp,128
 456:	0505                	addi	a0,a0,1
 458:	0306                	slli	t1,t1,0x1
 45a:	0901                	addi	s2,s2,0
 45c:	0004                	.insn	2, 0x0004
 45e:	0501                	addi	a0,a0,0
 460:	00030607          	.insn	4, 0x00030607
 464:	0009                	c.nop	2
 466:	0100                	addi	s0,sp,128
 468:	0b05                	addi	s6,s6,1
 46a:	0200                	addi	s0,sp,256
 46c:	0104                	addi	s1,sp,128
 46e:	0306                	slli	t1,t1,0x1
 470:	0900                	addi	s0,sp,144
 472:	0002                	c.slli64	zero
 474:	0501                	addi	a0,a0,0
 476:	04020013          	addi	zero,tp,64 # 40 <__divsi3+0x4>
 47a:	0601                	addi	a2,a2,0
 47c:	00090003          	lb	zero,0(s2)
 480:	0100                	addi	s0,sp,128
 482:	0c05                	addi	s8,s8,1
 484:	0306                	slli	t1,t1,0x1
 486:	0901                	addi	s2,s2,0
 488:	000e                	c.slli	zero,0x3
 48a:	0501                	addi	a0,a0,0
 48c:	0309                	addi	t1,t1,2
 48e:	0901                	addi	s2,s2,0
 490:	0004                	.insn	2, 0x0004
 492:	0501                	addi	a0,a0,0
 494:	0302                	c.slli64	t1
 496:	00040953          	.insn	4, 0x00040953
 49a:	0501                	addi	a0,a0,0
 49c:	062d                	addi	a2,a2,11
 49e:	00090003          	lb	zero,0(s2)
 4a2:	0100                	addi	s0,sp,128
 4a4:	0c05                	addi	s8,s8,1
 4a6:	0306                	slli	t1,t1,0x1
 4a8:	092c                	addi	a1,sp,152
 4aa:	000a                	c.slli	zero,0x2
 4ac:	0501                	addi	a0,a0,0
 4ae:	0302                	c.slli64	t1
 4b0:	0914                	addi	a3,sp,144
 4b2:	0006                	c.slli	zero,0x1
 4b4:	0301                	addi	t1,t1,0
 4b6:	0940                	addi	s0,sp,148
 4b8:	0000                	unimp
 4ba:	0501                	addi	a0,a0,0
 4bc:	062d                	addi	a2,a2,11
 4be:	00090003          	lb	zero,0(s2)
 4c2:	0100                	addi	s0,sp,128
 4c4:	0104                	addi	s1,sp,128
 4c6:	1005                	c.nop	-31
 4c8:	0306                	slli	t1,t1,0x1
 4ca:	00060907          	.insn	4, 0x00060907
 4ce:	0501                	addi	a0,a0,0
 4d0:	060a                	slli	a2,a2,0x2
 4d2:	00090103          	lb	sp,0(s2)
 4d6:	0100                	addi	s0,sp,128
 4d8:	0605                	addi	a2,a2,1
 4da:	04090003          	lb	zero,64(s2)
 4de:	0100                	addi	s0,sp,128
 4e0:	1005                	c.nop	-31
 4e2:	02097f03          	.insn	4, 0x02097f03
 4e6:	0100                	addi	s0,sp,128
 4e8:	0205                	addi	tp,tp,1 # 1 <_start+0x1>
 4ea:	0306                	slli	t1,t1,0x1
 4ec:	0900                	addi	s0,sp,144
 4ee:	0002                	c.slli64	zero
 4f0:	0501                	addi	a0,a0,0
 4f2:	09010303          	lb	t1,144(sp)
 4f6:	0000                	unimp
 4f8:	0501                	addi	a0,a0,0
 4fa:	0606                	slli	a2,a2,0x1
 4fc:	00090003          	lb	zero,0(s2)
 500:	0100                	addi	s0,sp,128
 502:	0105                	addi	sp,sp,1
 504:	20091603          	lh	a2,512(s2)
 508:	0100                	addi	s0,sp,128
 50a:	0204                	addi	s1,sp,256
 50c:	0905                	addi	s2,s2,1
 50e:	0a095d03          	lhu	s10,160(s2)
 512:	0100                	addi	s0,sp,128
 514:	2005                	jal	534 <N+0x1e8>
 516:	0200                	addi	s0,sp,256
 518:	0204                	addi	s1,sp,256
 51a:	04090f03          	lb	t5,64(s2)
 51e:	0100                	addi	s0,sp,128
 520:	0905                	addi	s2,s2,1
 522:	0306                	slli	t1,t1,0x1
 524:	0902                	c.slli64	s2
 526:	0002                	c.slli64	zero
 528:	0501                	addi	a0,a0,0
 52a:	060d                	addi	a2,a2,3
 52c:	00090003          	lb	zero,0(s2)
 530:	0100                	addi	s0,sp,128
 532:	0306                	slli	t1,t1,0x1
 534:	0901                	addi	s2,s2,0
 536:	0004                	.insn	2, 0x0004
 538:	0501                	addi	a0,a0,0
 53a:	0302                	c.slli64	t1
 53c:	096e                	slli	s2,s2,0x1b
 53e:	0000                	unimp
 540:	0501                	addi	a0,a0,0
 542:	0609                	addi	a2,a2,2
 544:	00090003          	lb	zero,0(s2)
 548:	0100                	addi	s0,sp,128
 54a:	0d05                	addi	s10,s10,1
 54c:	0200                	addi	s0,sp,256
 54e:	0104                	addi	s1,sp,128
 550:	04091203          	lh	tp,64(s2)
 554:	0100                	addi	s0,sp,128
 556:	0505                	addi	a0,a0,1
 558:	0306                	slli	t1,t1,0x1
 55a:	0901                	addi	s2,s2,0
 55c:	0004                	.insn	2, 0x0004
 55e:	0501                	addi	a0,a0,0
 560:	0615                	addi	a2,a2,5
 562:	00090003          	lb	zero,0(s2)
 566:	0100                	addi	s0,sp,128
 568:	0905                	addi	s2,s2,1
 56a:	0306                	slli	t1,t1,0x1
 56c:	0916                	slli	s2,s2,0x5
 56e:	0006                	c.slli	zero,0x1
 570:	0301                	addi	t1,t1,0
 572:	0901                	addi	s2,s2,0
 574:	0000                	unimp
 576:	0501                	addi	a0,a0,0
 578:	060c                	addi	a1,sp,768
 57a:	00090003          	lb	zero,0(s2)
 57e:	0100                	addi	s0,sp,128
 580:	0a05                	addi	s4,s4,1
 582:	04097f03          	.insn	4, 0x04097f03
 586:	0100                	addi	s0,sp,128
 588:	0104                	addi	s1,sp,128
 58a:	1605                	addi	a2,a2,-31
 58c:	0200                	addi	s0,sp,256
 58e:	0104                	addi	s1,sp,128
 590:	0306                	slli	t1,t1,0x1
 592:	0004096b          	.insn	4, 0x0004096b
 596:	0501                	addi	a0,a0,0
 598:	060d                	addi	a2,a2,3
 59a:	00090c03          	lb	s8,0(s2)
 59e:	0100                	addi	s0,sp,128
 5a0:	1605                	addi	a2,a2,-31
 5a2:	0200                	addi	s0,sp,256
 5a4:	0104                	addi	s1,sp,128
 5a6:	04097403          	.insn	4, 0x04097403
 5aa:	0100                	addi	s0,sp,128
 5ac:	0505                	addi	a0,a0,1
 5ae:	0306                	slli	t1,t1,0x1
 5b0:	0905                	addi	s2,s2,1
 5b2:	0006                	c.slli	zero,0x1
 5b4:	0501                	addi	a0,a0,0
 5b6:	00030617          	auipc	a2,0x30
 5ba:	0009                	c.nop	2
 5bc:	0100                	addi	s0,sp,128
 5be:	0e05                	addi	t3,t3,1
 5c0:	04090003          	lb	zero,64(s2)
 5c4:	0100                	addi	s0,sp,128
 5c6:	0505                	addi	a0,a0,1
 5c8:	0306                	slli	t1,t1,0x1
 5ca:	0901                	addi	s2,s2,0
 5cc:	0004                	.insn	2, 0x0004
 5ce:	0501                	addi	a0,a0,0
 5d0:	060d                	addi	a2,a2,3 # 305b9 <__heap_start+0x2f5b9>
 5d2:	00090603          	lb	a2,0(s2)
 5d6:	0100                	addi	s0,sp,128
 5d8:	0305                	addi	t1,t1,1
 5da:	0306                	slli	t1,t1,0x1
 5dc:	0900                	addi	s0,sp,144
 5de:	0004                	.insn	2, 0x0004
 5e0:	0401                	addi	s0,s0,0
 5e2:	0502                	c.slli64	a0
 5e4:	0305                	addi	t1,t1,1
 5e6:	0924                	addi	s1,sp,152
 5e8:	0000                	unimp
 5ea:	0301                	addi	t1,t1,0
 5ec:	0961                	addi	s2,s2,24
 5ee:	0000                	unimp
 5f0:	0301                	addi	t1,t1,0
 5f2:	0901                	addi	s2,s2,0
 5f4:	0000                	unimp
 5f6:	0301                	addi	t1,t1,0
 5f8:	0901                	addi	s2,s2,0
 5fa:	0000                	unimp
 5fc:	0301                	addi	t1,t1,0
 5fe:	0901                	addi	s2,s2,0
 600:	0000                	unimp
 602:	0501                	addi	a0,a0,0
 604:	060e                	slli	a2,a2,0x3
 606:	00097f03          	.insn	4, 0x00097f03
 60a:	0100                	addi	s0,sp,128
 60c:	0805                	addi	a6,a6,1
 60e:	02090103          	lb	sp,32(s2)
 612:	0100                	addi	s0,sp,128
 614:	2305                	jal	b34 <N+0x7e8>
 616:	0200                	addi	s0,sp,256
 618:	0104                	addi	s1,sp,128
 61a:	06096503          	.insn	4, 0x06096503
 61e:	0100                	addi	s0,sp,128
 620:	2c05                	jal	850 <N+0x504>
 622:	0200                	addi	s0,sp,256
 624:	0304                	addi	s1,sp,384
 626:	08090003          	lb	zero,128(s2)
 62a:	0100                	addi	s0,sp,128
 62c:	0c09                	addi	s8,s8,2
 62e:	0000                	unimp
 630:	0101                	addi	sp,sp,0
 632:	0076                	c.slli	zero,0x1d
 634:	0000                	unimp
 636:	0005                	c.nop	1
 638:	0004                	.insn	2, 0x0004
 63a:	002e                	c.slli	zero,0xb
 63c:	0000                	unimp
 63e:	0101                	addi	sp,sp,0
 640:	fb01                	bnez	a4,550 <N+0x204>
 642:	0d0e                	slli	s10,s10,0x3
 644:	0100                	addi	s0,sp,128
 646:	0101                	addi	sp,sp,0
 648:	0001                	nop
 64a:	0000                	unimp
 64c:	0001                	nop
 64e:	0100                	addi	s0,sp,128
 650:	0101                	addi	sp,sp,0
 652:	021f 004a 0000      	.insn	6, 0x004a021f
 658:	008e                	slli	ra,ra,0x3
 65a:	0000                	unimp
 65c:	0102                	c.slli64	sp
 65e:	021f 020f 00c8      	.insn	6, 0x00c8020f021f
 664:	0000                	unimp
 666:	c801                	beqz	s0,676 <N+0x32a>
 668:	0000                	unimp
 66a:	0100                	addi	s0,sp,128
 66c:	0500                	addi	s0,sp,640
 66e:	1802                	slli	a6,a6,0x20
 670:	0000                	unimp
 672:	0300                	addi	s0,sp,384
 674:	0124                	addi	s1,sp,136
 676:	04090103          	lb	sp,64(s2)
 67a:	0100                	addi	s0,sp,128
 67c:	04090203          	lb	tp,64(s2)
 680:	0100                	addi	s0,sp,128
 682:	04090103          	lb	sp,64(s2)
 686:	0100                	addi	s0,sp,128
 688:	04090103          	lb	sp,64(s2)
 68c:	0100                	addi	s0,sp,128
 68e:	04090203          	lb	tp,64(s2)
 692:	0100                	addi	s0,sp,128
 694:	04090103          	lb	sp,64(s2)
 698:	0100                	addi	s0,sp,128
 69a:	04090103          	lb	sp,64(s2)
 69e:	0100                	addi	s0,sp,128
 6a0:	04090103          	lb	sp,64(s2)
 6a4:	0100                	addi	s0,sp,128
 6a6:	0409                	addi	s0,s0,2
 6a8:	0000                	unimp
 6aa:	0101                	addi	sp,sp,0
 6ac:	0000014f          	.insn	4, 0x014f
 6b0:	0005                	c.nop	1
 6b2:	0004                	.insn	2, 0x0004
 6b4:	002e                	c.slli	zero,0xb
 6b6:	0000                	unimp
 6b8:	0101                	addi	sp,sp,0
 6ba:	fb01                	bnez	a4,5ca <N+0x27e>
 6bc:	0d0e                	slli	s10,s10,0x3
 6be:	0100                	addi	s0,sp,128
 6c0:	0101                	addi	sp,sp,0
 6c2:	0001                	nop
 6c4:	0000                	unimp
 6c6:	0001                	nop
 6c8:	0100                	addi	s0,sp,128
 6ca:	0101                	addi	sp,sp,0
 6cc:	021f 004a 0000      	.insn	6, 0x004a021f
 6d2:	008e                	slli	ra,ra,0x3
 6d4:	0000                	unimp
 6d6:	0102                	c.slli64	sp
 6d8:	021f 020f 00d1      	.insn	6, 0x00d1020f021f
 6de:	0000                	unimp
 6e0:	d101                	beqz	a0,5e0 <N+0x294>
 6e2:	0000                	unimp
 6e4:	0100                	addi	s0,sp,128
 6e6:	0500                	addi	s0,sp,640
 6e8:	3c02                	.insn	2, 0x3c02
 6ea:	0000                	unimp
 6ec:	0300                	addi	s0,sp,384
 6ee:	00c4                	addi	s1,sp,68
 6f0:	0301                	addi	t1,t1,0
 6f2:	0901                	addi	s2,s2,0
 6f4:	0004                	.insn	2, 0x0004
 6f6:	0301                	addi	t1,t1,0
 6f8:	0904                	addi	s1,sp,144
 6fa:	0004                	.insn	2, 0x0004
 6fc:	0301                	addi	t1,t1,0
 6fe:	0901                	addi	s2,s2,0
 700:	0004                	.insn	2, 0x0004
 702:	0301                	addi	t1,t1,0
 704:	0901                	addi	s2,s2,0
 706:	0004                	.insn	2, 0x0004
 708:	0301                	addi	t1,t1,0
 70a:	0901                	addi	s2,s2,0
 70c:	0004                	.insn	2, 0x0004
 70e:	0301                	addi	t1,t1,0
 710:	0901                	addi	s2,s2,0
 712:	0004                	.insn	2, 0x0004
 714:	0301                	addi	t1,t1,0
 716:	0901                	addi	s2,s2,0
 718:	0004                	.insn	2, 0x0004
 71a:	0301                	addi	t1,t1,0
 71c:	0902                	c.slli64	s2
 71e:	0004                	.insn	2, 0x0004
 720:	0301                	addi	t1,t1,0
 722:	0901                	addi	s2,s2,0
 724:	0004                	.insn	2, 0x0004
 726:	0301                	addi	t1,t1,0
 728:	0901                	addi	s2,s2,0
 72a:	0004                	.insn	2, 0x0004
 72c:	0301                	addi	t1,t1,0
 72e:	0901                	addi	s2,s2,0
 730:	0004                	.insn	2, 0x0004
 732:	0301                	addi	t1,t1,0
 734:	0902                	c.slli64	s2
 736:	0004                	.insn	2, 0x0004
 738:	0301                	addi	t1,t1,0
 73a:	0902                	c.slli64	s2
 73c:	0004                	.insn	2, 0x0004
 73e:	0301                	addi	t1,t1,0
 740:	0901                	addi	s2,s2,0
 742:	0004                	.insn	2, 0x0004
 744:	0301                	addi	t1,t1,0
 746:	0901                	addi	s2,s2,0
 748:	0004                	.insn	2, 0x0004
 74a:	0301                	addi	t1,t1,0
 74c:	0902                	c.slli64	s2
 74e:	0004                	.insn	2, 0x0004
 750:	0301                	addi	t1,t1,0
 752:	0901                	addi	s2,s2,0
 754:	0004                	.insn	2, 0x0004
 756:	0301                	addi	t1,t1,0
 758:	0901                	addi	s2,s2,0
 75a:	0004                	.insn	2, 0x0004
 75c:	0301                	addi	t1,t1,0
 75e:	0902                	c.slli64	s2
 760:	0004                	.insn	2, 0x0004
 762:	0301                	addi	t1,t1,0
 764:	0906                	slli	s2,s2,0x1
 766:	0004                	.insn	2, 0x0004
 768:	0301                	addi	t1,t1,0
 76a:	0901                	addi	s2,s2,0
 76c:	0004                	.insn	2, 0x0004
 76e:	0301                	addi	t1,t1,0
 770:	0901                	addi	s2,s2,0
 772:	0004                	.insn	2, 0x0004
 774:	0301                	addi	t1,t1,0
 776:	0901                	addi	s2,s2,0
 778:	0004                	.insn	2, 0x0004
 77a:	0301                	addi	t1,t1,0
 77c:	0905                	addi	s2,s2,1
 77e:	0004                	.insn	2, 0x0004
 780:	0301                	addi	t1,t1,0
 782:	0902                	c.slli64	s2
 784:	0004                	.insn	2, 0x0004
 786:	0301                	addi	t1,t1,0
 788:	0902                	c.slli64	s2
 78a:	0004                	.insn	2, 0x0004
 78c:	0301                	addi	t1,t1,0
 78e:	0901                	addi	s2,s2,0
 790:	0004                	.insn	2, 0x0004
 792:	0301                	addi	t1,t1,0
 794:	0902                	c.slli64	s2
 796:	0004                	.insn	2, 0x0004
 798:	0301                	addi	t1,t1,0
 79a:	0902                	c.slli64	s2
 79c:	0004                	.insn	2, 0x0004
 79e:	0301                	addi	t1,t1,0
 7a0:	0901                	addi	s2,s2,0
 7a2:	0004                	.insn	2, 0x0004
 7a4:	0301                	addi	t1,t1,0
 7a6:	0901                	addi	s2,s2,0
 7a8:	0004                	.insn	2, 0x0004
 7aa:	0301                	addi	t1,t1,0
 7ac:	0901                	addi	s2,s2,0
 7ae:	0004                	.insn	2, 0x0004
 7b0:	0301                	addi	t1,t1,0
 7b2:	0904                	addi	s1,sp,144
 7b4:	0004                	.insn	2, 0x0004
 7b6:	0301                	addi	t1,t1,0
 7b8:	0901                	addi	s2,s2,0
 7ba:	0004                	.insn	2, 0x0004
 7bc:	0301                	addi	t1,t1,0
 7be:	0901                	addi	s2,s2,0
 7c0:	0004                	.insn	2, 0x0004
 7c2:	0301                	addi	t1,t1,0
 7c4:	0902                	c.slli64	s2
 7c6:	0004                	.insn	2, 0x0004
 7c8:	0301                	addi	t1,t1,0
 7ca:	0901                	addi	s2,s2,0
 7cc:	0004                	.insn	2, 0x0004
 7ce:	0301                	addi	t1,t1,0
 7d0:	0901                	addi	s2,s2,0
 7d2:	0004                	.insn	2, 0x0004
 7d4:	0301                	addi	t1,t1,0
 7d6:	0902                	c.slli64	s2
 7d8:	0004                	.insn	2, 0x0004
 7da:	0301                	addi	t1,t1,0
 7dc:	0901                	addi	s2,s2,0
 7de:	0004                	.insn	2, 0x0004
 7e0:	0301                	addi	t1,t1,0
 7e2:	0902                	c.slli64	s2
 7e4:	0004                	.insn	2, 0x0004
 7e6:	0301                	addi	t1,t1,0
 7e8:	0901                	addi	s2,s2,0
 7ea:	0004                	.insn	2, 0x0004
 7ec:	0301                	addi	t1,t1,0
 7ee:	0901                	addi	s2,s2,0
 7f0:	0004                	.insn	2, 0x0004
 7f2:	0301                	addi	t1,t1,0
 7f4:	0901                	addi	s2,s2,0
 7f6:	0004                	.insn	2, 0x0004
 7f8:	0901                	addi	s2,s2,0
 7fa:	0004                	.insn	2, 0x0004
 7fc:	0100                	addi	s0,sp,128
 7fe:	Address 0x7fe is out of bounds.


Disassembly of section .debug_str:

00000000 <.debug_str>:
   0:	63656863          	bltu	a0,s6,630 <N+0x2e4>
   4:	756f006b          	.insn	4, 0x756f006b
   8:	6c74                	.insn	2, 0x6c74
   a:	6e6c                	.insn	2, 0x6e6c
   c:	6c00                	.insn	2, 0x6c00
   e:	20676e6f          	jal	t3,76214 <__heap_start+0x75214>
  12:	6e75                	lui	t3,0x1d
  14:	6e676973          	.insn	4, 0x6e676973
  18:	6465                	lui	s0,0x19
  1a:	6920                	.insn	2, 0x6920
  1c:	746e                	.insn	2, 0x746e
  1e:	6f00                	.insn	2, 0x6f00
  20:	7475                	lui	s0,0xffffd
  22:	0062                	c.slli	zero,0x18
  24:	6164                	.insn	2, 0x6164
  26:	6174                	.insn	2, 0x6174
  28:	6f00                	.insn	2, 0x6f00
  2a:	7475                	lui	s0,0xffffd
  2c:	006c                	addi	a1,sp,12
  2e:	6e75                	lui	t3,0x1d
  30:	6e676973          	.insn	4, 0x6e676973
  34:	6465                	lui	s0,0x19
  36:	6320                	.insn	2, 0x6320
  38:	6168                	.insn	2, 0x6168
  3a:	0072                	c.slli	zero,0x1c
  3c:	616d                	addi	sp,sp,240
  3e:	6e69                	lui	t3,0x1a
  40:	7300                	.insn	2, 0x7300
  42:	6769                	lui	a4,0x1a
  44:	006e                	c.slli	zero,0x1b
  46:	5f5f 6964 7376      	.insn	6, 0x737669645f5f
  4c:	3369                	jal	fffffdd6 <__heap_start+0xffffedd6>
  4e:	5f00                	lw	s0,56(a4)
  50:	6d5f 6c75 6973      	.insn	6, 0x69736c756d5f
  56:	4e470033          	.insn	4, 0x4e470033
  5a:	2055                	jal	fe <main+0xe>
  5c:	20373143          	.insn	4, 0x20373143
  60:	3431                	jal	fffffa6c <__heap_start+0xffffea6c>
  62:	312e                	.insn	2, 0x312e
  64:	302e                	.insn	2, 0x302e
  66:	2d20                	.insn	2, 0x2d20
  68:	616d                	addi	sp,sp,240
  6a:	6962                	.insn	2, 0x6962
  6c:	693d                	lui	s2,0xf
  6e:	706c                	.insn	2, 0x706c
  70:	2d203233          	.insn	4, 0x2d203233
  74:	696d                	lui	s2,0x1b
  76:	732d6173          	.insn	4, 0x732d6173
  7a:	6570                	.insn	2, 0x6570
  7c:	30323d63          	.insn	4, 0x30323d63
  80:	3931                	jal	fffffc9c <__heap_start+0xffffec9c>
  82:	3231                	jal	fffff98e <__heap_start+0xffffe98e>
  84:	3331                	jal	fffffd90 <__heap_start+0xffffed90>
  86:	2d20                	.insn	2, 0x2d20
  88:	616d                	addi	sp,sp,240
  8a:	6372                	.insn	2, 0x6372
  8c:	3d68                	.insn	2, 0x3d68
  8e:	7672                	.insn	2, 0x7672
  90:	63693233          	.insn	4, 0x63693233
  94:	2d20                	.insn	2, 0x2d20
  96:	4f2d2067          	.insn	4, 0x4f2d2067
  9a:	2032                	.insn	2, 0x2032
  9c:	732d                	lui	t1,0xfffeb
  9e:	6474                	.insn	2, 0x6474
  a0:	633d                	lui	t1,0xf
  a2:	3731                	jal	ffffffae <__heap_start+0xffffefae>
  a4:	5f00                	lw	s0,56(a4)
  a6:	6d5f 646f 6973      	.insn	6, 0x6973646f6d5f
  ac:	622f0033          	.insn	4, 0x622f0033
  b0:	6975                	lui	s2,0x1d
  b2:	646c                	.insn	2, 0x646c
  b4:	7369722f          	.insn	4, 0x7369722f
  b8:	34367663          	bgeu	a2,gp,404 <N+0xb8>
  bc:	652d                	lui	a0,0xb
  be:	666c                	.insn	2, 0x666c
  c0:	672d                	lui	a4,0xb
  c2:	732f6363          	bltu	t5,s2,7e8 <N+0x49c>
  c6:	6372                	.insn	2, 0x6372
  c8:	6363672f          	.insn	4, 0x6363672f
  cc:	312d                	jal	fffffcf6 <__heap_start+0xffffecf6>
  ce:	2e34                	.insn	2, 0x2e34
  d0:	2e31                	jal	3ec <N+0xa0>
  d2:	2f30                	.insn	2, 0x2f30
  d4:	696c                	.insn	2, 0x696c
  d6:	6762                	.insn	2, 0x6762
  d8:	632f6363          	bltu	t5,s2,6fe <N+0x3b2>
  dc:	69666e6f          	jal	t3,66772 <__heap_start+0x65772>
  e0:	69722f67          	.insn	4, 0x69722f67
  e4:	2f766373          	.insn	4, 0x2f766373
  e8:	756d                	lui	a0,0xffffb
  ea:	646c                	.insn	2, 0x646c
  ec:	3369                	jal	fffffe76 <__heap_start+0xffffee76>
  ee:	532e                	lw	t1,232(sp)
  f0:	2f00                	.insn	2, 0x2f00
  f2:	7562                	.insn	2, 0x7562
  f4:	6c69                	lui	s8,0x1a
  f6:	2f64                	.insn	2, 0x2f64
  f8:	6972                	.insn	2, 0x6972
  fa:	36766373          	.insn	4, 0x36766373
  fe:	2d34                	.insn	2, 0x2d34
 100:	6c65                	lui	s8,0x19
 102:	2d66                	.insn	2, 0x2d66
 104:	2f636367          	.insn	4, 0x2f636367
 108:	2f637273          	.insn	4, 0x2f637273
 10c:	7562                	.insn	2, 0x7562
 10e:	6c69                	lui	s8,0x1a
 110:	2d64                	.insn	2, 0x2d64
 112:	2f636367          	.insn	4, 0x2f636367
 116:	6972                	.insn	2, 0x6972
 118:	36766373          	.insn	4, 0x36766373
 11c:	2d34                	.insn	2, 0x2d34
 11e:	6c65                	lui	s8,0x19
 120:	2f66                	.insn	2, 0x2f66
 122:	7672                	.insn	2, 0x7672
 124:	2f693233          	.insn	4, 0x2f693233
 128:	6c69                	lui	s8,0x1a
 12a:	3370                	.insn	2, 0x3370
 12c:	2f32                	.insn	2, 0x2f32
 12e:	696c                	.insn	2, 0x696c
 130:	6762                	.insn	2, 0x6762
 132:	47006363          	bltu	zero,a6,598 <N+0x24c>
 136:	554e                	lw	a0,240(sp)
 138:	4120                	lw	s0,64(a0)
 13a:	2e322053          	.insn	4, 0x2e322053
 13e:	2f003933          	.insn	4, 0x2f003933
 142:	7562                	.insn	2, 0x7562
 144:	6c69                	lui	s8,0x1a
 146:	2f64                	.insn	2, 0x2f64
 148:	6972                	.insn	2, 0x6972
 14a:	36766373          	.insn	4, 0x36766373
 14e:	2d34                	.insn	2, 0x2d34
 150:	6c65                	lui	s8,0x19
 152:	2d66                	.insn	2, 0x2d66
 154:	2f636367          	.insn	4, 0x2f636367
 158:	2f637273          	.insn	4, 0x2f637273
 15c:	2d636367          	.insn	4, 0x2d636367
 160:	3431                	jal	fffffb6c <__heap_start+0xffffeb6c>
 162:	312e                	.insn	2, 0x312e
 164:	302e                	.insn	2, 0x302e
 166:	62696c2f          	.insn	4, 0x62696c2f
 16a:	2f636367          	.insn	4, 0x2f636367
 16e:	666e6f63          	bltu	t3,t1,7ec <N+0x4a0>
 172:	6769                	lui	a4,0x1a
 174:	7369722f          	.insn	4, 0x7369722f
 178:	642f7663          	bgeu	t5,sp,7c4 <N+0x478>
 17c:	7669                	lui	a2,0xffffa
 17e:	532e                	lw	t1,232(sp)
 180:	5f00                	lw	s0,56(a4)
 182:	685f 6469 6564      	.insn	6, 0x65646469685f
 188:	5f6e                	lw	t5,248(sp)
 18a:	5f5f 6475 7669      	.insn	6, 0x766964755f5f
 190:	00336973          	.insn	4, 0x00336973
 194:	5f5f 6d75 646f      	.insn	6, 0x646f6d755f5f
 19a:	00336973          	.insn	4, 0x00336973

Disassembly of section .debug_line_str:

00000000 <.debug_line_str>:
   0:	7070612f          	.insn	4, 0x7070612f
   4:	7365742f          	.insn	4, 0x7365742f
   8:	6374                	.insn	2, 0x6374
   a:	7361                	lui	t1,0xffff8
   c:	0065                	c.nop	25
   e:	7070612f          	.insn	4, 0x7070612f
  12:	7365742f          	.insn	4, 0x7365742f
  16:	6374                	.insn	2, 0x6374
  18:	7361                	lui	t1,0xffff8
  1a:	2f65                	jal	7d2 <N+0x486>
  1c:	7066                	.insn	2, 0x7066
  1e:	732f6167          	.insn	4, 0x732f6167
  22:	6174                	.insn	2, 0x6174
  24:	6574                	.insn	2, 0x6574
  26:	656d                	lui	a0,0x1b
  28:	746e                	.insn	2, 0x746e
  2a:	745f 7365 2e74      	.insn	6, 0x2e747365745f
  30:	612f0063          	beq	t5,s2,630 <N+0x2e4>
  34:	7070                	.insn	2, 0x7070
  36:	7365742f          	.insn	4, 0x7365742f
  3a:	6374                	.insn	2, 0x6374
  3c:	7361                	lui	t1,0xffff8
  3e:	2f65                	jal	7f6 <N+0x4aa>
  40:	7066                	.insn	2, 0x7066
  42:	69006167          	.insn	4, 0x69006167
  46:	00682e6f          	jal	t3,8204c <__heap_start+0x8104c>
  4a:	6975622f          	.insn	4, 0x6975622f
  4e:	646c                	.insn	2, 0x646c
  50:	7369722f          	.insn	4, 0x7369722f
  54:	34367663          	bgeu	a2,gp,3a0 <N+0x54>
  58:	652d                	lui	a0,0xb
  5a:	666c                	.insn	2, 0x666c
  5c:	672d                	lui	a4,0xb
  5e:	732f6363          	bltu	t5,s2,784 <N+0x438>
  62:	6372                	.insn	2, 0x6372
  64:	6975622f          	.insn	4, 0x6975622f
  68:	646c                	.insn	2, 0x646c
  6a:	672d                	lui	a4,0xb
  6c:	722f6363          	bltu	t5,sp,792 <N+0x446>
  70:	7369                	lui	t1,0xffffa
  72:	34367663          	bgeu	a2,gp,3be <N+0x72>
  76:	652d                	lui	a0,0xb
  78:	666c                	.insn	2, 0x666c
  7a:	3376722f          	.insn	4, 0x3376722f
  7e:	6932                	.insn	2, 0x6932
  80:	706c692f          	.insn	4, 0x706c692f
  84:	6c2f3233          	.insn	4, 0x6c2f3233
  88:	6269                	lui	tp,0x1a
  8a:	00636367          	.insn	4, 0x00636367
  8e:	6975622f          	.insn	4, 0x6975622f
  92:	646c                	.insn	2, 0x646c
  94:	7369722f          	.insn	4, 0x7369722f
  98:	34367663          	bgeu	a2,gp,3e4 <N+0x98>
  9c:	652d                	lui	a0,0xb
  9e:	666c                	.insn	2, 0x666c
  a0:	672d                	lui	a4,0xb
  a2:	732f6363          	bltu	t5,s2,7c8 <N+0x47c>
  a6:	6372                	.insn	2, 0x6372
  a8:	6363672f          	.insn	4, 0x6363672f
  ac:	312d                	jal	fffffcd6 <__heap_start+0xffffecd6>
  ae:	2e34                	.insn	2, 0x2e34
  b0:	2e31                	jal	3cc <N+0x80>
  b2:	2f30                	.insn	2, 0x2f30
  b4:	696c                	.insn	2, 0x696c
  b6:	6762                	.insn	2, 0x6762
  b8:	632f6363          	bltu	t5,s2,6de <N+0x392>
  bc:	69666e6f          	jal	t3,66752 <__heap_start+0x65752>
  c0:	69722f67          	.insn	4, 0x69722f67
  c4:	00766373          	.insn	4, 0x00766373
  c8:	756d                	lui	a0,0xffffb
  ca:	646c                	.insn	2, 0x646c
  cc:	3369                	jal	fffffe56 <__heap_start+0xffffee56>
  ce:	532e                	lw	t1,232(sp)
  d0:	6400                	.insn	2, 0x6400
  d2:	7669                	lui	a2,0xffffa
  d4:	532e                	lw	t1,232(sp)
	...

Disassembly of section .debug_frame:

00000000 <.debug_frame>:
   0:	000c                	.insn	2, 0x000c
   2:	0000                	unimp
   4:	ffff                	.insn	2, 0xffff
   6:	ffff                	.insn	2, 0xffff
   8:	7c010003          	lb	zero,1984(sp)
   c:	0d01                	addi	s10,s10,0
   e:	0002                	c.slli64	zero
  10:	0078                	addi	a4,sp,12
  12:	0000                	unimp
  14:	0000                	unimp
  16:	0000                	unimp
  18:	00f0                	addi	a2,sp,76
  1a:	0000                	unimp
  1c:	0206                	slli	tp,tp,0x1
  1e:	0000                	unimp
  20:	0e42                	slli	t3,t3,0x10
  22:	01e0                	addi	s0,sp,204
  24:	814a                	mv	sp,s2
  26:	9801                	andi	s0,s0,-32
  28:	020a                	slli	tp,tp,0x2
  2a:	995e                	add	s2,s2,s7
  2c:	0694780b          	.insn	4, 0x0694780b
  30:	0795                	addi	a5,a5,5
  32:	02880997          	auipc	s3,0x2880
  36:	0389                	addi	t2,t2,2
  38:	0492                	slli	s1,s1,0x4
  3a:	08960593          	addi	a1,a2,137 # ffffa089 <__heap_start+0xffff9089>
  3e:	0c9a                	slli	s9,s9,0x6
  40:	f4030d9b          	.insn	4, 0xf4030d9b
  44:	c800                	sw	s0,16(s0)
  46:	c942                	sw	a6,144(sp)
  48:	d242                	sw	a6,36(sp)
  4a:	d342                	sw	a6,164(sp)
  4c:	d442                	sw	a6,40(sp)
  4e:	d542                	sw	a6,168(sp)
  50:	d642                	sw	a6,44(sp)
  52:	d742                	sw	a6,172(sp)
  54:	d942                	sw	a6,176(sp)
  56:	da42                	sw	a6,52(sp)
  58:	db42                	sw	a6,180(sp)
  5a:	0a42                	slli	s4,s4,0x10
  5c:	42c1                	li	t0,16
  5e:	44d8                	lw	a4,12(s1)
  60:	000e                	c.slli	zero,0x3
  62:	0b42                	slli	s6,s6,0x10
  64:	8858                	.insn	2, 0x8858
  66:	8902                	jr	s2
  68:	93049203          	lh	tp,-1744(s1)
  6c:	9405                	srai	s0,s0,0x21
  6e:	9506                	add	a0,a0,ra
  70:	97089607          	.insn	4, 0x97089607
  74:	9909                	andi	a0,a0,-30
  76:	9b0c9a0b          	.insn	4, 0x9b0c9a0b
  7a:	660d                	lui	a2,0x3
  7c:	c9c8                	sw	a0,20(a1)
  7e:	d3d2                	sw	s4,228(sp)
  80:	d5d4                	sw	a3,44(a1)
  82:	d7d6                	sw	s5,236(sp)
  84:	dad9                	beqz	a3,1a <__mulsi3+0x2>
  86:	0b9950db          	.insn	4, 0x0b9950db
  8a:	d942                	sw	a6,176(sp)
