
/app/testcase/fpga/superloop.elf:     file format elf32-littleriscv


Disassembly of section .text:

00000000 <_start>:
   0:	00020137          	lui	sp,0x20
   4:	0c8000ef          	jal	cc <main>
   8:	0ff00513          	li	a0,255
   c:	000306b7          	lui	a3,0x30
  10:	00a68223          	sb	a0,4(a3) # 30004 <__heap_start+0x2f004>
  14:	bfe5                	j	c <_start+0xc>
	...

00000018 <__divsi3>:
  18:	06054063          	bltz	a0,78 <__umodsi3+0x10>
  1c:	0605c663          	bltz	a1,88 <__umodsi3+0x20>

00000020 <__hidden___udivsi3>:
  20:	00058613          	mv	a2,a1
  24:	00050593          	mv	a1,a0
  28:	fff00513          	li	a0,-1
  2c:	02060c63          	beqz	a2,64 <__hidden___udivsi3+0x44>
  30:	00100693          	li	a3,1
  34:	00b67a63          	bgeu	a2,a1,48 <__hidden___udivsi3+0x28>
  38:	00c05863          	blez	a2,48 <__hidden___udivsi3+0x28>
  3c:	00161613          	slli	a2,a2,0x1
  40:	00169693          	slli	a3,a3,0x1
  44:	feb66ae3          	bltu	a2,a1,38 <__hidden___udivsi3+0x18>
  48:	00000513          	li	a0,0
  4c:	00c5e663          	bltu	a1,a2,58 <__hidden___udivsi3+0x38>
  50:	40c585b3          	sub	a1,a1,a2
  54:	00d56533          	or	a0,a0,a3
  58:	0016d693          	srli	a3,a3,0x1
  5c:	00165613          	srli	a2,a2,0x1
  60:	fe0696e3          	bnez	a3,4c <__hidden___udivsi3+0x2c>
  64:	00008067          	ret

00000068 <__umodsi3>:
  68:	00008293          	mv	t0,ra
  6c:	fb5ff0ef          	jal	20 <__hidden___udivsi3>
  70:	00058513          	mv	a0,a1
  74:	00028067          	jr	t0
  78:	40a00533          	neg	a0,a0
  7c:	00b04863          	bgtz	a1,8c <__umodsi3+0x24>
  80:	40b005b3          	neg	a1,a1
  84:	f9dff06f          	j	20 <__hidden___udivsi3>
  88:	40b005b3          	neg	a1,a1
  8c:	00008293          	mv	t0,ra
  90:	f91ff0ef          	jal	20 <__hidden___udivsi3>
  94:	40a00533          	neg	a0,a0
  98:	00028067          	jr	t0

0000009c <__modsi3>:
  9c:	00008293          	mv	t0,ra
  a0:	0005ca63          	bltz	a1,b4 <__modsi3+0x18>
  a4:	00054c63          	bltz	a0,bc <__modsi3+0x20>
  a8:	f79ff0ef          	jal	20 <__hidden___udivsi3>
  ac:	00058513          	mv	a0,a1
  b0:	00028067          	jr	t0
  b4:	40b005b3          	neg	a1,a1
  b8:	fe0558e3          	bgez	a0,a8 <__modsi3+0xc>
  bc:	40a00533          	neg	a0,a0
  c0:	f61ff0ef          	jal	20 <__hidden___udivsi3>
  c4:	40b00533          	neg	a0,a1
  c8:	00028067          	jr	t0

Disassembly of section .text.startup:

000000cc <main>:
  cc:	7139                	addi	sp,sp,-64
  ce:	de06                	sw	ra,60(sp)
  d0:	dc22                	sw	s0,56(sp)
  d2:	da26                	sw	s1,52(sp)
  d4:	d84a                	sw	s2,48(sp)
  d6:	d64e                	sw	s3,44(sp)
  d8:	d452                	sw	s4,40(sp)
  da:	d256                	sw	s5,36(sp)
  dc:	00030637          	lui	a2,0x30
  e0:	46a9                	li	a3,10
  e2:	a019                	j	e8 <main+0x1c>
  e4:	12d79f63          	bne	a5,a3,222 <main+0x156>
  e8:	00064703          	lbu	a4,0(a2) # 30000 <__heap_start+0x2f000>
  ec:	0ff77793          	zext.b	a5,a4
  f0:	fb75                	bnez	a4,e4 <main+0x18>
  f2:	4681                	li	a3,0
  f4:	4581                	li	a1,0
  f6:	02d00893          	li	a7,45
  fa:	4825                	li	a6,9
  fc:	00030537          	lui	a0,0x30
 100:	a811                	j	114 <main+0x48>
 102:	02c86e63          	bltu	a6,a2,13e <main+0x72>
 106:	00054603          	lbu	a2,0(a0) # 30000 <__heap_start+0x2f000>
 10a:	fd070593          	addi	a1,a4,-48
 10e:	0ff67793          	zext.b	a5,a2
 112:	c615                	beqz	a2,13e <main+0x72>
 114:	00259713          	slli	a4,a1,0x2
 118:	972e                	add	a4,a4,a1
 11a:	0706                	slli	a4,a4,0x1
 11c:	fd078613          	addi	a2,a5,-48
 120:	973e                	add	a4,a4,a5
 122:	0ff67613          	zext.b	a2,a2
 126:	fd179ee3          	bne	a5,a7,102 <main+0x36>
 12a:	1c069b63          	bnez	a3,300 <main+0x234>
 12e:	00054603          	lbu	a2,0(a0)
 132:	4685                	li	a3,1
 134:	fd070593          	addi	a1,a4,-48
 138:	0ff67793          	zext.b	a5,a2
 13c:	fe61                	bnez	a2,114 <main+0x48>
 13e:	1c069163          	bnez	a3,300 <main+0x234>
 142:	32b02023          	sw	a1,800(zero) # 320 <N>
 146:	12b05a63          	blez	a1,27a <main+0x1ae>
 14a:	31802303          	lw	t1,792(zero) # 318 <h>
 14e:	31c02383          	lw	t2,796(zero) # 31c <total>
 152:	31402e03          	lw	t3,788(zero) # 314 <i>
 156:	0585                	addi	a1,a1,1
 158:	4401                	li	s0,0
 15a:	4785                	li	a5,1
 15c:	4605                	li	a2,1
 15e:	4805                	li	a6,1
 160:	4885                	li	a7,1
 162:	4505                	li	a0,1
 164:	4685                	li	a3,1
 166:	0ac78863          	beq	a5,a2,216 <main+0x14a>
 16a:	0b078663          	beq	a5,a6,216 <main+0x14a>
 16e:	0b178463          	beq	a5,a7,216 <main+0x14a>
 172:	0aa78263          	beq	a5,a0,216 <main+0x14a>
 176:	0ad78063          	beq	a5,a3,216 <main+0x14a>
 17a:	08678e63          	beq	a5,t1,216 <main+0x14a>
 17e:	09c78c63          	beq	a5,t3,216 <main+0x14a>
 182:	31002703          	lw	a4,784(zero) # 310 <j>
 186:	08e78863          	beq	a5,a4,216 <main+0x14a>
 18a:	30c02e83          	lw	t4,780(zero) # 30c <__bss_start>
 18e:	09d78463          	beq	a5,t4,216 <main+0x14a>
 192:	09060263          	beq	a2,a6,216 <main+0x14a>
 196:	09160063          	beq	a2,a7,216 <main+0x14a>
 19a:	06a60e63          	beq	a2,a0,216 <main+0x14a>
 19e:	06d60c63          	beq	a2,a3,216 <main+0x14a>
 1a2:	06c30a63          	beq	t1,a2,216 <main+0x14a>
 1a6:	06ce0863          	beq	t3,a2,216 <main+0x14a>
 1aa:	06c70663          	beq	a4,a2,216 <main+0x14a>
 1ae:	06ce8463          	beq	t4,a2,216 <main+0x14a>
 1b2:	07180263          	beq	a6,a7,216 <main+0x14a>
 1b6:	06a80063          	beq	a6,a0,216 <main+0x14a>
 1ba:	04d80e63          	beq	a6,a3,216 <main+0x14a>
 1be:	05030c63          	beq	t1,a6,216 <main+0x14a>
 1c2:	050e0a63          	beq	t3,a6,216 <main+0x14a>
 1c6:	05070863          	beq	a4,a6,216 <main+0x14a>
 1ca:	050e8663          	beq	t4,a6,216 <main+0x14a>
 1ce:	04a88463          	beq	a7,a0,216 <main+0x14a>
 1d2:	04d88263          	beq	a7,a3,216 <main+0x14a>
 1d6:	05130063          	beq	t1,a7,216 <main+0x14a>
 1da:	031e0e63          	beq	t3,a7,216 <main+0x14a>
 1de:	03170c63          	beq	a4,a7,216 <main+0x14a>
 1e2:	031e8a63          	beq	t4,a7,216 <main+0x14a>
 1e6:	02d50863          	beq	a0,a3,216 <main+0x14a>
 1ea:	02a30663          	beq	t1,a0,216 <main+0x14a>
 1ee:	02ae0463          	beq	t3,a0,216 <main+0x14a>
 1f2:	02a70263          	beq	a4,a0,216 <main+0x14a>
 1f6:	02ae8063          	beq	t4,a0,216 <main+0x14a>
 1fa:	00d30e63          	beq	t1,a3,216 <main+0x14a>
 1fe:	00de0c63          	beq	t3,a3,216 <main+0x14a>
 202:	00d70a63          	beq	a4,a3,216 <main+0x14a>
 206:	00de8863          	beq	t4,a3,216 <main+0x14a>
 20a:	00ee0663          	beq	t3,a4,216 <main+0x14a>
 20e:	01d30463          	beq	t1,t4,216 <main+0x14a>
 212:	0385                	addi	t2,t2,1
 214:	4405                	li	s0,1
 216:	00168713          	addi	a4,a3,1
 21a:	00e58c63          	beq	a1,a4,232 <main+0x166>
 21e:	86ba                	mv	a3,a4
 220:	b799                	j	166 <main+0x9a>
 222:	02000713          	li	a4,32
 226:	ece781e3          	beq	a5,a4,e8 <main+0x1c>
 22a:	4725                	li	a4,9
 22c:	eae78ee3          	beq	a5,a4,e8 <main+0x1c>
 230:	b5c9                	j	f2 <main+0x26>
 232:	00150713          	addi	a4,a0,1
 236:	00d50563          	beq	a0,a3,240 <main+0x174>
 23a:	853a                	mv	a0,a4
 23c:	4685                	li	a3,1
 23e:	b725                	j	166 <main+0x9a>
 240:	00188713          	addi	a4,a7,1
 244:	00a88563          	beq	a7,a0,24e <main+0x182>
 248:	88ba                	mv	a7,a4
 24a:	4505                	li	a0,1
 24c:	bf21                	j	164 <main+0x98>
 24e:	00180713          	addi	a4,a6,1
 252:	01180563          	beq	a6,a7,25c <main+0x190>
 256:	883a                	mv	a6,a4
 258:	4885                	li	a7,1
 25a:	b721                	j	162 <main+0x96>
 25c:	00160713          	addi	a4,a2,1
 260:	01060563          	beq	a2,a6,26a <main+0x19e>
 264:	863a                	mv	a2,a4
 266:	4805                	li	a6,1
 268:	bde5                	j	160 <main+0x94>
 26a:	00178713          	addi	a4,a5,1
 26e:	00c78563          	beq	a5,a2,278 <main+0x1ac>
 272:	87ba                	mv	a5,a4
 274:	4605                	li	a2,1
 276:	b5e5                	j	15e <main+0x92>
 278:	e459                	bnez	s0,306 <main+0x23a>
 27a:	31c02403          	lw	s0,796(zero) # 31c <total>
 27e:	4981                	li	s3,0
 280:	00045563          	bgez	s0,28a <main+0x1be>
 284:	40800433          	neg	s0,s0
 288:	4985                	li	s3,1
 28a:	4481                	li	s1,0
 28c:	01410913          	addi	s2,sp,20 # 20014 <__heap_start+0x1f014>
 290:	4a25                	li	s4,9
 292:	87a6                	mv	a5,s1
 294:	45a9                	li	a1,10
 296:	8522                	mv	a0,s0
 298:	c63e                	sw	a5,12(sp)
 29a:	0485                	addi	s1,s1,1
 29c:	3501                	jal	9c <__modsi3>
 29e:	03050713          	addi	a4,a0,48
 2a2:	00990ab3          	add	s5,s2,s1
 2a6:	feea8fa3          	sb	a4,-1(s5)
 2aa:	8522                	mv	a0,s0
 2ac:	45a9                	li	a1,10
 2ae:	33ad                	jal	18 <__divsi3>
 2b0:	8aa2                	mv	s5,s0
 2b2:	47b2                	lw	a5,12(sp)
 2b4:	842a                	mv	s0,a0
 2b6:	fd5a4ee3          	blt	s4,s5,292 <main+0x1c6>
 2ba:	00098b63          	beqz	s3,2d0 <main+0x204>
 2be:	01048793          	addi	a5,s1,16
 2c2:	0818                	addi	a4,sp,16
 2c4:	973e                	add	a4,a4,a5
 2c6:	02d00693          	li	a3,45
 2ca:	87a6                	mv	a5,s1
 2cc:	fed70a23          	sb	a3,-12(a4)
 2d0:	97ca                	add	a5,a5,s2
 2d2:	00030737          	lui	a4,0x30
 2d6:	0007c603          	lbu	a2,0(a5)
 2da:	86be                	mv	a3,a5
 2dc:	17fd                	addi	a5,a5,-1
 2de:	00c70023          	sb	a2,0(a4) # 30000 <__heap_start+0x2f000>
 2e2:	fed91ae3          	bne	s2,a3,2d6 <main+0x20a>
 2e6:	47a9                	li	a5,10
 2e8:	00f70023          	sb	a5,0(a4)
 2ec:	50f2                	lw	ra,60(sp)
 2ee:	5462                	lw	s0,56(sp)
 2f0:	54d2                	lw	s1,52(sp)
 2f2:	5942                	lw	s2,48(sp)
 2f4:	59b2                	lw	s3,44(sp)
 2f6:	5a22                	lw	s4,40(sp)
 2f8:	5a92                	lw	s5,36(sp)
 2fa:	4501                	li	a0,0
 2fc:	6121                	addi	sp,sp,64
 2fe:	8082                	ret
 300:	40b005b3          	neg	a1,a1
 304:	bd3d                	j	142 <main+0x76>
 306:	30702e23          	sw	t2,796(zero) # 31c <total>
 30a:	bf85                	j	27a <main+0x1ae>
