
/app/testcase/fpga/superloop.elf:     file format elf32-littleriscv


Disassembly of section .text:

00000000 <_start>:
   0:	00020137          	lui	sp,0x20
   4:	0c8000ef          	jal	cc <main>
   8:	0ff00513          	li	a0,255
   c:	000306b7          	lui	a3,0x30
  10:	00a68223          	sb	a0,4(a3) # 30004 <__heap_start+0x2f004>
  14:	bfe5                	j	c <_start+0xc>
	...

00000018 <__divsi3>:
  18:	06054063          	bltz	a0,78 <__umodsi3+0x10>
  1c:	0605c663          	bltz	a1,88 <__umodsi3+0x20>

00000020 <__hidden___udivsi3>:
  20:	00058613          	mv	a2,a1
  24:	00050593          	mv	a1,a0
  28:	fff00513          	li	a0,-1
  2c:	02060c63          	beqz	a2,64 <__hidden___udivsi3+0x44>
  30:	00100693          	li	a3,1
  34:	00b67a63          	bgeu	a2,a1,48 <__hidden___udivsi3+0x28>
  38:	00c05863          	blez	a2,48 <__hidden___udivsi3+0x28>
  3c:	00161613          	slli	a2,a2,0x1
  40:	00169693          	slli	a3,a3,0x1
  44:	feb66ae3          	bltu	a2,a1,38 <__hidden___udivsi3+0x18>
  48:	00000513          	li	a0,0
  4c:	00c5e663          	bltu	a1,a2,58 <__hidden___udivsi3+0x38>
  50:	40c585b3          	sub	a1,a1,a2
  54:	00d56533          	or	a0,a0,a3
  58:	0016d693          	srli	a3,a3,0x1
  5c:	00165613          	srli	a2,a2,0x1
  60:	fe0696e3          	bnez	a3,4c <__hidden___udivsi3+0x2c>
  64:	00008067          	ret

00000068 <__umodsi3>:
  68:	00008293          	mv	t0,ra
  6c:	fb5ff0ef          	jal	20 <__hidden___udivsi3>
  70:	00058513          	mv	a0,a1
  74:	00028067          	jr	t0
  78:	40a00533          	neg	a0,a0
  7c:	00b04863          	bgtz	a1,8c <__umodsi3+0x24>
  80:	40b005b3          	neg	a1,a1
  84:	f9dff06f          	j	20 <__hidden___udivsi3>
  88:	40b005b3          	neg	a1,a1
  8c:	00008293          	mv	t0,ra
  90:	f91ff0ef          	jal	20 <__hidden___udivsi3>
  94:	40a00533          	neg	a0,a0
  98:	00028067          	jr	t0

0000009c <__modsi3>:
  9c:	00008293          	mv	t0,ra
  a0:	0005ca63          	bltz	a1,b4 <__modsi3+0x18>
  a4:	00054c63          	bltz	a0,bc <__modsi3+0x20>
  a8:	f79ff0ef          	jal	20 <__hidden___udivsi3>
  ac:	00058513          	mv	a0,a1
  b0:	00028067          	jr	t0
  b4:	40b005b3          	neg	a1,a1
  b8:	fe0558e3          	bgez	a0,a8 <__modsi3+0xc>
  bc:	40a00533          	neg	a0,a0
  c0:	f61ff0ef          	jal	20 <__hidden___udivsi3>
  c4:	40b00533          	neg	a0,a1
  c8:	00028067          	jr	t0

Disassembly of section .text.startup:

000000cc <main>:
  cc:	7139                	addi	sp,sp,-64
  ce:	de06                	sw	ra,60(sp)
  d0:	dc22                	sw	s0,56(sp)
  d2:	da26                	sw	s1,52(sp)
  d4:	d84a                	sw	s2,48(sp)
  d6:	d64e                	sw	s3,44(sp)
  d8:	d452                	sw	s4,40(sp)
  da:	d256                	sw	s5,36(sp)
  dc:	00030637          	lui	a2,0x30
  e0:	46a9                	li	a3,10
  e2:	a019                	j	e8 <main+0x1c>
  e4:	12d79f63          	bne	a5,a3,222 <main+0x156>
  e8:	00064703          	lbu	a4,0(a2) # 30000 <__heap_start+0x2f000>
  ec:	0ff77793          	zext.b	a5,a4
  f0:	fb75                	bnez	a4,e4 <main+0x18>
  f2:	4681                	li	a3,0
  f4:	4581                	li	a1,0
  f6:	02d00893          	li	a7,45
  fa:	4825                	li	a6,9
  fc:	00030537          	lui	a0,0x30
 100:	a811                	j	114 <main+0x48>
 102:	02c86e63          	bltu	a6,a2,13e <main+0x72>
 106:	00054603          	lbu	a2,0(a0) # 30000 <__heap_start+0x2f000>
 10a:	fd070593          	addi	a1,a4,-48
 10e:	0ff67793          	zext.b	a5,a2
 112:	c615                	beqz	a2,13e <main+0x72>
 114:	00259713          	slli	a4,a1,0x2
 118:	972e                	add	a4,a4,a1
 11a:	0706                	slli	a4,a4,0x1
 11c:	fd078613          	addi	a2,a5,-48
 120:	973e                	add	a4,a4,a5
 122:	0ff67613          	zext.b	a2,a2
 126:	fd179ee3          	bne	a5,a7,102 <main+0x36>
 12a:	1c069b63          	bnez	a3,300 <main+0x234>
 12e:	00054603          	lbu	a2,0(a0)
 132:	4685                	li	a3,1
 134:	fd070593          	addi	a1,a4,-48
 138:	0ff67793          	zext.b	a5,a2
 13c:	fe61                	bnez	a2,114 <main+0x48>
 13e:	1c069163          	bnez	a3,300 <main+0x234>
 142:	32b02023          	sw	a1,800(zero) # 320 <N>
 146:	12b05a63          	blez	a1,27a <main+0x1ae>
 14a:	31802303          	lw	t1,792(zero) # 318 <h>
 14e:	31c02383          	lw	t2,796(zero) # 31c <total>
 152:	31402e03          	lw	t3,788(zero) # 314 <i>
 156:	0585                	addi	a1,a1,1
 158:	4401                	li	s0,0
 15a:	4785                	li	a5,1
 15c:	4605                	li	a2,1
 15e:	4805                	li	a6,1
 160:	4885                	li	a7,1
 162:	4505                	li	a0,1
 164:	4685                	li	a3,1
 166:	0ac78863          	beq	a5,a2,216 <main+0x14a>
 16a:	0b078663          	beq	a5,a6,216 <main+0x14a>
 16e:	0b178463          	beq	a5,a7,216 <main+0x14a>
 172:	0aa78263          	beq	a5,a0,216 <main+0x14a>
 176:	0ad78063          	beq	a5,a3,216 <main+0x14a>
 17a:	08678e63          	beq	a5,t1,216 <main+0x14a>
 17e:	09c78c63          	beq	a5,t3,216 <main+0x14a>
 182:	31002703          	lw	a4,784(zero) # 310 <j>
 186:	08e78863          	beq	a5,a4,216 <main+0x14a>
 18a:	30c02e83          	lw	t4,780(zero) # 30c <__bss_start>
 18e:	09d78463          	beq	a5,t4,216 <main+0x14a>
 192:	09060263          	beq	a2,a6,216 <main+0x14a>
 196:	09160063          	beq	a2,a7,216 <main+0x14a>
 19a:	06a60e63          	beq	a2,a0,216 <main+0x14a>
 19e:	06d60c63          	beq	a2,a3,216 <main+0x14a>
 1a2:	06c30a63          	beq	t1,a2,216 <main+0x14a>
 1a6:	06ce0863          	beq	t3,a2,216 <main+0x14a>
 1aa:	06c70663          	beq	a4,a2,216 <main+0x14a>
 1ae:	06ce8463          	beq	t4,a2,216 <main+0x14a>
 1b2:	07180263          	beq	a6,a7,216 <main+0x14a>
 1b6:	06a80063          	beq	a6,a0,216 <main+0x14a>
 1ba:	04d80e63          	beq	a6,a3,216 <main+0x14a>
 1be:	05030c63          	beq	t1,a6,216 <main+0x14a>
 1c2:	050e0a63          	beq	t3,a6,216 <main+0x14a>
 1c6:	05070863          	beq	a4,a6,216 <main+0x14a>
 1ca:	050e8663          	beq	t4,a6,216 <main+0x14a>
 1ce:	04a88463          	beq	a7,a0,216 <main+0x14a>
 1d2:	04d88263          	beq	a7,a3,216 <main+0x14a>
 1d6:	05130063          	beq	t1,a7,216 <main+0x14a>
 1da:	031e0e63          	beq	t3,a7,216 <main+0x14a>
 1de:	03170c63          	beq	a4,a7,216 <main+0x14a>
 1e2:	031e8a63          	beq	t4,a7,216 <main+0x14a>
 1e6:	02d50863          	beq	a0,a3,216 <main+0x14a>
 1ea:	02a30663          	beq	t1,a0,216 <main+0x14a>
 1ee:	02ae0463          	beq	t3,a0,216 <main+0x14a>
 1f2:	02a70263          	beq	a4,a0,216 <main+0x14a>
 1f6:	02ae8063          	beq	t4,a0,216 <main+0x14a>
 1fa:	00d30e63          	beq	t1,a3,216 <main+0x14a>
 1fe:	00de0c63          	beq	t3,a3,216 <main+0x14a>
 202:	00d70a63          	beq	a4,a3,216 <main+0x14a>
 206:	00de8863          	beq	t4,a3,216 <main+0x14a>
 20a:	00ee0663          	beq	t3,a4,216 <main+0x14a>
 20e:	01d30463          	beq	t1,t4,216 <main+0x14a>
 212:	0385                	addi	t2,t2,1
 214:	4405                	li	s0,1
 216:	00168713          	addi	a4,a3,1
 21a:	00e58c63          	beq	a1,a4,232 <main+0x166>
 21e:	86ba                	mv	a3,a4
 220:	b799                	j	166 <main+0x9a>
 222:	02000713          	li	a4,32
 226:	ece781e3          	beq	a5,a4,e8 <main+0x1c>
 22a:	4725                	li	a4,9
 22c:	eae78ee3          	beq	a5,a4,e8 <main+0x1c>
 230:	b5c9                	j	f2 <main+0x26>
 232:	00150713          	addi	a4,a0,1
 236:	00d50563          	beq	a0,a3,240 <main+0x174>
 23a:	853a                	mv	a0,a4
 23c:	4685                	li	a3,1
 23e:	b725                	j	166 <main+0x9a>
 240:	00188713          	addi	a4,a7,1
 244:	00a88563          	beq	a7,a0,24e <main+0x182>
 248:	88ba                	mv	a7,a4
 24a:	4505                	li	a0,1
 24c:	bf21                	j	164 <main+0x98>
 24e:	00180713          	addi	a4,a6,1
 252:	01180563          	beq	a6,a7,25c <main+0x190>
 256:	883a                	mv	a6,a4
 258:	4885                	li	a7,1
 25a:	b721                	j	162 <main+0x96>
 25c:	00160713          	addi	a4,a2,1
 260:	01060563          	beq	a2,a6,26a <main+0x19e>
 264:	863a                	mv	a2,a4
 266:	4805                	li	a6,1
 268:	bde5                	j	160 <main+0x94>
 26a:	00178713          	addi	a4,a5,1
 26e:	00c78563          	beq	a5,a2,278 <main+0x1ac>
 272:	87ba                	mv	a5,a4
 274:	4605                	li	a2,1
 276:	b5e5                	j	15e <main+0x92>
 278:	e459                	bnez	s0,306 <main+0x23a>
 27a:	31c02403          	lw	s0,796(zero) # 31c <total>
 27e:	4981                	li	s3,0
 280:	00045563          	bgez	s0,28a <main+0x1be>
 284:	40800433          	neg	s0,s0
 288:	4985                	li	s3,1
 28a:	4481                	li	s1,0
 28c:	01410913          	addi	s2,sp,20 # 20014 <__heap_start+0x1f014>
 290:	4a25                	li	s4,9
 292:	87a6                	mv	a5,s1
 294:	45a9                	li	a1,10
 296:	8522                	mv	a0,s0
 298:	c63e                	sw	a5,12(sp)
 29a:	0485                	addi	s1,s1,1
 29c:	3501                	jal	9c <__modsi3>
 29e:	03050713          	addi	a4,a0,48
 2a2:	00990ab3          	add	s5,s2,s1
 2a6:	feea8fa3          	sb	a4,-1(s5)
 2aa:	8522                	mv	a0,s0
 2ac:	45a9                	li	a1,10
 2ae:	33ad                	jal	18 <__divsi3>
 2b0:	8aa2                	mv	s5,s0
 2b2:	47b2                	lw	a5,12(sp)
 2b4:	842a                	mv	s0,a0
 2b6:	fd5a4ee3          	blt	s4,s5,292 <main+0x1c6>
 2ba:	00098b63          	beqz	s3,2d0 <main+0x204>
 2be:	01048793          	addi	a5,s1,16
 2c2:	0818                	addi	a4,sp,16
 2c4:	973e                	add	a4,a4,a5
 2c6:	02d00693          	li	a3,45
 2ca:	87a6                	mv	a5,s1
 2cc:	fed70a23          	sb	a3,-12(a4)
 2d0:	97ca                	add	a5,a5,s2
 2d2:	00030737          	lui	a4,0x30
 2d6:	0007c603          	lbu	a2,0(a5)
 2da:	86be                	mv	a3,a5
 2dc:	17fd                	addi	a5,a5,-1
 2de:	00c70023          	sb	a2,0(a4) # 30000 <__heap_start+0x2f000>
 2e2:	fed91ae3          	bne	s2,a3,2d6 <main+0x20a>
 2e6:	47a9                	li	a5,10
 2e8:	00f70023          	sb	a5,0(a4)
 2ec:	50f2                	lw	ra,60(sp)
 2ee:	5462                	lw	s0,56(sp)
 2f0:	54d2                	lw	s1,52(sp)
 2f2:	5942                	lw	s2,48(sp)
 2f4:	59b2                	lw	s3,44(sp)
 2f6:	5a22                	lw	s4,40(sp)
 2f8:	5a92                	lw	s5,36(sp)
 2fa:	4501                	li	a0,0
 2fc:	6121                	addi	sp,sp,64
 2fe:	8082                	ret
 300:	40b005b3          	neg	a1,a1
 304:	bd3d                	j	142 <main+0x76>
 306:	30702e23          	sw	t2,796(zero) # 31c <total>
 30a:	bf85                	j	27a <main+0x1ae>

Disassembly of section .sdata:

0000030c <k>:
 30c:	0066                	c.slli	zero,0x19
	...

00000310 <j>:
 310:	0065                	c.nop	25
	...

00000314 <i>:
 314:	0064                	addi	s1,sp,12
	...

00000318 <h>:
 318:	00000063          	beqz	zero,318 <h>

Disassembly of section .riscv.attributes:

00000000 <.riscv.attributes>:
   0:	2041                	jal	80 <__umodsi3+0x18>
   2:	0000                	unimp
   4:	7200                	.insn	2, 0x7200
   6:	7369                	lui	t1,0xffffa
   8:	01007663          	bgeu	zero,a6,14 <_start+0x14>
   c:	0016                	c.slli	zero,0x5
   e:	0000                	unimp
  10:	1004                	addi	s1,sp,32
  12:	7205                	lui	tp,0xfffe1
  14:	3376                	.insn	2, 0x3376
  16:	6932                	.insn	2, 0x6932
  18:	7032                	.insn	2, 0x7032
  1a:	5f31                	li	t5,-20
  1c:	30703263          	.insn	4, 0x30703263
	...

Disassembly of section .comment:

00000000 <.comment>:
   0:	3a434347          	.insn	4, 0x3a434347
   4:	2820                	.insn	2, 0x2820
   6:	7241                	lui	tp,0xffff0
   8:	4c206863          	bltu	zero,sp,4d8 <N+0x1b8>
   c:	6e69                	lui	t3,0x1a
   e:	7875                	lui	a6,0xffffd
  10:	5220                	lw	s0,96(a2)
  12:	7065                	c.lui	zero,0xffff9
  14:	7469736f          	jal	t1,9775a <__heap_start+0x9675a>
  18:	6569726f          	jal	tp,9766e <__heap_start+0x9666e>
  1c:	31202973          	.insn	4, 0x31202973
  20:	2e34                	.insn	2, 0x2e34
  22:	2e31                	jal	33e <N+0x1e>
  24:	0030                	addi	a2,sp,8

Disassembly of section .debug_info:

00000000 <.debug_info>:
   0:	02d2                	slli	t0,t0,0x14
   2:	0000                	unimp
   4:	0005                	c.nop	1
   6:	0401                	addi	s0,s0,0
   8:	0000                	unimp
   a:	0000                	unimp
   c:	00004f0f          	.insn	4, 0x4f0f
  10:	1d00                	addi	s0,sp,688
  12:	000e                	c.slli	zero,0x3
  14:	0000                	unimp
  16:	0000                	unimp
  18:	0000                	unimp
  1a:	00000097          	auipc	ra,0x0
	...
  26:	4e04                	lw	s1,24(a2)
  28:	0500                	addi	s0,sp,640
  2a:	0034                	addi	a3,sp,8
  2c:	0000                	unimp
  2e:	0305                	addi	t1,t1,1 # ffffa001 <__heap_start+0xffff9001>
  30:	0320                	addi	s0,sp,392
  32:	0000                	unimp
  34:	0410                	addi	a2,sp,512
  36:	6905                	lui	s2,0x1
  38:	746e                	.insn	2, 0x746e
  3a:	0600                	addi	s0,sp,768
  3c:	0034                	addi	a3,sp,8
  3e:	0000                	unimp
  40:	6804                	.insn	2, 0x6804
  42:	0600                	addi	s0,sp,768
  44:	0034                	addi	a3,sp,8
  46:	0000                	unimp
  48:	0305                	addi	t1,t1,1
  4a:	0318                	addi	a4,sp,384
  4c:	0000                	unimp
  4e:	6904                	.insn	2, 0x6904
  50:	0700                	addi	s0,sp,896
  52:	0034                	addi	a3,sp,8
  54:	0000                	unimp
  56:	0305                	addi	t1,t1,1
  58:	0314                	addi	a3,sp,384
  5a:	0000                	unimp
  5c:	6a04                	.insn	2, 0x6a04
  5e:	0800                	addi	s0,sp,16
  60:	0034                	addi	a3,sp,8
  62:	0000                	unimp
  64:	0305                	addi	t1,t1,1
  66:	0310                	addi	a2,sp,384
  68:	0000                	unimp
  6a:	6b04                	.insn	2, 0x6b04
  6c:	0900                	addi	s0,sp,144
  6e:	0034                	addi	a3,sp,8
  70:	0000                	unimp
  72:	0305                	addi	t1,t1,1
  74:	030c                	addi	a1,sp,384
  76:	0000                	unimp
  78:	4911                	li	s2,4
  7a:	0000                	unimp
  7c:	0100                	addi	s0,sp,128
  7e:	050a                	slli	a0,a0,0x2
  80:	0034                	addi	a3,sp,8
  82:	0000                	unimp
  84:	0305                	addi	t1,t1,1
  86:	031c                	addi	a5,sp,384
  88:	0000                	unimp
  8a:	4412                	lw	s0,4(sp)
  8c:	0000                	unimp
  8e:	0100                	addi	s0,sp,128
  90:	050c                	addi	a1,sp,640
  92:	0034                	addi	a3,sp,8
  94:	0000                	unimp
  96:	00cc                	addi	a1,sp,68
  98:	0000                	unimp
  9a:	0240                	addi	s0,sp,260
  9c:	0000                	unimp
  9e:	9c01                	.insn	2, 0x9c01
  a0:	01ea                	slli	gp,gp,0x1a
  a2:	0000                	unimp
  a4:	6101                	addi	sp,sp,0
  a6:	0d00                	addi	s0,sp,656
  a8:	3408                	.insn	2, 0x3408
  aa:	0000                	unimp
  ac:	0c00                	addi	s0,sp,528
  ae:	0000                	unimp
  b0:	0100                	addi	s0,sp,128
  b2:	0062                	c.slli	zero,0x18
  b4:	090e                	slli	s2,s2,0x3
  b6:	0034                	addi	a3,sp,8
  b8:	0000                	unimp
  ba:	0045                	c.nop	17
  bc:	0000                	unimp
  be:	6301                	.insn	2, 0x6301
  c0:	0f00                	addi	s0,sp,912
  c2:	3406                	.insn	2, 0x3406
  c4:	0000                	unimp
  c6:	a600                	.insn	2, 0xa600
  c8:	0000                	unimp
  ca:	0100                	addi	s0,sp,128
  cc:	0064                	addi	s1,sp,12
  ce:	0610                	addi	a2,sp,768
  d0:	0034                	addi	a3,sp,8
  d2:	0000                	unimp
  d4:	00000107          	.insn	4, 0x0107
  d8:	6501                	.insn	2, 0x6501
  da:	1100                	addi	s0,sp,160
  dc:	3406                	.insn	2, 0x3406
  de:	0000                	unimp
  e0:	6800                	.insn	2, 0x6800
  e2:	0001                	nop
  e4:	0100                	addi	s0,sp,128
  e6:	0066                	c.slli	zero,0x19
  e8:	0612                	slli	a2,a2,0x4
  ea:	0034                	addi	a3,sp,8
  ec:	0000                	unimp
  ee:	01c9                	addi	gp,gp,18
  f0:	0000                	unimp
  f2:	660a                	.insn	2, 0x660a
  f4:	0002                	c.slli64	zero
  f6:	cc00                	sw	s0,24(s0)
  f8:	0000                	unimp
  fa:	0c00                	addi	s0,sp,528
  fc:	0000                	unimp
  fe:	0100                	addi	s0,sp,128
 100:	01460413          	addi	s0,a2,20
 104:	0000                	unimp
 106:	00000c13          	li	s8,0
 10a:	0200                	addi	s0,sp,256
 10c:	00000277          	.insn	4, 0x0277
 110:	022a                	slli	tp,tp,0xa
 112:	0000                	unimp
 114:	8202                	jr	tp
 116:	0002                	c.slli64	zero
 118:	6700                	.insn	2, 0x6700
 11a:	0002                	c.slli64	zero
 11c:	0200                	addi	s0,sp,256
 11e:	028c                	addi	a1,sp,320
 120:	0000                	unimp
 122:	0294                	addi	a3,sp,320
 124:	0000                	unimp
 126:	0002b60b          	.insn	4, 0x0002b60b
 12a:	dc00                	sw	s0,56(s0)
 12c:	0000                	unimp
 12e:	3a00                	.insn	2, 0x3a00
 130:	0000                	unimp
 132:	1c00                	addi	s0,sp,560
 134:	0b10                	addi	a2,sp,400
 136:	02b6                	slli	t0,t0,0xd
 138:	0000                	unimp
 13a:	00fc                	addi	a5,sp,76
 13c:	0000                	unimp
 13e:	004d                	c.nop	19
 140:	0000                	unimp
 142:	1121                	addi	sp,sp,-24
 144:	0000                	unimp
 146:	ea0c                	.insn	2, 0xea0c
 148:	0001                	nop
 14a:	7e00                	.insn	2, 0x7e00
 14c:	0002                	c.slli64	zero
 14e:	6e00                	.insn	2, 0x6e00
 150:	0000                	unimp
 152:	0100                	addi	s0,sp,128
 154:	0524                	addi	s1,sp,648
 156:	01f4                	addi	a3,sp,204
 158:	0000                	unimp
 15a:	02c4                	addi	s1,sp,324
 15c:	0000                	unimp
 15e:	0c14                	addi	a3,sp,528
 160:	0002                	c.slli64	zero
 162:	7e00                	.insn	2, 0x7e00
 164:	0002                	c.slli64	zero
 166:	6800                	.insn	2, 0x6800
 168:	0000                	unimp
 16a:	0200                	addi	s0,sp,256
 16c:	01cf0553          	.insn	4, 0x01cf0553
 170:	0000                	unimp
 172:	1605                	addi	a2,a2,-31
 174:	0002                	c.slli64	zero
 176:	c400                	sw	s0,8(s0)
 178:	0002                	c.slli64	zero
 17a:	1500                	addi	s0,sp,672
 17c:	0221                	addi	tp,tp,8 # ffff0008 <__heap_start+0xfffef008>
 17e:	0000                	unimp
 180:	9102                	jalr	sp
 182:	0254                	addi	a3,sp,260
 184:	022c                	addi	a1,sp,264
 186:	0000                	unimp
 188:	02df 0000 3702      	.insn	6, 0x3702000002df
 18e:	0002                	c.slli64	zero
 190:	eb00                	.insn	2, 0xeb00
 192:	0002                	c.slli64	zero
 194:	0200                	addi	s0,sp,256
 196:	0240                	addi	s0,sp,260
 198:	0000                	unimp
 19a:	0344                	addi	s1,sp,388
 19c:	0000                	unimp
 19e:	a00a                	.insn	2, 0xa00a
 1a0:	0002                	c.slli64	zero
 1a2:	d200                	sw	s0,32(a2)
 1a4:	0002                	c.slli64	zero
 1a6:	7b00                	.insn	2, 0x7b00
 1a8:	0000                	unimp
 1aa:	0200                	addi	s0,sp,256
 1ac:	0941                	addi	s2,s2,16 # 1010 <__heap_start+0x10>
 1ae:	01bc                	addi	a5,sp,200
 1b0:	0000                	unimp
 1b2:	aa05                	j	2e2 <main+0x216>
 1b4:	0002                	c.slli64	zero
 1b6:	6800                	.insn	2, 0x6800
 1b8:	00000003          	lb	zero,0(zero) # 0 <_start>
 1bc:	9e0d                	.insn	2, 0x9e0d
 1be:	0002                	c.slli64	zero
 1c0:	c300                	sw	s0,0(a4)
 1c2:	0002                	c.slli64	zero
 1c4:	0d00                	addi	s0,sp,656
 1c6:	02b0                	addi	a2,sp,328
 1c8:	0000                	unimp
 1ca:	02cc                	addi	a1,sp,324
 1cc:	0000                	unimp
 1ce:	0c00                	addi	s0,sp,528
 1d0:	02a0                	addi	s0,sp,328
 1d2:	0000                	unimp
 1d4:	02e6                	slli	t0,t0,0x19
 1d6:	0000                	unimp
 1d8:	0006                	c.slli	zero,0x1
 1da:	0000                	unimp
 1dc:	5402                	lw	s0,32(sp)
 1de:	aa05                	j	30e <k+0x2>
 1e0:	0002                	c.slli64	zero
 1e2:	8100                	.insn	2, 0x8100
 1e4:	00000003          	lb	zero,0(zero) # 0 <_start>
 1e8:	0000                	unimp
 1ea:	00000007          	.insn	4, 0x0007
 1ee:	5100                	lw	s0,32(a0)
 1f0:	0200                	addi	s0,sp,256
 1f2:	0000                	unimp
 1f4:	1e08                	addi	a0,sp,816
 1f6:	0000                	unimp
 1f8:	5100                	lw	s0,32(a0)
 1fa:	072e                	slli	a4,a4,0xb
 1fc:	0002                	c.slli64	zero
 1fe:	0000                	unimp
 200:	0409                	addi	s0,s0,2
 202:	00000c07          	.insn	4, 0x0c07
 206:	0600                	addi	s0,sp,768
 208:	0200                	addi	s0,sp,256
 20a:	0000                	unimp
 20c:	00003107          	.insn	4, 0x3107
 210:	3200                	.insn	2, 0x3200
 212:	024a                	slli	tp,tp,0x12
 214:	0000                	unimp
 216:	1e08                	addi	a0,sp,816
 218:	0000                	unimp
 21a:	3200                	.insn	2, 0x3200
 21c:	00003b23          	.insn	4, 0x3b23
 220:	0300                	addi	s0,sp,384
 222:	00727473          	.insn	4, 0x00727473
 226:	1334                	addi	a3,sp,424
 228:	024a                	slli	tp,tp,0x12
 22a:	0000                	unimp
 22c:	706d7403          	.insn	4, 0x706d7403
 230:	3500                	.insn	2, 0x3500
 232:	3409                	jal	fffffc34 <__heap_start+0xffffec34>
 234:	0000                	unimp
 236:	0300                	addi	s0,sp,384
 238:	0069                	c.nop	26
 23a:	0936                	slli	s2,s2,0xd
 23c:	0034                	addi	a3,sp,8
 23e:	0000                	unimp
 240:	36007303          	.insn	4, 0x36007303
 244:	340e                	.insn	2, 0x340e
 246:	0000                	unimp
 248:	0000                	unimp
 24a:	5a16                	lw	s4,100(sp)
 24c:	0002                	c.slli64	zero
 24e:	5a00                	lw	s0,48(a2)
 250:	0002                	c.slli64	zero
 252:	1700                	addi	s0,sp,928
 254:	0200                	addi	s0,sp,256
 256:	0000                	unimp
 258:	0109000b          	.insn	4, 0x0109000b
 25c:	3608                	.insn	2, 0x3608
 25e:	0000                	unimp
 260:	0600                	addi	s0,sp,768
 262:	025a                	slli	tp,tp,0x16
 264:	0000                	unimp
 266:	6918                	.insn	2, 0x6918
 268:	6c6e                	.insn	2, 0x6c6e
 26a:	0200                	addi	s0,sp,256
 26c:	02991d17          	auipc	s10,0x2991
 270:	0000                	unimp
 272:	00029903          	lh	s2,0(t0)
 276:	0300                	addi	s0,sp,384
 278:	6572                	.insn	2, 0x6572
 27a:	0074                	addi	a3,sp,12
 27c:	1319                	addi	t1,t1,-26
 27e:	0299                	addi	t0,t0,6
 280:	0000                	unimp
 282:	00686303          	.insn	4, 0x00686303
 286:	131a                	slli	t1,t1,0x26
 288:	025a                	slli	tp,tp,0x16
 28a:	0000                	unimp
 28c:	2319                	jal	792 <N+0x472>
 28e:	0000                	unimp
 290:	0200                	addi	s0,sp,256
 292:	0034091b          	.insn	4, 0x0034091b
 296:	0000                	unimp
 298:	0900                	addi	s0,sp,144
 29a:	0704                	addi	s1,sp,896
 29c:	00000007          	.insn	4, 0x0007
 2a0:	00001907          	.insn	4, 0x1907
 2a4:	1200                	addi	s0,sp,288
 2a6:	02b6                	slli	t0,t0,0xd
 2a8:	0000                	unimp
 2aa:	1e08                	addi	a0,sp,816
 2ac:	0000                	unimp
 2ae:	1200                	addi	s0,sp,288
 2b0:	612d                	addi	sp,sp,224
 2b2:	0002                	c.slli64	zero
 2b4:	0000                	unimp
 2b6:	691a                	.insn	2, 0x691a
 2b8:	626e                	.insn	2, 0x626e
 2ba:	0200                	addi	s0,sp,256
 2bc:	1d0d                	addi	s10,s10,-29 # 299124f <__heap_start+0x299024f>
 2be:	025a                	slli	tp,tp,0x16
 2c0:	0000                	unimp
 2c2:	009c0e03          	lb	t3,9(s8)
 2c6:	0000                	unimp
 2c8:	009c                	addi	a5,sp,64
 2ca:	0000                	unimp
 2cc:	280e                	.insn	2, 0x280e
 2ce:	0000                	unimp
 2d0:	2800                	.insn	2, 0x2800
 2d2:	0000                	unimp
 2d4:	0000                	unimp
 2d6:	0055                	c.nop	21
 2d8:	0000                	unimp
 2da:	0005                	c.nop	1
 2dc:	0401                	addi	s0,s0,0
 2de:	00000183          	lb	gp,0(zero) # 0 <_start>
 2e2:	7e01                	lui	t3,0xfffe0
 2e4:	18000007          	.insn	4, 0x18000007
 2e8:	0000                	unimp
 2ea:	b400                	.insn	2, 0xb400
 2ec:	a501                	j	8ec <N+0x5cc>
 2ee:	0000                	unimp
 2f0:	e500                	.insn	2, 0xe500
 2f2:	0000                	unimp
 2f4:	2900                	.insn	2, 0x2900
 2f6:	0001                	nop
 2f8:	0100                	addi	s0,sp,128
 2fa:	0280                	addi	s0,sp,320
 2fc:	0028                	addi	a0,sp,8
 2fe:	0000                	unimp
 300:	0018                	.insn	2, 0x0018
 302:	0000                	unimp
 304:	0184                	addi	s1,sp,192
 306:	3e02                	.insn	2, 0x3e02
 308:	0001                	nop
 30a:	2000                	.insn	2, 0x2000
 30c:	0000                	unimp
 30e:	4800                	lw	s0,16(s0)
 310:	3502                	.insn	2, 0x3502
 312:	0001                	nop
 314:	2000                	.insn	2, 0x2000
 316:	0000                	unimp
 318:	4800                	lw	s0,16(s0)
 31a:	4802                	lw	a6,0(sp)
 31c:	0001                	nop
 31e:	6800                	.insn	2, 0x6800
 320:	0000                	unimp
 322:	1000                	addi	s0,sp,32
 324:	9c02                	jalr	s8
 326:	0000                	unimp
 328:	9c00                	.insn	2, 0x9c00
 32a:	0000                	unimp
 32c:	3000                	.insn	2, 0x3000
	...

Disassembly of section .debug_abbrev:

00000000 <.debug_abbrev>:
   0:	3401                	jal	fffffa00 <__heap_start+0xffffea00>
   2:	0300                	addi	s0,sp,384
   4:	3a08                	.insn	2, 0x3a08
   6:	0121                	addi	sp,sp,8
   8:	0b390b3b          	.insn	4, 0x0b390b3b
   c:	1349                	addi	t1,t1,-14
   e:	1702                	slli	a4,a4,0x20
  10:	0000                	unimp
  12:	3402                	.insn	2, 0x3402
  14:	3100                	.insn	2, 0x3100
  16:	00170213          	addi	tp,a4,1
  1a:	0300                	addi	s0,sp,384
  1c:	0034                	addi	a3,sp,8
  1e:	213a0803          	lb	a6,531(s4)
  22:	3b02                	.insn	2, 0x3b02
  24:	490b390b          	.insn	4, 0x490b390b
  28:	04000013          	li	zero,64
  2c:	0034                	addi	a3,sp,8
  2e:	213a0803          	lb	a6,531(s4)
  32:	3b01                	jal	fffffd42 <__heap_start+0xffffed42>
  34:	0521390b          	.insn	4, 0x0521390b
  38:	1349                	addi	t1,t1,-14
  3a:	1802193f 05050000 	.insn	8, 0x050500001802193f
  42:	3100                	.insn	2, 0x3100
  44:	00170213          	addi	tp,a4,1
  48:	0600                	addi	s0,sp,768
  4a:	0026                	c.slli	zero,0x9
  4c:	1349                	addi	t1,t1,-14
  4e:	0000                	unimp
  50:	03012e07          	.insn	4, 0x03012e07
  54:	3a0e                	.insn	2, 0x3a0e
  56:	0221                	addi	tp,tp,8 # 8 <_start+0x8>
  58:	21390b3b          	.insn	4, 0x21390b3b
  5c:	2714                	.insn	2, 0x2714
  5e:	2019                	jal	64 <__hidden___udivsi3+0x44>
  60:	0321                	addi	t1,t1,8
  62:	1301                	addi	t1,t1,-32
  64:	0000                	unimp
  66:	0508                	addi	a0,sp,640
  68:	0300                	addi	s0,sp,384
  6a:	3a0e                	.insn	2, 0x3a0e
  6c:	0221                	addi	tp,tp,8 # 8 <_start+0x8>
  6e:	0b390b3b          	.insn	4, 0x0b390b3b
  72:	1349                	addi	t1,t1,-14
  74:	0000                	unimp
  76:	2409                	jal	278 <main+0x1ac>
  78:	0b00                	addi	s0,sp,400
  7a:	030b3e0b          	.insn	4, 0x030b3e0b
  7e:	000e                	c.slli	zero,0x3
  80:	0a00                	addi	s0,sp,272
  82:	011d                	addi	sp,sp,7
  84:	1331                	addi	t1,t1,-20
  86:	0152                	slli	sp,sp,0x14
  88:	1755                	addi	a4,a4,-11
  8a:	0b58                	addi	a4,sp,404
  8c:	0b59                	addi	s6,s6,22
  8e:	13010b57          	.insn	4, 0x13010b57
  92:	0000                	unimp
  94:	31001d0b          	.insn	4, 0x31001d0b
  98:	55015213          	.insn	4, 0x55015213
  9c:	02215817          	auipc	a6,0x2215
  a0:	0b59                	addi	s6,s6,22
  a2:	00000b57          	.insn	4, 0x0b57
  a6:	1d0c                	addi	a1,sp,688
  a8:	3101                	jal	fffffca8 <__heap_start+0xffffeca8>
  aa:	12011113          	.insn	4, 0x12011113
  ae:	5806                	lw	a6,96(sp)
  b0:	570b590b          	.insn	4, 0x570b590b
  b4:	0221                	addi	tp,tp,8 # 8 <_start+0x8>
  b6:	0000                	unimp
  b8:	480d                	li	a6,3
  ba:	7d00                	.insn	2, 0x7d00
  bc:	7f01                	lui	t5,0xfffe0
  be:	0e000013          	li	zero,224
  c2:	002e                	c.slli	zero,0xb
  c4:	193c193f 0e030e6e 	.insn	8, 0x0e030e6e193c193f
  cc:	0000                	unimp
  ce:	2501110f          	.insn	4, 0x2501110f
  d2:	130e                	slli	t1,t1,0x23
  d4:	1b1f030b          	.insn	4, 0x1b1f030b
  d8:	551f 1117 1001      	.insn	6, 0x10011117551f
  de:	10000017          	auipc	zero,0x10000
  e2:	0024                	addi	s1,sp,8
  e4:	0b3e0b0b          	.insn	4, 0x0b3e0b0b
  e8:	00000803          	lb	a6,0(zero) # 0 <_start>
  ec:	3411                	jal	fffffaf0 <__heap_start+0xffffeaf0>
  ee:	0300                	addi	s0,sp,384
  f0:	3a0e                	.insn	2, 0x3a0e
  f2:	390b3b0b          	.insn	4, 0x390b3b0b
  f6:	3f13490b          	.insn	4, 0x3f13490b
  fa:	0219                	addi	tp,tp,6 # 6 <_start+0x6>
  fc:	0018                	.insn	2, 0x0018
  fe:	1200                	addi	s0,sp,288
 100:	012e                	slli	sp,sp,0xb
 102:	0e03193f 0b3b0b3a 	.insn	8, 0x0b3b0b3a0e03193f
 10a:	0b39                	addi	s6,s6,14
 10c:	1349                	addi	t1,t1,-14
 10e:	0111                	addi	sp,sp,4
 110:	0612                	slli	a2,a2,0x4
 112:	1840                	addi	s0,sp,52
 114:	197a                	slli	s2,s2,0x3e
 116:	1301                	addi	t1,t1,-32
 118:	0000                	unimp
 11a:	55010b13          	addi	s6,sp,1360
 11e:	14000017          	auipc	zero,0x14000
 122:	011d                	addi	sp,sp,7
 124:	1331                	addi	t1,t1,-20
 126:	0111                	addi	sp,sp,4
 128:	0612                	slli	a2,a2,0x4
 12a:	0b58                	addi	a4,sp,404
 12c:	0b59                	addi	s6,s6,22
 12e:	13010b57          	.insn	4, 0x13010b57
 132:	0000                	unimp
 134:	3415                	jal	fffffb58 <__heap_start+0xffffeb58>
 136:	3100                	.insn	2, 0x3100
 138:	00180213          	addi	tp,a6,1 # 221509d <__heap_start+0x221409d>
 13c:	1600                	addi	s0,sp,800
 13e:	0101                	addi	sp,sp,0
 140:	1349                	addi	t1,t1,-14
 142:	1301                	addi	t1,t1,-32
 144:	0000                	unimp
 146:	49002117          	auipc	sp,0x49002
 14a:	000b2f13          	slti	t5,s6,0
 14e:	1800                	addi	s0,sp,48
 150:	012e                	slli	sp,sp,0xb
 152:	0b3a0803          	lb	a6,179(s4)
 156:	0b390b3b          	.insn	4, 0x0b390b3b
 15a:	1349                	addi	t1,t1,-14
 15c:	0b20                	addi	s0,sp,408
 15e:	1301                	addi	t1,t1,-32
 160:	0000                	unimp
 162:	3419                	jal	fffffb68 <__heap_start+0xffffeb68>
 164:	0300                	addi	s0,sp,384
 166:	3a0e                	.insn	2, 0x3a0e
 168:	390b3b0b          	.insn	4, 0x390b3b0b
 16c:	0013490b          	.insn	4, 0x0013490b
 170:	1a00                	addi	s0,sp,304
 172:	002e                	c.slli	zero,0xb
 174:	0b3a0803          	lb	a6,179(s4)
 178:	0b390b3b          	.insn	4, 0x0b390b3b
 17c:	1349                	addi	t1,t1,-14
 17e:	0b20                	addi	s0,sp,408
 180:	0000                	unimp
 182:	0100                	addi	s0,sp,128
 184:	0111                	addi	sp,sp,4 # 4900214a <__heap_start+0x4900114a>
 186:	1710                	addi	a2,sp,928
 188:	0111                	addi	sp,sp,4
 18a:	0f12                	slli	t5,t5,0x4
 18c:	0e1b0e03          	lb	t3,225(s6)
 190:	0e25                	addi	t3,t3,9 # fffe0009 <__heap_start+0xfffdf009>
 192:	00000513          	li	a0,0
 196:	2e02                	.insn	2, 0x2e02
 198:	0300                	addi	s0,sp,384
 19a:	3f0e                	.insn	2, 0x3f0e
 19c:	1119                	addi	sp,sp,-26
 19e:	1201                	addi	tp,tp,-32 # ffffffe0 <__heap_start+0xffffefe0>
 1a0:	0000000f          	fence	unknown,unknown

Disassembly of section .debug_loclists:

00000000 <.debug_loclists>:
   0:	038a                	slli	t2,t2,0x2
   2:	0000                	unimp
   4:	0005                	c.nop	1
   6:	0004                	.insn	2, 0x0004
   8:	0000                	unimp
   a:	0000                	unimp
   c:	00014607          	.insn	4, 0x00014607
  10:	5c00                	lw	s0,56(s0)
  12:	0001                	nop
  14:	0200                	addi	s0,sp,256
  16:	9f31                	.insn	2, 0x9f31
  18:	00015c07          	.insn	4, 0x00015c07
  1c:	2200                	.insn	2, 0x2200
  1e:	0002                	c.slli64	zero
  20:	0100                	addi	s0,sp,128
  22:	075f 0232 0000      	.insn	6, 0x0232075f
  28:	026e                	slli	tp,tp,0x1b
  2a:	0000                	unimp
  2c:	5f01                	li	t5,-32
  2e:	00026e07          	.insn	4, 0x00026e07
  32:	7a00                	.insn	2, 0x7a00
  34:	0002                	c.slli64	zero
  36:	0100                	addi	s0,sp,128
  38:	075e                	slli	a4,a4,0x17
  3a:	0306                	slli	t1,t1,0x1
  3c:	0000                	unimp
  3e:	030c                	addi	a1,sp,384
  40:	0000                	unimp
  42:	5e01                	li	t3,-32
  44:	0700                	addi	s0,sp,896
  46:	015c                	addi	a5,sp,132
  48:	0000                	unimp
  4a:	015e                	slli	sp,sp,0x17
  4c:	0000                	unimp
  4e:	3102                	.insn	2, 0x3102
  50:	079f 015e 0000      	.insn	6, 0x015e079f
  56:	0222                	slli	tp,tp,0x8
  58:	0000                	unimp
  5a:	5c01                	li	s8,-32
  5c:	00023207          	.insn	4, 0x00023207
  60:	6000                	.insn	2, 0x6000
  62:	0002                	c.slli64	zero
  64:	0100                	addi	s0,sp,128
  66:	075c                	addi	a5,sp,900
  68:	0260                	addi	s0,sp,268
  6a:	0000                	unimp
  6c:	026e                	slli	tp,tp,0x1b
  6e:	0000                	unimp
  70:	5e01                	li	t3,-32
  72:	00026e07          	.insn	4, 0x00026e07
  76:	7400                	.insn	2, 0x7400
  78:	0002                	c.slli64	zero
  7a:	0300                	addi	s0,sp,384
  7c:	017c                	addi	a5,sp,140
  7e:	079f 0274 0000      	.insn	6, 0x0274079f
  84:	0278                	addi	a4,sp,268
  86:	0000                	unimp
  88:	3102                	.insn	2, 0x3102
  8a:	079f 0278 0000      	.insn	6, 0x0278079f
  90:	027a                	slli	tp,tp,0x1e
  92:	0000                	unimp
  94:	9f017c03          	.insn	4, 0x9f017c03
  98:	00030607          	.insn	4, 0x00030607
  9c:	0c00                	addi	s0,sp,528
  9e:	03000003          	lb	zero,48(zero) # 30 <__hidden___udivsi3+0x10>
  a2:	017c                	addi	a5,sp,140
  a4:	009f 5e07 0001      	.insn	6, 0x00015e07009f
  aa:	6000                	.insn	2, 0x6000
  ac:	0001                	nop
  ae:	0200                	addi	s0,sp,256
  b0:	9f31                	.insn	2, 0x9f31
  b2:	00016007          	.insn	4, 0x00016007
  b6:	2200                	.insn	2, 0x2200
  b8:	0002                	c.slli64	zero
  ba:	0100                	addi	s0,sp,128
  bc:	0760                	addi	s0,sp,908
  be:	0232                	slli	tp,tp,0xc
  c0:	0000                	unimp
  c2:	0252                	slli	tp,tp,0x14
  c4:	0000                	unimp
  c6:	6001                	.insn	2, 0x6001
  c8:	00025207          	.insn	4, 0x00025207
  cc:	6000                	.insn	2, 0x6000
  ce:	0002                	c.slli64	zero
  d0:	0100                	addi	s0,sp,128
  d2:	075e                	slli	a4,a4,0x17
  d4:	0260                	addi	s0,sp,268
  d6:	0000                	unimp
  d8:	0266                	slli	tp,tp,0x19
  da:	0000                	unimp
  dc:	9f018003          	lb	zero,-1552(gp)
  e0:	00026607          	.insn	4, 0x00026607
  e4:	6a00                	.insn	2, 0x6a00
  e6:	0002                	c.slli64	zero
  e8:	0200                	addi	s0,sp,256
  ea:	9f31                	.insn	2, 0x9f31
  ec:	00026a07          	.insn	4, 0x00026a07
  f0:	7a00                	.insn	2, 0x7a00
  f2:	0002                	c.slli64	zero
  f4:	0300                	addi	s0,sp,384
  f6:	0180                	addi	s0,sp,192
  f8:	079f 0306 0000      	.insn	6, 0x0306079f
  fe:	030c                	addi	a1,sp,384
 100:	0000                	unimp
 102:	9f018003          	lb	zero,-1552(gp)
 106:	0700                	addi	s0,sp,896
 108:	0160                	addi	s0,sp,140
 10a:	0000                	unimp
 10c:	0162                	slli	sp,sp,0x18
 10e:	0000                	unimp
 110:	3102                	.insn	2, 0x3102
 112:	079f 0162 0000      	.insn	6, 0x0162079f
 118:	0222                	slli	tp,tp,0x8
 11a:	0000                	unimp
 11c:	6101                	addi	sp,sp,0
 11e:	00023207          	.insn	4, 0x00023207
 122:	4400                	lw	s0,8(s0)
 124:	0002                	c.slli64	zero
 126:	0100                	addi	s0,sp,128
 128:	0761                	addi	a4,a4,24
 12a:	0244                	addi	s1,sp,260
 12c:	0000                	unimp
 12e:	0252                	slli	tp,tp,0x14
 130:	0000                	unimp
 132:	5e01                	li	t3,-32
 134:	00025207          	.insn	4, 0x00025207
 138:	5800                	lw	s0,48(s0)
 13a:	0002                	c.slli64	zero
 13c:	0300                	addi	s0,sp,384
 13e:	0181                	addi	gp,gp,0
 140:	079f 0258 0000      	.insn	6, 0x0258079f
 146:	025c                	addi	a5,sp,260
 148:	0000                	unimp
 14a:	3102                	.insn	2, 0x3102
 14c:	079f 025c 0000      	.insn	6, 0x025c079f
 152:	027a                	slli	tp,tp,0x1e
 154:	0000                	unimp
 156:	9f018103          	lb	sp,-1552(gp)
 15a:	00030607          	.insn	4, 0x00030607
 15e:	0c00                	addi	s0,sp,528
 160:	03000003          	lb	zero,48(zero) # 30 <__hidden___udivsi3+0x10>
 164:	0181                	addi	gp,gp,0
 166:	009f 6207 0001      	.insn	6, 0x00016207009f
 16c:	6400                	.insn	2, 0x6400
 16e:	0001                	nop
 170:	0200                	addi	s0,sp,256
 172:	9f31                	.insn	2, 0x9f31
 174:	00016407          	.insn	4, 0x00016407
 178:	2200                	.insn	2, 0x2200
 17a:	0002                	c.slli64	zero
 17c:	0100                	addi	s0,sp,128
 17e:	075a                	slli	a4,a4,0x16
 180:	0232                	slli	tp,tp,0xc
 182:	0000                	unimp
 184:	0236                	slli	tp,tp,0xd
 186:	0000                	unimp
 188:	5a01                	li	s4,-32
 18a:	00023607          	.insn	4, 0x00023607
 18e:	4400                	lw	s0,8(s0)
 190:	0002                	c.slli64	zero
 192:	0100                	addi	s0,sp,128
 194:	075e                	slli	a4,a4,0x17
 196:	0244                	addi	s1,sp,260
 198:	0000                	unimp
 19a:	024a                	slli	tp,tp,0x12
 19c:	0000                	unimp
 19e:	9f017a03          	.insn	4, 0x9f017a03
 1a2:	00024a07          	.insn	4, 0x00024a07
 1a6:	4e00                	lw	s0,24(a2)
 1a8:	0002                	c.slli64	zero
 1aa:	0200                	addi	s0,sp,256
 1ac:	9f31                	.insn	2, 0x9f31
 1ae:	00024e07          	.insn	4, 0x00024e07
 1b2:	7a00                	.insn	2, 0x7a00
 1b4:	0002                	c.slli64	zero
 1b6:	0300                	addi	s0,sp,384
 1b8:	017a                	slli	sp,sp,0x1e
 1ba:	079f 0306 0000      	.insn	6, 0x0306079f
 1c0:	030c                	addi	a1,sp,384
 1c2:	0000                	unimp
 1c4:	9f017a03          	.insn	4, 0x9f017a03
 1c8:	0700                	addi	s0,sp,896
 1ca:	0164                	addi	s1,sp,140
 1cc:	0000                	unimp
 1ce:	0166                	slli	sp,sp,0x19
 1d0:	0000                	unimp
 1d2:	3102                	.insn	2, 0x3102
 1d4:	079f 0166 0000      	.insn	6, 0x0166079f
 1da:	021a                	slli	tp,tp,0x6
 1dc:	0000                	unimp
 1de:	5d01                	li	s10,-32
 1e0:	00021a07          	.insn	4, 0x00021a07
 1e4:	2200                	.insn	2, 0x2200
 1e6:	0002                	c.slli64	zero
 1e8:	0100                	addi	s0,sp,128
 1ea:	075e                	slli	a4,a4,0x17
 1ec:	0232                	slli	tp,tp,0xc
 1ee:	0000                	unimp
 1f0:	0236                	slli	tp,tp,0xd
 1f2:	0000                	unimp
 1f4:	5e01                	li	t3,-32
 1f6:	00023607          	.insn	4, 0x00023607
 1fa:	3c00                	.insn	2, 0x3c00
 1fc:	0002                	c.slli64	zero
 1fe:	0300                	addi	s0,sp,384
 200:	017d                	addi	sp,sp,31
 202:	079f 023c 0000      	.insn	6, 0x023c079f
 208:	0240                	addi	s0,sp,260
 20a:	0000                	unimp
 20c:	3102                	.insn	2, 0x3102
 20e:	079f 0240 0000      	.insn	6, 0x0240079f
 214:	027a                	slli	tp,tp,0x1e
 216:	0000                	unimp
 218:	9f017d03          	.insn	4, 0x9f017d03
 21c:	00030607          	.insn	4, 0x00030607
 220:	0c00                	addi	s0,sp,528
 222:	03000003          	lb	zero,48(zero) # 30 <__hidden___udivsi3+0x10>
 226:	017d                	addi	sp,sp,31
 228:	009f cc07 0000      	.insn	6, 0xcc07009f
 22e:	0200                	addi	s0,sp,256
 230:	0001                	nop
 232:	0200                	addi	s0,sp,256
 234:	9f30                	.insn	2, 0x9f30
 236:	00010207          	.insn	4, 0x00010207
 23a:	4200                	lw	s0,0(a2)
 23c:	0001                	nop
 23e:	0100                	addi	s0,sp,128
 240:	0222075b          	.insn	4, 0x0222075b
 244:	0000                	unimp
 246:	0232                	slli	tp,tp,0xc
 248:	0000                	unimp
 24a:	3002                	.insn	2, 0x3002
 24c:	079f 0300 0000      	.insn	6, 0x0300079f
 252:	0304                	addi	s1,sp,384
 254:	0000                	unimp
 256:	5b01                	li	s6,-32
 258:	00030407          	.insn	4, 0x00030407
 25c:	0600                	addi	s0,sp,768
 25e:	04000003          	lb	zero,64(zero) # 40 <__hidden___udivsi3+0x20>
 262:	9f1f007b          	.insn	4, 0x9f1f007b
 266:	0700                	addi	s0,sp,896
 268:	00e4                	addi	s1,sp,76
 26a:	0000                	unimp
 26c:	00e8                	addi	a0,sp,76
 26e:	0000                	unimp
 270:	5f01                	li	t5,-32
 272:	0000f007          	.insn	4, 0xf007
 276:	4200                	lw	s0,0(a2)
 278:	0001                	nop
 27a:	0100                	addi	s0,sp,128
 27c:	075f 0222 0000      	.insn	6, 0x0222075f
 282:	0232                	slli	tp,tp,0xc
 284:	0000                	unimp
 286:	5f01                	li	t5,-32
 288:	00030007          	.insn	4, 0x00030007
 28c:	0600                	addi	s0,sp,768
 28e:	01000003          	lb	zero,16(zero) # 10 <_start+0x10>
 292:	005f cc07 0000      	.insn	6, 0xcc07005f
 298:	0200                	addi	s0,sp,256
 29a:	0001                	nop
 29c:	0200                	addi	s0,sp,256
 29e:	9f30                	.insn	2, 0x9f30
 2a0:	00010207          	.insn	4, 0x00010207
 2a4:	4200                	lw	s0,0(a2)
 2a6:	0001                	nop
 2a8:	0100                	addi	s0,sp,128
 2aa:	075d                	addi	a4,a4,23
 2ac:	0222                	slli	tp,tp,0x8
 2ae:	0000                	unimp
 2b0:	0232                	slli	tp,tp,0xc
 2b2:	0000                	unimp
 2b4:	3002                	.insn	2, 0x3002
 2b6:	079f 0300 0000      	.insn	6, 0x0300079f
 2bc:	0306                	slli	t1,t1,0x1
 2be:	0000                	unimp
 2c0:	3102                	.insn	2, 0x3102
 2c2:	009f 7e07 0002      	.insn	6, 0x00027e07009f
 2c8:	8800                	.insn	2, 0x8800
 2ca:	0002                	c.slli64	zero
 2cc:	0100                	addi	s0,sp,128
 2ce:	0758                	addi	a4,sp,900
 2d0:	0288                	addi	a0,sp,320
 2d2:	0000                	unimp
 2d4:	0292                	slli	t0,t0,0x4
 2d6:	0000                	unimp
 2d8:	0305                	addi	t1,t1,1
 2da:	031c                	addi	a5,sp,384
 2dc:	0000                	unimp
 2de:	0700                	addi	s0,sp,896
 2e0:	027e                	slli	tp,tp,0x1f
 2e2:	0000                	unimp
 2e4:	02e6                	slli	t0,t0,0x19
 2e6:	0000                	unimp
 2e8:	5801                	li	a6,-32
 2ea:	0700                	addi	s0,sp,896
 2ec:	027e                	slli	tp,tp,0x1f
 2ee:	0000                	unimp
 2f0:	0292                	slli	t0,t0,0x4
 2f2:	0000                	unimp
 2f4:	3002                	.insn	2, 0x3002
 2f6:	079f 0292 0000      	.insn	6, 0x0292079f
 2fc:	02be                	slli	t0,t0,0xf
 2fe:	0000                	unimp
 300:	5901                	li	s2,-32
 302:	0002be07          	.insn	4, 0x0002be07
 306:	c200                	sw	s0,0(a2)
 308:	0002                	c.slli64	zero
 30a:	0300                	addi	s0,sp,384
 30c:	027f 079f 02c2 0000 	.insn	10, 0x02d0000002c2079f027f
 314:	02d0 
 316:	0000                	unimp
 318:	9106                	add	sp,sp,ra
 31a:	064c                	addi	a1,sp,772
 31c:	079f0223          	sb	s9,100(t5) # fffe0064 <__heap_start+0xfffdf064>
 320:	02d6                	slli	t0,t0,0x15
 322:	0000                	unimp
 324:	02de                	slli	t0,t0,0x17
 326:	0000                	unimp
 328:	7f08                	.insn	2, 0x7f08
 32a:	9100                	.insn	2, 0x9100
 32c:	1c00                	addi	s0,sp,560
 32e:	079f2c23          	sw	s9,120(t5)
 332:	02de                	slli	t0,t0,0x17
 334:	0000                	unimp
 336:	02e2                	slli	t0,t0,0x18
 338:	0000                	unimp
 33a:	7d08                	.insn	2, 0x7d08
 33c:	9100                	.insn	2, 0x9100
 33e:	1c00                	addi	s0,sp,560
 340:	009f2c23          	sw	s1,24(t5)
 344:	00027e07          	.insn	4, 0x00027e07
 348:	8400                	.insn	2, 0x8400
 34a:	0002                	c.slli64	zero
 34c:	0200                	addi	s0,sp,256
 34e:	9f30                	.insn	2, 0x9f30
 350:	00028407          	.insn	4, 0x00028407
 354:	8a00                	.insn	2, 0x8a00
 356:	0002                	c.slli64	zero
 358:	0200                	addi	s0,sp,256
 35a:	9f31                	.insn	2, 0x9f31
 35c:	00029207          	.insn	4, 0x00029207
 360:	e600                	.insn	2, 0xe600
 362:	0002                	c.slli64	zero
 364:	0100                	addi	s0,sp,128
 366:	da070063          	beqz	a4,fffff906 <__heap_start+0xffffe906>
 36a:	0002                	c.slli64	zero
 36c:	de00                	sw	s0,56(a2)
 36e:	0002                	c.slli64	zero
 370:	0200                	addi	s0,sp,256
 372:	007f de07 0002 e200 	.insn	10, 0x0002e2000002de07007f
 37a:	0002 
 37c:	0200                	addi	s0,sp,256
 37e:	007d                	c.nop	31
 380:	0700                	addi	s0,sp,896
 382:	02e6                	slli	t0,t0,0x19
 384:	0000                	unimp
 386:	02ec                	addi	a1,sp,332
 388:	0000                	unimp
 38a:	3a02                	.insn	2, 0x3a02
 38c:	Address 0x38c is out of bounds.


Disassembly of section .debug_aranges:

00000000 <.debug_aranges>:
   0:	001c                	.insn	2, 0x001c
   2:	0000                	unimp
   4:	0002                	c.slli64	zero
   6:	0000                	unimp
   8:	0000                	unimp
   a:	0004                	.insn	2, 0x0004
   c:	0000                	unimp
   e:	0000                	unimp
  10:	00cc                	addi	a1,sp,68
  12:	0000                	unimp
  14:	0240                	addi	s0,sp,260
	...
  1e:	0000                	unimp
  20:	001c                	.insn	2, 0x001c
  22:	0000                	unimp
  24:	0002                	c.slli64	zero
  26:	02d6                	slli	t0,t0,0x15
  28:	0000                	unimp
  2a:	0004                	.insn	2, 0x0004
  2c:	0000                	unimp
  2e:	0000                	unimp
  30:	0018                	.insn	2, 0x0018
  32:	0000                	unimp
  34:	00b4                	addi	a3,sp,72
	...

Disassembly of section .debug_rnglists:

00000000 <.debug_rnglists>:
   0:	009d                	addi	ra,ra,7 # 21 <__hidden___udivsi3+0x1>
   2:	0000                	unimp
   4:	0005                	c.nop	1
   6:	0004                	.insn	2, 0x0004
   8:	0000                	unimp
   a:	0000                	unimp
   c:	cc06                	sw	ra,24(sp)
   e:	0000                	unimp
  10:	cc00                	sw	s0,24(s0)
  12:	0000                	unimp
  14:	0600                	addi	s0,sp,768
  16:	00dc                	addi	a5,sp,68
  18:	0000                	unimp
  1a:	00f2                	slli	ra,ra,0x1c
  1c:	0000                	unimp
  1e:	f606                	.insn	2, 0xf606
  20:	0000                	unimp
  22:	4200                	lw	s0,0(a2)
  24:	0001                	nop
  26:	0600                	addi	s0,sp,768
  28:	0222                	slli	tp,tp,0x8
  2a:	0000                	unimp
  2c:	0232                	slli	tp,tp,0xc
  2e:	0000                	unimp
  30:	0006                	c.slli	zero,0x1
  32:	0c000003          	lb	zero,192(zero) # c0 <__modsi3+0x24>
  36:	00000003          	lb	zero,0(zero) # 0 <_start>
  3a:	dc06                	sw	ra,56(sp)
  3c:	0000                	unimp
  3e:	e000                	.insn	2, 0xe000
  40:	0000                	unimp
  42:	0600                	addi	s0,sp,768
  44:	00e8                	addi	a0,sp,76
  46:	0000                	unimp
  48:	00f0                	addi	a2,sp,76
  4a:	0000                	unimp
  4c:	0600                	addi	s0,sp,768
  4e:	00fc                	addi	a5,sp,76
  50:	0000                	unimp
  52:	0102                	c.slli64	sp
  54:	0000                	unimp
  56:	0606                	slli	a2,a2,0x1
  58:	0001                	nop
  5a:	0a00                	addi	s0,sp,272
  5c:	0001                	nop
  5e:	0600                	addi	s0,sp,768
  60:	010e                	slli	sp,sp,0x3
  62:	0000                	unimp
  64:	0112                	slli	sp,sp,0x4
  66:	0000                	unimp
  68:	2e06                	.insn	2, 0x2e06
  6a:	0001                	nop
  6c:	3200                	.insn	2, 0x3200
  6e:	0001                	nop
  70:	0600                	addi	s0,sp,768
  72:	0138                	addi	a4,sp,136
  74:	0000                	unimp
  76:	013c                	addi	a5,sp,136
  78:	0000                	unimp
  7a:	0600                	addi	s0,sp,768
  7c:	02d2                	slli	t0,t0,0x14
  7e:	0000                	unimp
  80:	02d6                	slli	t0,t0,0x15
  82:	0000                	unimp
  84:	da06                	sw	ra,52(sp)
  86:	0002                	c.slli64	zero
  88:	dc00                	sw	s0,56(s0)
  8a:	0002                	c.slli64	zero
  8c:	0600                	addi	s0,sp,768
  8e:	02de                	slli	t0,t0,0x17
  90:	0000                	unimp
  92:	02e2                	slli	t0,t0,0x18
  94:	0000                	unimp
  96:	0600                	addi	s0,sp,768
  98:	00cc                	addi	a1,sp,68
  9a:	0000                	unimp
  9c:	030c                	addi	a1,sp,384
  9e:	0000                	unimp
	...

Disassembly of section .debug_line:

00000000 <.debug_line>:
   0:	077a                	slli	a4,a4,0x1e
   2:	0000                	unimp
   4:	0005                	c.nop	1
   6:	0004                	.insn	2, 0x0004
   8:	00000033          	add	zero,zero,zero
   c:	0101                	addi	sp,sp,0
   e:	fb01                	bnez	a4,ffffff1e <__heap_start+0xffffef1e>
  10:	0d0e                	slli	s10,s10,0x3
  12:	0100                	addi	s0,sp,128
  14:	0101                	addi	sp,sp,0
  16:	0001                	nop
  18:	0000                	unimp
  1a:	0001                	nop
  1c:	0100                	addi	s0,sp,128
  1e:	0101                	addi	sp,sp,0
  20:	021f 0000 0000      	.insn	6, 0x021f
  26:	002d                	c.nop	11
  28:	0000                	unimp
  2a:	0102                	c.slli64	sp
  2c:	021f 030f 0021      	.insn	6, 0x0021030f021f
  32:	0000                	unimp
  34:	2101                	jal	434 <N+0x114>
  36:	0000                	unimp
  38:	0100                	addi	s0,sp,128
  3a:	0040                	addi	s0,sp,4
  3c:	0000                	unimp
  3e:	0500                	addi	s0,sp,640
  40:	000c                	.insn	2, 0x000c
  42:	0205                	addi	tp,tp,1 # 1 <_start+0x1>
  44:	00cc                	addi	a1,sp,68
  46:	0000                	unimp
  48:	05010b03          	lb	s6,80(sp)
  4c:	0304                	addi	s1,sp,384
  4e:	0901                	addi	s2,s2,0
  50:	0000                	unimp
  52:	0501                	addi	a0,a0,0
  54:	0305                	addi	t1,t1,1
  56:	0901                	addi	s2,s2,0
  58:	0000                	unimp
  5a:	0501                	addi	a0,a0,0
  5c:	0302                	c.slli64	t1
  5e:	0901                	addi	s2,s2,0
  60:	0000                	unimp
  62:	0301                	addi	t1,t1,0
  64:	0901                	addi	s2,s2,0
  66:	0000                	unimp
  68:	0301                	addi	t1,t1,0
  6a:	0901                	addi	s2,s2,0
  6c:	0000                	unimp
  6e:	0301                	addi	t1,t1,0
  70:	0901                	addi	s2,s2,0
  72:	0000                	unimp
  74:	0301                	addi	t1,t1,0
  76:	0901                	addi	s2,s2,0
  78:	0000                	unimp
  7a:	0401                	addi	s0,s0,0
  7c:	0502                	c.slli64	a0
  7e:	0305                	addi	t1,t1,1
  80:	0906                	slli	s2,s2,0x1
  82:	0000                	unimp
  84:	0301                	addi	t1,t1,0
  86:	0901                	addi	s2,s2,0
  88:	0000                	unimp
  8a:	0301                	addi	t1,t1,0
  8c:	0901                	addi	s2,s2,0
  8e:	0000                	unimp
  90:	0301                	addi	t1,t1,0
  92:	0901                	addi	s2,s2,0
  94:	0000                	unimp
  96:	0401                	addi	s0,s0,0
  98:	0501                	addi	a0,a0,0
  9a:	060c                	addi	a1,sp,768
  9c:	00097003          	.insn	4, 0x00097003
  a0:	0100                	addi	s0,sp,128
  a2:	0204                	addi	s1,sp,256
  a4:	0905                	addi	s2,s2,1
  a6:	10090303          	lb	t1,256(s2)
  aa:	0100                	addi	s0,sp,128
  ac:	1a05                	addi	s4,s4,-31
  ae:	0200                	addi	s0,sp,256
  b0:	0604                	addi	s1,sp,768
  b2:	04090d03          	lb	s10,64(s2)
  b6:	0100                	addi	s0,sp,128
  b8:	0b05                	addi	s6,s6,1
  ba:	02090003          	lb	zero,32(s2)
  be:	0100                	addi	s0,sp,128
  c0:	1a05                	addi	s4,s4,-31
  c2:	0200                	addi	s0,sp,256
  c4:	0604                	addi	s1,sp,768
  c6:	02090003          	lb	zero,32(s2)
  ca:	0100                	addi	s0,sp,128
  cc:	1805                	addi	a6,a6,-31
  ce:	0200                	addi	s0,sp,256
  d0:	0604                	addi	s1,sp,768
  d2:	0306                	slli	t1,t1,0x1
  d4:	0900                	addi	s0,sp,144
  d6:	0004                	.insn	2, 0x0004
  d8:	0501                	addi	a0,a0,0
  da:	000c                	.insn	2, 0x000c
  dc:	0402                	c.slli64	s0
  de:	0305                	addi	t1,t1,1
  e0:	0900                	addi	s0,sp,144
  e2:	0000                	unimp
  e4:	0501                	addi	a0,a0,0
  e6:	0302                	c.slli64	t1
  e8:	00000973          	.insn	4, 0x0973
  ec:	0501                	addi	a0,a0,0
  ee:	0609                	addi	a2,a2,2
  f0:	00090003          	lb	zero,0(s2)
  f4:	0100                	addi	s0,sp,128
  f6:	0c05                	addi	s8,s8,1
  f8:	0200                	addi	s0,sp,256
  fa:	0104                	addi	s1,sp,128
  fc:	08090d03          	lb	s10,128(s2)
 100:	0100                	addi	s0,sp,128
 102:	0104                	addi	s1,sp,128
 104:	02097003          	.insn	4, 0x02097003
 108:	0100                	addi	s0,sp,128
 10a:	0204                	addi	s1,sp,256
 10c:	0b05                	addi	s6,s6,1
 10e:	04091203          	lh	tp,64(s2)
 112:	0100                	addi	s0,sp,128
 114:	1005                	c.nop	-31
 116:	04090103          	lb	sp,64(s2)
 11a:	0100                	addi	s0,sp,128
 11c:	0905                	addi	s2,s2,1
 11e:	02097003          	.insn	4, 0x02097003
 122:	0100                	addi	s0,sp,128
 124:	1005                	c.nop	-31
 126:	06091003          	lh	zero,96(s2)
 12a:	0100                	addi	s0,sp,128
 12c:	0905                	addi	s2,s2,1
 12e:	0306                	slli	t1,t1,0x1
 130:	0901                	addi	s2,s2,0
 132:	0004                	.insn	2, 0x0004
 134:	0601                	addi	a2,a2,0
 136:	00096f03          	.insn	4, 0x00096f03
 13a:	0100                	addi	s0,sp,128
 13c:	0d05                	addi	s10,s10,1
 13e:	04091103          	lh	sp,64(s2)
 142:	0100                	addi	s0,sp,128
 144:	0306                	slli	t1,t1,0x1
 146:	0901                	addi	s2,s2,0
 148:	0004                	.insn	2, 0x0004
 14a:	0501                	addi	a0,a0,0
 14c:	0302                	c.slli64	t1
 14e:	096e                	slli	s2,s2,0x1b
 150:	0000                	unimp
 152:	0501                	addi	a0,a0,0
 154:	0609                	addi	a2,a2,2
 156:	00090003          	lb	zero,0(s2)
 15a:	0100                	addi	s0,sp,128
 15c:	0d05                	addi	s10,s10,1
 15e:	0200                	addi	s0,sp,256
 160:	0104                	addi	s1,sp,128
 162:	04091203          	lh	tp,64(s2)
 166:	0100                	addi	s0,sp,128
 168:	0505                	addi	a0,a0,1
 16a:	0306                	slli	t1,t1,0x1
 16c:	097c                	addi	a5,sp,156
 16e:	0002                	c.slli64	zero
 170:	0501                	addi	a0,a0,0
 172:	0309                	addi	t1,t1,2
 174:	0901                	addi	s2,s2,0
 176:	0000                	unimp
 178:	0501                	addi	a0,a0,0
 17a:	030e                	slli	t1,t1,0x3
 17c:	0901                	addi	s2,s2,0
 17e:	0000                	unimp
 180:	0501                	addi	a0,a0,0
 182:	01030613          	addi	a2,t1,16
 186:	0009                	c.nop	2
 188:	0100                	addi	s0,sp,128
 18a:	1705                	addi	a4,a4,-31
 18c:	08097f03          	.insn	4, 0x08097f03
 190:	0100                	addi	s0,sp,128
 192:	1805                	addi	a6,a6,-31
 194:	04090103          	lb	sp,64(s2)
 198:	0100                	addi	s0,sp,128
 19a:	1005                	c.nop	-31
 19c:	02097f03          	.insn	4, 0x02097f03
 1a0:	0100                	addi	s0,sp,128
 1a2:	0b05                	addi	s6,s6,1
 1a4:	04097f03          	.insn	4, 0x04097f03
 1a8:	0100                	addi	s0,sp,128
 1aa:	1305                	addi	t1,t1,-31
 1ac:	0200                	addi	s0,sp,256
 1ae:	0104                	addi	s1,sp,128
 1b0:	04090003          	lb	zero,64(s2)
 1b4:	0100                	addi	s0,sp,128
 1b6:	0905                	addi	s2,s2,1
 1b8:	04097103          	.insn	4, 0x04097103
 1bc:	0100                	addi	s0,sp,128
 1be:	2005                	jal	1de <main+0x112>
 1c0:	0200                	addi	s0,sp,256
 1c2:	0204                	addi	s1,sp,256
 1c4:	04090f03          	lb	t5,64(s2)
 1c8:	0100                	addi	s0,sp,128
 1ca:	0905                	addi	s2,s2,1
 1cc:	0306                	slli	t1,t1,0x1
 1ce:	0902                	c.slli64	s2
 1d0:	0002                	c.slli64	zero
 1d2:	0501                	addi	a0,a0,0
 1d4:	060d                	addi	a2,a2,3
 1d6:	00090003          	lb	zero,0(s2)
 1da:	0100                	addi	s0,sp,128
 1dc:	0306                	slli	t1,t1,0x1
 1de:	0901                	addi	s2,s2,0
 1e0:	0004                	.insn	2, 0x0004
 1e2:	0501                	addi	a0,a0,0
 1e4:	0302                	c.slli64	t1
 1e6:	096e                	slli	s2,s2,0x1b
 1e8:	0000                	unimp
 1ea:	0501                	addi	a0,a0,0
 1ec:	0609                	addi	a2,a2,2
 1ee:	00090003          	lb	zero,0(s2)
 1f2:	0100                	addi	s0,sp,128
 1f4:	0d05                	addi	s10,s10,1
 1f6:	0200                	addi	s0,sp,256
 1f8:	0104                	addi	s1,sp,128
 1fa:	04091203          	lh	tp,64(s2)
 1fe:	0100                	addi	s0,sp,128
 200:	0505                	addi	a0,a0,1
 202:	0306                	slli	t1,t1,0x1
 204:	0901                	addi	s2,s2,0
 206:	0002                	c.slli64	zero
 208:	0501                	addi	a0,a0,0
 20a:	0615                	addi	a2,a2,5
 20c:	00090003          	lb	zero,0(s2)
 210:	0100                	addi	s0,sp,128
 212:	0104                	addi	s1,sp,128
 214:	0305                	addi	t1,t1,1
 216:	0200                	addi	s0,sp,256
 218:	0104                	addi	s1,sp,128
 21a:	04097103          	.insn	4, 0x04097103
 21e:	0100                	addi	s0,sp,128
 220:	0205                	addi	tp,tp,1 # 1 <_start+0x1>
 222:	0306                	slli	t1,t1,0x1
 224:	0901                	addi	s2,s2,0
 226:	0004                	.insn	2, 0x0004
 228:	0501                	addi	a0,a0,0
 22a:	000e                	c.slli	zero,0x3
 22c:	0402                	c.slli64	s0
 22e:	0301                	addi	t1,t1,0
 230:	0900                	addi	s0,sp,144
 232:	0000                	unimp
 234:	0501                	addi	a0,a0,0
 236:	0030                	addi	a2,sp,8
 238:	0402                	c.slli64	s0
 23a:	0605                	addi	a2,a2,1
 23c:	04090603          	lb	a2,64(s2)
 240:	0100                	addi	s0,sp,128
 242:	3805                	jal	fffffa72 <__heap_start+0xffffea72>
 244:	0200                	addi	s0,sp,256
 246:	0604                	addi	s1,sp,768
 248:	08090003          	lb	zero,128(s2)
 24c:	0100                	addi	s0,sp,128
 24e:	0905                	addi	s2,s2,1
 250:	08097a03          	.insn	4, 0x08097a03
 254:	0100                	addi	s0,sp,128
 256:	4005                	c.li	zero,1
 258:	0200                	addi	s0,sp,256
 25a:	0704                	addi	s1,sp,896
 25c:	02090603          	lb	a2,32(s2)
 260:	0100                	addi	s0,sp,128
 262:	4805                	li	a6,1
 264:	0200                	addi	s0,sp,256
 266:	0804                	addi	s1,sp,16
 268:	00090003          	lb	zero,0(s2)
 26c:	0100                	addi	s0,sp,128
 26e:	0e05                	addi	t3,t3,1
 270:	0200                	addi	s0,sp,256
 272:	0104                	addi	s1,sp,128
 274:	0306                	slli	t1,t1,0x1
 276:	0000097b          	.insn	4, 0x097b
 27a:	0501                	addi	a0,a0,0
 27c:	0609                	addi	a2,a2,2
 27e:	00090003          	lb	zero,0(s2)
 282:	0100                	addi	s0,sp,128
 284:	0e05                	addi	t3,t3,1
 286:	0200                	addi	s0,sp,256
 288:	0104                	addi	s1,sp,128
 28a:	0306                	slli	t1,t1,0x1
 28c:	0901                	addi	s2,s2,0
 28e:	0002                	c.slli64	zero
 290:	0501                	addi	a0,a0,0
 292:	0609                	addi	a2,a2,2
 294:	00090003          	lb	zero,0(s2)
 298:	0100                	addi	s0,sp,128
 29a:	0e05                	addi	t3,t3,1
 29c:	0200                	addi	s0,sp,256
 29e:	0104                	addi	s1,sp,128
 2a0:	0306                	slli	t1,t1,0x1
 2a2:	0901                	addi	s2,s2,0
 2a4:	0002                	c.slli64	zero
 2a6:	0501                	addi	a0,a0,0
 2a8:	0609                	addi	a2,a2,2
 2aa:	00090003          	lb	zero,0(s2)
 2ae:	0100                	addi	s0,sp,128
 2b0:	0e05                	addi	t3,t3,1
 2b2:	0200                	addi	s0,sp,256
 2b4:	0104                	addi	s1,sp,128
 2b6:	0306                	slli	t1,t1,0x1
 2b8:	0901                	addi	s2,s2,0
 2ba:	0002                	c.slli64	zero
 2bc:	0501                	addi	a0,a0,0
 2be:	0609                	addi	a2,a2,2
 2c0:	00090003          	lb	zero,0(s2)
 2c4:	0100                	addi	s0,sp,128
 2c6:	0e05                	addi	t3,t3,1
 2c8:	0200                	addi	s0,sp,256
 2ca:	0104                	addi	s1,sp,128
 2cc:	0306                	slli	t1,t1,0x1
 2ce:	0901                	addi	s2,s2,0
 2d0:	0002                	c.slli64	zero
 2d2:	0501                	addi	a0,a0,0
 2d4:	0609                	addi	a2,a2,2
 2d6:	00090003          	lb	zero,0(s2)
 2da:	0100                	addi	s0,sp,128
 2dc:	0305                	addi	t1,t1,1
 2de:	0306                	slli	t1,t1,0x1
 2e0:	0901                	addi	s2,s2,0
 2e2:	0002                	c.slli64	zero
 2e4:	0501                	addi	a0,a0,0
 2e6:	0606                	slli	a2,a2,0x1
 2e8:	00090003          	lb	zero,0(s2)
 2ec:	0100                	addi	s0,sp,128
 2ee:	0c05                	addi	s8,s8,1
 2f0:	0200                	addi	s0,sp,256
 2f2:	0104                	addi	s1,sp,128
 2f4:	04090003          	lb	zero,64(s2)
 2f8:	0100                	addi	s0,sp,128
 2fa:	1405                	addi	s0,s0,-31
 2fc:	0200                	addi	s0,sp,256
 2fe:	0204                	addi	s1,sp,256
 300:	04090003          	lb	zero,64(s2)
 304:	0100                	addi	s0,sp,128
 306:	1c05                	addi	s8,s8,-31
 308:	0200                	addi	s0,sp,256
 30a:	0304                	addi	s1,sp,384
 30c:	04090003          	lb	zero,64(s2)
 310:	0100                	addi	s0,sp,128
 312:	2405                	jal	532 <N+0x212>
 314:	0200                	addi	s0,sp,256
 316:	0404                	addi	s1,sp,512
 318:	04090003          	lb	zero,64(s2)
 31c:	0100                	addi	s0,sp,128
 31e:	2c05                	jal	54e <N+0x22e>
 320:	0200                	addi	s0,sp,256
 322:	0504                	addi	s1,sp,640
 324:	04090003          	lb	zero,64(s2)
 328:	0100                	addi	s0,sp,128
 32a:	3405                	jal	fffffd4a <__heap_start+0xffffed4a>
 32c:	0200                	addi	s0,sp,256
 32e:	0604                	addi	s1,sp,768
 330:	04090003          	lb	zero,64(s2)
 334:	0100                	addi	s0,sp,128
 336:	4005                	c.li	zero,1
 338:	0200                	addi	s0,sp,256
 33a:	0704                	addi	s1,sp,896
 33c:	04090003          	lb	zero,64(s2)
 340:	0100                	addi	s0,sp,128
 342:	3c05                	jal	fffffd72 <__heap_start+0xffffed72>
 344:	0200                	addi	s0,sp,256
 346:	0704                	addi	s1,sp,896
 348:	04090003          	lb	zero,64(s2)
 34c:	0100                	addi	s0,sp,128
 34e:	4805                	li	a6,1
 350:	0200                	addi	s0,sp,256
 352:	0804                	addi	s1,sp,16
 354:	04090003          	lb	zero,64(s2)
 358:	0100                	addi	s0,sp,128
 35a:	4405                	li	s0,1
 35c:	0200                	addi	s0,sp,256
 35e:	0804                	addi	s1,sp,16
 360:	04090003          	lb	zero,64(s2)
 364:	0100                	addi	s0,sp,128
 366:	0f05                	addi	t5,t5,1
 368:	04090103          	lb	sp,64(s2)
 36c:	0100                	addi	s0,sp,128
 36e:	1705                	addi	a4,a4,-31
 370:	0200                	addi	s0,sp,256
 372:	0104                	addi	s1,sp,128
 374:	04090003          	lb	zero,64(s2)
 378:	0100                	addi	s0,sp,128
 37a:	1f05                	addi	t5,t5,-31
 37c:	0200                	addi	s0,sp,256
 37e:	0204                	addi	s1,sp,256
 380:	04090003          	lb	zero,64(s2)
 384:	0100                	addi	s0,sp,128
 386:	2705                	jal	aa6 <N+0x786>
 388:	0200                	addi	s0,sp,256
 38a:	0304                	addi	s1,sp,384
 38c:	04090003          	lb	zero,64(s2)
 390:	0100                	addi	s0,sp,128
 392:	2f05                	jal	ac2 <N+0x7a2>
 394:	0200                	addi	s0,sp,256
 396:	0404                	addi	s1,sp,512
 398:	04090003          	lb	zero,64(s2)
 39c:	0100                	addi	s0,sp,128
 39e:	3705                	jal	2be <main+0x1f2>
 3a0:	0200                	addi	s0,sp,256
 3a2:	0504                	addi	s1,sp,640
 3a4:	04090003          	lb	zero,64(s2)
 3a8:	0100                	addi	s0,sp,128
 3aa:	3f05                	jal	2da <main+0x20e>
 3ac:	0200                	addi	s0,sp,256
 3ae:	0604                	addi	s1,sp,768
 3b0:	04090003          	lb	zero,64(s2)
 3b4:	0100                	addi	s0,sp,128
 3b6:	4705                	li	a4,1
 3b8:	0200                	addi	s0,sp,256
 3ba:	0704                	addi	s1,sp,896
 3bc:	04090003          	lb	zero,64(s2)
 3c0:	0100                	addi	s0,sp,128
 3c2:	0f05                	addi	t5,t5,1
 3c4:	04090103          	lb	sp,64(s2)
 3c8:	0100                	addi	s0,sp,128
 3ca:	1705                	addi	a4,a4,-31
 3cc:	0200                	addi	s0,sp,256
 3ce:	0104                	addi	s1,sp,128
 3d0:	04090003          	lb	zero,64(s2)
 3d4:	0100                	addi	s0,sp,128
 3d6:	1f05                	addi	t5,t5,-31
 3d8:	0200                	addi	s0,sp,256
 3da:	0204                	addi	s1,sp,256
 3dc:	04090003          	lb	zero,64(s2)
 3e0:	0100                	addi	s0,sp,128
 3e2:	2705                	jal	b02 <N+0x7e2>
 3e4:	0200                	addi	s0,sp,256
 3e6:	0304                	addi	s1,sp,384
 3e8:	04090003          	lb	zero,64(s2)
 3ec:	0100                	addi	s0,sp,128
 3ee:	2f05                	jal	b1e <N+0x7fe>
 3f0:	0200                	addi	s0,sp,256
 3f2:	0404                	addi	s1,sp,512
 3f4:	04090003          	lb	zero,64(s2)
 3f8:	0100                	addi	s0,sp,128
 3fa:	3705                	jal	31a <h+0x2>
 3fc:	0200                	addi	s0,sp,256
 3fe:	0504                	addi	s1,sp,640
 400:	04090003          	lb	zero,64(s2)
 404:	0100                	addi	s0,sp,128
 406:	3f05                	jal	336 <N+0x16>
 408:	0200                	addi	s0,sp,256
 40a:	0604                	addi	s1,sp,768
 40c:	04090003          	lb	zero,64(s2)
 410:	0100                	addi	s0,sp,128
 412:	0f05                	addi	t5,t5,1
 414:	04090103          	lb	sp,64(s2)
 418:	0100                	addi	s0,sp,128
 41a:	1705                	addi	a4,a4,-31
 41c:	0200                	addi	s0,sp,256
 41e:	0104                	addi	s1,sp,128
 420:	04090003          	lb	zero,64(s2)
 424:	0100                	addi	s0,sp,128
 426:	1f05                	addi	t5,t5,-31
 428:	0200                	addi	s0,sp,256
 42a:	0204                	addi	s1,sp,256
 42c:	04090003          	lb	zero,64(s2)
 430:	0100                	addi	s0,sp,128
 432:	2705                	jal	b52 <N+0x832>
 434:	0200                	addi	s0,sp,256
 436:	0304                	addi	s1,sp,384
 438:	04090003          	lb	zero,64(s2)
 43c:	0100                	addi	s0,sp,128
 43e:	2f05                	jal	b6e <N+0x84e>
 440:	0200                	addi	s0,sp,256
 442:	0404                	addi	s1,sp,512
 444:	04090003          	lb	zero,64(s2)
 448:	0100                	addi	s0,sp,128
 44a:	3705                	jal	36a <N+0x4a>
 44c:	0200                	addi	s0,sp,256
 44e:	0504                	addi	s1,sp,640
 450:	04090003          	lb	zero,64(s2)
 454:	0100                	addi	s0,sp,128
 456:	0f05                	addi	t5,t5,1
 458:	04090103          	lb	sp,64(s2)
 45c:	0100                	addi	s0,sp,128
 45e:	1705                	addi	a4,a4,-31
 460:	0200                	addi	s0,sp,256
 462:	0104                	addi	s1,sp,128
 464:	04090003          	lb	zero,64(s2)
 468:	0100                	addi	s0,sp,128
 46a:	1f05                	addi	t5,t5,-31
 46c:	0200                	addi	s0,sp,256
 46e:	0204                	addi	s1,sp,256
 470:	04090003          	lb	zero,64(s2)
 474:	0100                	addi	s0,sp,128
 476:	2705                	jal	b96 <N+0x876>
 478:	0200                	addi	s0,sp,256
 47a:	0304                	addi	s1,sp,384
 47c:	04090003          	lb	zero,64(s2)
 480:	0100                	addi	s0,sp,128
 482:	2f05                	jal	bb2 <N+0x892>
 484:	0200                	addi	s0,sp,256
 486:	0404                	addi	s1,sp,512
 488:	04090003          	lb	zero,64(s2)
 48c:	0100                	addi	s0,sp,128
 48e:	0f05                	addi	t5,t5,1
 490:	04090103          	lb	sp,64(s2)
 494:	0100                	addi	s0,sp,128
 496:	1705                	addi	a4,a4,-31
 498:	0200                	addi	s0,sp,256
 49a:	0104                	addi	s1,sp,128
 49c:	04090003          	lb	zero,64(s2)
 4a0:	0100                	addi	s0,sp,128
 4a2:	1f05                	addi	t5,t5,-31
 4a4:	0200                	addi	s0,sp,256
 4a6:	0204                	addi	s1,sp,256
 4a8:	04090003          	lb	zero,64(s2)
 4ac:	0100                	addi	s0,sp,128
 4ae:	2705                	jal	bce <N+0x8ae>
 4b0:	0200                	addi	s0,sp,256
 4b2:	0304                	addi	s1,sp,384
 4b4:	04090003          	lb	zero,64(s2)
 4b8:	0100                	addi	s0,sp,128
 4ba:	2f05                	jal	bea <N+0x8ca>
 4bc:	0200                	addi	s0,sp,256
 4be:	0404                	addi	s1,sp,512
 4c0:	04090003          	lb	zero,64(s2)
 4c4:	0100                	addi	s0,sp,128
 4c6:	3705                	jal	3e6 <N+0xc6>
 4c8:	0200                	addi	s0,sp,256
 4ca:	0504                	addi	s1,sp,640
 4cc:	04090003          	lb	zero,64(s2)
 4d0:	0100                	addi	s0,sp,128
 4d2:	0405                	addi	s0,s0,1
 4d4:	0306                	slli	t1,t1,0x1
 4d6:	0902                	c.slli64	s2
 4d8:	0004                	.insn	2, 0x0004
 4da:	0501                	addi	a0,a0,0
 4dc:	0609                	addi	a2,a2,2
 4de:	00090003          	lb	zero,0(s2)
 4e2:	0100                	addi	s0,sp,128
 4e4:	1405                	addi	s0,s0,-31
 4e6:	0200                	addi	s0,sp,256
 4e8:	0204                	addi	s1,sp,256
 4ea:	0306                	slli	t1,t1,0x1
 4ec:	0978                	addi	a4,sp,156
 4ee:	0004                	.insn	2, 0x0004
 4f0:	0501                	addi	a0,a0,0
 4f2:	000e                	c.slli	zero,0x3
 4f4:	0402                	c.slli64	s0
 4f6:	0301                	addi	t1,t1,0
 4f8:	0900                	addi	s0,sp,144
 4fa:	0004                	.insn	2, 0x0004
 4fc:	0401                	addi	s0,s0,0
 4fe:	0502                	c.slli64	a0
 500:	04020023          	sb	zero,64(tp) # 40 <__hidden___udivsi3+0x20>
 504:	0601                	addi	a2,a2,0
 506:	08090303          	lb	t1,128(s2)
 50a:	0100                	addi	s0,sp,128
 50c:	2c05                	jal	73c <N+0x41c>
 50e:	0200                	addi	s0,sp,256
 510:	0304                	addi	s1,sp,384
 512:	08090003          	lb	zero,128(s2)
 516:	0100                	addi	s0,sp,128
 518:	0104                	addi	s1,sp,128
 51a:	1405                	addi	s0,s0,-31
 51c:	0200                	addi	s0,sp,256
 51e:	0204                	addi	s1,sp,256
 520:	0306                	slli	t1,t1,0x1
 522:	097c                	addi	a5,sp,156
 524:	0008                	.insn	2, 0x0008
 526:	0501                	addi	a0,a0,0
 528:	000e                	c.slli	zero,0x3
 52a:	0402                	c.slli64	s0
 52c:	0301                	addi	t1,t1,0
 52e:	0900                	addi	s0,sp,144
 530:	0004                	.insn	2, 0x0004
 532:	0001                	nop
 534:	0402                	c.slli64	s0
 536:	0301                	addi	t1,t1,0
 538:	0901                	addi	s2,s2,0
 53a:	0006                	c.slli	zero,0x1
 53c:	0501                	addi	a0,a0,0
 53e:	0609                	addi	a2,a2,2
 540:	00090003          	lb	zero,0(s2)
 544:	0100                	addi	s0,sp,128
 546:	1405                	addi	s0,s0,-31
 548:	0200                	addi	s0,sp,256
 54a:	0204                	addi	s1,sp,256
 54c:	0306                	slli	t1,t1,0x1
 54e:	097e                	slli	s2,s2,0x1f
 550:	0004                	.insn	2, 0x0004
 552:	0501                	addi	a0,a0,0
 554:	000e                	c.slli	zero,0x3
 556:	0402                	c.slli64	s0
 558:	0301                	addi	t1,t1,0
 55a:	0900                	addi	s0,sp,144
 55c:	0004                	.insn	2, 0x0004
 55e:	0001                	nop
 560:	0402                	c.slli64	s0
 562:	0301                	addi	t1,t1,0
 564:	0901                	addi	s2,s2,0
 566:	0006                	c.slli	zero,0x1
 568:	0501                	addi	a0,a0,0
 56a:	0609                	addi	a2,a2,2
 56c:	00090003          	lb	zero,0(s2)
 570:	0100                	addi	s0,sp,128
 572:	1405                	addi	s0,s0,-31
 574:	0200                	addi	s0,sp,256
 576:	0204                	addi	s1,sp,256
 578:	0306                	slli	t1,t1,0x1
 57a:	097e                	slli	s2,s2,0x1f
 57c:	0004                	.insn	2, 0x0004
 57e:	0501                	addi	a0,a0,0
 580:	000e                	c.slli	zero,0x3
 582:	0402                	c.slli64	s0
 584:	0301                	addi	t1,t1,0
 586:	0900                	addi	s0,sp,144
 588:	0004                	.insn	2, 0x0004
 58a:	0001                	nop
 58c:	0402                	c.slli64	s0
 58e:	0301                	addi	t1,t1,0
 590:	0901                	addi	s2,s2,0
 592:	0006                	c.slli	zero,0x1
 594:	0501                	addi	a0,a0,0
 596:	0609                	addi	a2,a2,2
 598:	00090003          	lb	zero,0(s2)
 59c:	0100                	addi	s0,sp,128
 59e:	1405                	addi	s0,s0,-31
 5a0:	0200                	addi	s0,sp,256
 5a2:	0204                	addi	s1,sp,256
 5a4:	0306                	slli	t1,t1,0x1
 5a6:	097e                	slli	s2,s2,0x1f
 5a8:	0004                	.insn	2, 0x0004
 5aa:	0501                	addi	a0,a0,0
 5ac:	000e                	c.slli	zero,0x3
 5ae:	0402                	c.slli64	s0
 5b0:	0301                	addi	t1,t1,0
 5b2:	0900                	addi	s0,sp,144
 5b4:	0004                	.insn	2, 0x0004
 5b6:	0001                	nop
 5b8:	0402                	c.slli64	s0
 5ba:	0301                	addi	t1,t1,0
 5bc:	0901                	addi	s2,s2,0
 5be:	0006                	c.slli	zero,0x1
 5c0:	0501                	addi	a0,a0,0
 5c2:	0609                	addi	a2,a2,2
 5c4:	00090003          	lb	zero,0(s2)
 5c8:	0100                	addi	s0,sp,128
 5ca:	1405                	addi	s0,s0,-31
 5cc:	0200                	addi	s0,sp,256
 5ce:	0204                	addi	s1,sp,256
 5d0:	0306                	slli	t1,t1,0x1
 5d2:	097e                	slli	s2,s2,0x1f
 5d4:	0004                	.insn	2, 0x0004
 5d6:	0501                	addi	a0,a0,0
 5d8:	000e                	c.slli	zero,0x3
 5da:	0402                	c.slli64	s0
 5dc:	0301                	addi	t1,t1,0
 5de:	0900                	addi	s0,sp,144
 5e0:	0004                	.insn	2, 0x0004
 5e2:	0001                	nop
 5e4:	0402                	c.slli64	s0
 5e6:	0301                	addi	t1,t1,0
 5e8:	0901                	addi	s2,s2,0
 5ea:	0006                	c.slli	zero,0x1
 5ec:	0501                	addi	a0,a0,0
 5ee:	0609                	addi	a2,a2,2
 5f0:	00090003          	lb	zero,0(s2)
 5f4:	0100                	addi	s0,sp,128
 5f6:	0205                	addi	tp,tp,1 # 1 <_start+0x1>
 5f8:	0306                	slli	t1,t1,0x1
 5fa:	0006090f          	.insn	4, 0x0006090f
 5fe:	0401                	addi	s0,s0,0
 600:	0502                	c.slli64	a0
 602:	0305                	addi	t1,t1,1
 604:	0004092f          	.insn	4, 0x0004092f
 608:	0301                	addi	t1,t1,0
 60a:	0961                	addi	s2,s2,24
 60c:	0000                	unimp
 60e:	0301                	addi	t1,t1,0
 610:	0901                	addi	s2,s2,0
 612:	0000                	unimp
 614:	0301                	addi	t1,t1,0
 616:	0901                	addi	s2,s2,0
 618:	0000                	unimp
 61a:	0301                	addi	t1,t1,0
 61c:	0901                	addi	s2,s2,0
 61e:	0000                	unimp
 620:	0501                	addi	a0,a0,0
 622:	060e                	slli	a2,a2,0x3
 624:	00097f03          	.insn	4, 0x00097f03
 628:	0100                	addi	s0,sp,128
 62a:	0805                	addi	a6,a6,1
 62c:	02090103          	lb	sp,32(s2)
 630:	0100                	addi	s0,sp,128
 632:	0905                	addi	s2,s2,1
 634:	0306                	slli	t1,t1,0x1
 636:	0901                	addi	s2,s2,0
 638:	0004                	.insn	2, 0x0004
 63a:	0301                	addi	t1,t1,0
 63c:	0901                	addi	s2,s2,0
 63e:	0000                	unimp
 640:	0501                	addi	a0,a0,0
 642:	060c                	addi	a1,sp,768
 644:	00090003          	lb	zero,0(s2)
 648:	0100                	addi	s0,sp,128
 64a:	0a05                	addi	s4,s4,1
 64c:	04097f03          	.insn	4, 0x04097f03
 650:	0100                	addi	s0,sp,128
 652:	1505                	addi	a0,a0,-31
 654:	0200                	addi	s0,sp,256
 656:	0104                	addi	s1,sp,128
 658:	08090603          	lb	a2,128(s2)
 65c:	0100                	addi	s0,sp,128
 65e:	0505                	addi	a0,a0,1
 660:	0306                	slli	t1,t1,0x1
 662:	097d                	addi	s2,s2,31
 664:	0002                	c.slli64	zero
 666:	0501                	addi	a0,a0,0
 668:	0309                	addi	t1,t1,2
 66a:	0901                	addi	s2,s2,0
 66c:	0000                	unimp
 66e:	0501                	addi	a0,a0,0
 670:	0618                	addi	a4,sp,768
 672:	02090003          	lb	zero,32(s2)
 676:	0100                	addi	s0,sp,128
 678:	0e05                	addi	t3,t3,1
 67a:	04090003          	lb	zero,64(s2)
 67e:	0100                	addi	s0,sp,128
 680:	1805                	addi	a6,a6,-31
 682:	04090003          	lb	zero,64(s2)
 686:	0100                	addi	s0,sp,128
 688:	1d05                	addi	s10,s10,-31
 68a:	02090003          	lb	zero,32(s2)
 68e:	0100                	addi	s0,sp,128
 690:	1205                	addi	tp,tp,-31 # ffffffe1 <__heap_start+0xffffefe1>
 692:	04090003          	lb	zero,64(s2)
 696:	0100                	addi	s0,sp,128
 698:	1505                	addi	a0,a0,-31
 69a:	0200                	addi	s0,sp,256
 69c:	0104                	addi	s1,sp,128
 69e:	0306                	slli	t1,t1,0x1
 6a0:	0902                	c.slli64	s2
 6a2:	0008                	.insn	2, 0x0008
 6a4:	0501                	addi	a0,a0,0
 6a6:	0010                	.insn	2, 0x0010
 6a8:	0402                	c.slli64	s0
 6aa:	0601                	addi	a2,a2,0
 6ac:	00090003          	lb	zero,0(s2)
 6b0:	0100                	addi	s0,sp,128
 6b2:	1505                	addi	a0,a0,-31
 6b4:	0200                	addi	s0,sp,256
 6b6:	0104                	addi	s1,sp,128
 6b8:	08090003          	lb	zero,128(s2)
 6bc:	0100                	addi	s0,sp,128
 6be:	1005                	c.nop	-31
 6c0:	0200                	addi	s0,sp,256
 6c2:	0104                	addi	s1,sp,128
 6c4:	02090003          	lb	zero,32(s2)
 6c8:	0100                	addi	s0,sp,128
 6ca:	1505                	addi	a0,a0,-31
 6cc:	0200                	addi	s0,sp,256
 6ce:	0104                	addi	s1,sp,128
 6d0:	02090003          	lb	zero,32(s2)
 6d4:	0100                	addi	s0,sp,128
 6d6:	0505                	addi	a0,a0,1
 6d8:	0306                	slli	t1,t1,0x1
 6da:	0901                	addi	s2,s2,0
 6dc:	0004                	.insn	2, 0x0004
 6de:	0501                	addi	a0,a0,0
 6e0:	00030607          	.insn	4, 0x00030607
 6e4:	0009                	c.nop	2
 6e6:	0100                	addi	s0,sp,128
 6e8:	0b05                	addi	s6,s6,1
 6ea:	0200                	addi	s0,sp,256
 6ec:	0104                	addi	s1,sp,128
 6ee:	0306                	slli	t1,t1,0x1
 6f0:	0900                	addi	s0,sp,144
 6f2:	0004                	.insn	2, 0x0004
 6f4:	0501                	addi	a0,a0,0
 6f6:	04020013          	addi	zero,tp,64 # 40 <__hidden___udivsi3+0x20>
 6fa:	0601                	addi	a2,a2,0
 6fc:	00090003          	lb	zero,0(s2)
 700:	0100                	addi	s0,sp,128
 702:	0c05                	addi	s8,s8,1
 704:	0306                	slli	t1,t1,0x1
 706:	0901                	addi	s2,s2,0
 708:	0012                	c.slli	zero,0x4
 70a:	0501                	addi	a0,a0,0
 70c:	062d                	addi	a2,a2,11
 70e:	02095403          	lhu	s0,32(s2)
 712:	0100                	addi	s0,sp,128
 714:	0905                	addi	s2,s2,1
 716:	0306                	slli	t1,t1,0x1
 718:	092d                	addi	s2,s2,11
 71a:	0004                	.insn	2, 0x0004
 71c:	0501                	addi	a0,a0,0
 71e:	0302                	c.slli64	t1
 720:	00040953          	.insn	4, 0x00040953
 724:	0501                	addi	a0,a0,0
 726:	060c                	addi	a1,sp,768
 728:	02092c03          	lw	s8,32(s2)
 72c:	0100                	addi	s0,sp,128
 72e:	2d05                	jal	d5e <N+0xa3e>
 730:	02095403          	lhu	s0,32(s2)
 734:	0100                	addi	s0,sp,128
 736:	0c05                	addi	s8,s8,1
 738:	0306                	slli	t1,t1,0x1
 73a:	092c                	addi	a1,sp,152
 73c:	0004                	.insn	2, 0x0004
 73e:	0501                	addi	a0,a0,0
 740:	0302                	c.slli64	t1
 742:	0914                	addi	a3,sp,144
 744:	0004                	.insn	2, 0x0004
 746:	0301                	addi	t1,t1,0
 748:	0940                	addi	s0,sp,148
 74a:	0000                	unimp
 74c:	0501                	addi	a0,a0,0
 74e:	062d                	addi	a2,a2,11
 750:	00090003          	lb	zero,0(s2)
 754:	0100                	addi	s0,sp,128
 756:	0104                	addi	s1,sp,128
 758:	0205                	addi	tp,tp,1 # 1 <_start+0x1>
 75a:	0306                	slli	t1,t1,0x1
 75c:	0911                	addi	s2,s2,4
 75e:	0006                	c.slli	zero,0x1
 760:	0501                	addi	a0,a0,0
 762:	0601                	addi	a2,a2,0
 764:	00090103          	lb	sp,0(s2)
 768:	0100                	addi	s0,sp,128
 76a:	0204                	addi	s1,sp,256
 76c:	1505                	addi	a0,a0,-31
 76e:	0200                	addi	s0,sp,256
 770:	0104                	addi	s1,sp,128
 772:	14097c03          	.insn	4, 0x14097c03
 776:	0100                	addi	s0,sp,128
 778:	0c09                	addi	s8,s8,2
 77a:	0000                	unimp
 77c:	0101                	addi	sp,sp,0
 77e:	0000014f          	.insn	4, 0x014f
 782:	0005                	c.nop	1
 784:	0004                	.insn	2, 0x0004
 786:	002e                	c.slli	zero,0xb
 788:	0000                	unimp
 78a:	0101                	addi	sp,sp,0
 78c:	fb01                	bnez	a4,69c <N+0x37c>
 78e:	0d0e                	slli	s10,s10,0x3
 790:	0100                	addi	s0,sp,128
 792:	0101                	addi	sp,sp,0
 794:	0001                	nop
 796:	0000                	unimp
 798:	0001                	nop
 79a:	0100                	addi	s0,sp,128
 79c:	0101                	addi	sp,sp,0
 79e:	021f 0045 0000      	.insn	6, 0x0045021f
 7a4:	0089                	addi	ra,ra,2
 7a6:	0000                	unimp
 7a8:	0102                	c.slli64	sp
 7aa:	021f 020f 00c3      	.insn	6, 0x00c3020f021f
 7b0:	0000                	unimp
 7b2:	c301                	beqz	a4,7b2 <N+0x492>
 7b4:	0000                	unimp
 7b6:	0100                	addi	s0,sp,128
 7b8:	0500                	addi	s0,sp,640
 7ba:	1802                	slli	a6,a6,0x20
 7bc:	0000                	unimp
 7be:	0300                	addi	s0,sp,384
 7c0:	00c4                	addi	s1,sp,68
 7c2:	0301                	addi	t1,t1,0
 7c4:	0901                	addi	s2,s2,0
 7c6:	0004                	.insn	2, 0x0004
 7c8:	0301                	addi	t1,t1,0
 7ca:	0904                	addi	s1,sp,144
 7cc:	0004                	.insn	2, 0x0004
 7ce:	0301                	addi	t1,t1,0
 7d0:	0901                	addi	s2,s2,0
 7d2:	0004                	.insn	2, 0x0004
 7d4:	0301                	addi	t1,t1,0
 7d6:	0901                	addi	s2,s2,0
 7d8:	0004                	.insn	2, 0x0004
 7da:	0301                	addi	t1,t1,0
 7dc:	0901                	addi	s2,s2,0
 7de:	0004                	.insn	2, 0x0004
 7e0:	0301                	addi	t1,t1,0
 7e2:	0901                	addi	s2,s2,0
 7e4:	0004                	.insn	2, 0x0004
 7e6:	0301                	addi	t1,t1,0
 7e8:	0901                	addi	s2,s2,0
 7ea:	0004                	.insn	2, 0x0004
 7ec:	0301                	addi	t1,t1,0
 7ee:	0902                	c.slli64	s2
 7f0:	0004                	.insn	2, 0x0004
 7f2:	0301                	addi	t1,t1,0
 7f4:	0901                	addi	s2,s2,0
 7f6:	0004                	.insn	2, 0x0004
 7f8:	0301                	addi	t1,t1,0
 7fa:	0901                	addi	s2,s2,0
 7fc:	0004                	.insn	2, 0x0004
 7fe:	0301                	addi	t1,t1,0
 800:	0901                	addi	s2,s2,0
 802:	0004                	.insn	2, 0x0004
 804:	0301                	addi	t1,t1,0
 806:	0902                	c.slli64	s2
 808:	0004                	.insn	2, 0x0004
 80a:	0301                	addi	t1,t1,0
 80c:	0902                	c.slli64	s2
 80e:	0004                	.insn	2, 0x0004
 810:	0301                	addi	t1,t1,0
 812:	0901                	addi	s2,s2,0
 814:	0004                	.insn	2, 0x0004
 816:	0301                	addi	t1,t1,0
 818:	0901                	addi	s2,s2,0
 81a:	0004                	.insn	2, 0x0004
 81c:	0301                	addi	t1,t1,0
 81e:	0902                	c.slli64	s2
 820:	0004                	.insn	2, 0x0004
 822:	0301                	addi	t1,t1,0
 824:	0901                	addi	s2,s2,0
 826:	0004                	.insn	2, 0x0004
 828:	0301                	addi	t1,t1,0
 82a:	0901                	addi	s2,s2,0
 82c:	0004                	.insn	2, 0x0004
 82e:	0301                	addi	t1,t1,0
 830:	0902                	c.slli64	s2
 832:	0004                	.insn	2, 0x0004
 834:	0301                	addi	t1,t1,0
 836:	0906                	slli	s2,s2,0x1
 838:	0004                	.insn	2, 0x0004
 83a:	0301                	addi	t1,t1,0
 83c:	0901                	addi	s2,s2,0
 83e:	0004                	.insn	2, 0x0004
 840:	0301                	addi	t1,t1,0
 842:	0901                	addi	s2,s2,0
 844:	0004                	.insn	2, 0x0004
 846:	0301                	addi	t1,t1,0
 848:	0901                	addi	s2,s2,0
 84a:	0004                	.insn	2, 0x0004
 84c:	0301                	addi	t1,t1,0
 84e:	0905                	addi	s2,s2,1
 850:	0004                	.insn	2, 0x0004
 852:	0301                	addi	t1,t1,0
 854:	0902                	c.slli64	s2
 856:	0004                	.insn	2, 0x0004
 858:	0301                	addi	t1,t1,0
 85a:	0902                	c.slli64	s2
 85c:	0004                	.insn	2, 0x0004
 85e:	0301                	addi	t1,t1,0
 860:	0901                	addi	s2,s2,0
 862:	0004                	.insn	2, 0x0004
 864:	0301                	addi	t1,t1,0
 866:	0902                	c.slli64	s2
 868:	0004                	.insn	2, 0x0004
 86a:	0301                	addi	t1,t1,0
 86c:	0902                	c.slli64	s2
 86e:	0004                	.insn	2, 0x0004
 870:	0301                	addi	t1,t1,0
 872:	0901                	addi	s2,s2,0
 874:	0004                	.insn	2, 0x0004
 876:	0301                	addi	t1,t1,0
 878:	0901                	addi	s2,s2,0
 87a:	0004                	.insn	2, 0x0004
 87c:	0301                	addi	t1,t1,0
 87e:	0901                	addi	s2,s2,0
 880:	0004                	.insn	2, 0x0004
 882:	0301                	addi	t1,t1,0
 884:	0904                	addi	s1,sp,144
 886:	0004                	.insn	2, 0x0004
 888:	0301                	addi	t1,t1,0
 88a:	0901                	addi	s2,s2,0
 88c:	0004                	.insn	2, 0x0004
 88e:	0301                	addi	t1,t1,0
 890:	0901                	addi	s2,s2,0
 892:	0004                	.insn	2, 0x0004
 894:	0301                	addi	t1,t1,0
 896:	0902                	c.slli64	s2
 898:	0004                	.insn	2, 0x0004
 89a:	0301                	addi	t1,t1,0
 89c:	0901                	addi	s2,s2,0
 89e:	0004                	.insn	2, 0x0004
 8a0:	0301                	addi	t1,t1,0
 8a2:	0901                	addi	s2,s2,0
 8a4:	0004                	.insn	2, 0x0004
 8a6:	0301                	addi	t1,t1,0
 8a8:	0902                	c.slli64	s2
 8aa:	0004                	.insn	2, 0x0004
 8ac:	0301                	addi	t1,t1,0
 8ae:	0901                	addi	s2,s2,0
 8b0:	0004                	.insn	2, 0x0004
 8b2:	0301                	addi	t1,t1,0
 8b4:	0902                	c.slli64	s2
 8b6:	0004                	.insn	2, 0x0004
 8b8:	0301                	addi	t1,t1,0
 8ba:	0901                	addi	s2,s2,0
 8bc:	0004                	.insn	2, 0x0004
 8be:	0301                	addi	t1,t1,0
 8c0:	0901                	addi	s2,s2,0
 8c2:	0004                	.insn	2, 0x0004
 8c4:	0301                	addi	t1,t1,0
 8c6:	0901                	addi	s2,s2,0
 8c8:	0004                	.insn	2, 0x0004
 8ca:	0901                	addi	s2,s2,0
 8cc:	0004                	.insn	2, 0x0004
 8ce:	0100                	addi	s0,sp,128
 8d0:	Address 0x8d0 is out of bounds.


Disassembly of section .debug_str:

00000000 <.debug_str>:
   0:	6c74756f          	jal	a0,47ec6 <__heap_start+0x46ec6>
   4:	6e6c                	.insn	2, 0x6e6c
   6:	6c00                	.insn	2, 0x6c00
   8:	20676e6f          	jal	t3,7620e <__heap_start+0x7520e>
   c:	6e75                	lui	t3,0x1d
   e:	6e676973          	.insn	4, 0x6e676973
  12:	6465                	lui	s0,0x19
  14:	6920                	.insn	2, 0x6920
  16:	746e                	.insn	2, 0x746e
  18:	6f00                	.insn	2, 0x6f00
  1a:	7475                	lui	s0,0xffffd
  1c:	0062                	c.slli	zero,0x18
  1e:	6164                	.insn	2, 0x6164
  20:	6174                	.insn	2, 0x6174
  22:	7300                	.insn	2, 0x7300
  24:	6769                	lui	a4,0x1a
  26:	006e                	c.slli	zero,0x1b
  28:	5f5f 6964 7376      	.insn	6, 0x737669645f5f
  2e:	3369                	jal	fffffdb8 <__heap_start+0xffffedb8>
  30:	6f00                	.insn	2, 0x6f00
  32:	7475                	lui	s0,0xffffd
  34:	006c                	addi	a1,sp,12
  36:	6e75                	lui	t3,0x1d
  38:	6e676973          	.insn	4, 0x6e676973
  3c:	6465                	lui	s0,0x19
  3e:	6320                	.insn	2, 0x6320
  40:	6168                	.insn	2, 0x6168
  42:	0072                	c.slli	zero,0x1c
  44:	616d                	addi	sp,sp,240
  46:	6e69                	lui	t3,0x1a
  48:	7400                	.insn	2, 0x7400
  4a:	6c61746f          	jal	s0,17710 <__heap_start+0x16710>
  4e:	4700                	lw	s0,8(a4)
  50:	554e                	lw	a0,240(sp)
  52:	4320                	lw	s0,64(a4)
  54:	3731                	jal	ffffff60 <__heap_start+0xffffef60>
  56:	3120                	.insn	2, 0x3120
  58:	2e34                	.insn	2, 0x2e34
  5a:	2e31                	jal	376 <N+0x56>
  5c:	2030                	.insn	2, 0x2030
  5e:	6d2d                	lui	s10,0xb
  60:	6261                	lui	tp,0x18
  62:	3d69                	jal	fffffefc <__heap_start+0xffffeefc>
  64:	6c69                	lui	s8,0x1a
  66:	3370                	.insn	2, 0x3370
  68:	2032                	.insn	2, 0x2032
  6a:	6d2d                	lui	s10,0xb
  6c:	7369                	lui	t1,0xffffa
  6e:	2d61                	jal	706 <N+0x3e6>
  70:	63657073          	.insn	4, 0x63657073
  74:	323d                	jal	fffff9a2 <__heap_start+0xffffe9a2>
  76:	3130                	.insn	2, 0x3130
  78:	3139                	jal	fffffc86 <__heap_start+0xffffec86>
  7a:	3132                	.insn	2, 0x3132
  7c:	6d2d2033          	.insn	4, 0x6d2d2033
  80:	7261                	lui	tp,0xffff8
  82:	723d6863          	bltu	s10,gp,7b2 <N+0x492>
  86:	3376                	.insn	2, 0x3376
  88:	6932                	.insn	2, 0x6932
  8a:	672d2063          	.insn	4, 0x672d2063
  8e:	2d20                	.insn	2, 0x2d20
  90:	2d20324f          	.insn	4, 0x2d20324f
  94:	3d647473          	.insn	4, 0x3d647473
  98:	00373163          	.insn	4, 0x00373163
  9c:	5f5f 6f6d 7364      	.insn	6, 0x73646f6d5f5f
  a2:	3369                	jal	fffffe2c <__heap_start+0xffffee2c>
  a4:	2f00                	.insn	2, 0x2f00
  a6:	7562                	.insn	2, 0x7562
  a8:	6c69                	lui	s8,0x1a
  aa:	2f64                	.insn	2, 0x2f64
  ac:	6972                	.insn	2, 0x6972
  ae:	36766373          	.insn	4, 0x36766373
  b2:	2d34                	.insn	2, 0x2d34
  b4:	6c65                	lui	s8,0x19
  b6:	2d66                	.insn	2, 0x2d66
  b8:	2f636367          	.insn	4, 0x2f636367
  bc:	2f637273          	.insn	4, 0x2f637273
  c0:	2d636367          	.insn	4, 0x2d636367
  c4:	3431                	jal	fffffad0 <__heap_start+0xffffead0>
  c6:	312e                	.insn	2, 0x312e
  c8:	302e                	.insn	2, 0x302e
  ca:	62696c2f          	.insn	4, 0x62696c2f
  ce:	2f636367          	.insn	4, 0x2f636367
  d2:	666e6f63          	bltu	t3,t1,750 <N+0x430>
  d6:	6769                	lui	a4,0x1a
  d8:	7369722f          	.insn	4, 0x7369722f
  dc:	642f7663          	bgeu	t5,sp,728 <N+0x408>
  e0:	7669                	lui	a2,0xffffa
  e2:	532e                	lw	t1,232(sp)
  e4:	2f00                	.insn	2, 0x2f00
  e6:	7562                	.insn	2, 0x7562
  e8:	6c69                	lui	s8,0x1a
  ea:	2f64                	.insn	2, 0x2f64
  ec:	6972                	.insn	2, 0x6972
  ee:	36766373          	.insn	4, 0x36766373
  f2:	2d34                	.insn	2, 0x2d34
  f4:	6c65                	lui	s8,0x19
  f6:	2d66                	.insn	2, 0x2d66
  f8:	2f636367          	.insn	4, 0x2f636367
  fc:	2f637273          	.insn	4, 0x2f637273
 100:	7562                	.insn	2, 0x7562
 102:	6c69                	lui	s8,0x1a
 104:	2d64                	.insn	2, 0x2d64
 106:	2f636367          	.insn	4, 0x2f636367
 10a:	6972                	.insn	2, 0x6972
 10c:	36766373          	.insn	4, 0x36766373
 110:	2d34                	.insn	2, 0x2d34
 112:	6c65                	lui	s8,0x19
 114:	2f66                	.insn	2, 0x2f66
 116:	7672                	.insn	2, 0x7672
 118:	2f693233          	.insn	4, 0x2f693233
 11c:	6c69                	lui	s8,0x1a
 11e:	3370                	.insn	2, 0x3370
 120:	2f32                	.insn	2, 0x2f32
 122:	696c                	.insn	2, 0x696c
 124:	6762                	.insn	2, 0x6762
 126:	47006363          	bltu	zero,a6,58c <N+0x26c>
 12a:	554e                	lw	a0,240(sp)
 12c:	4120                	lw	s0,64(a0)
 12e:	2e322053          	.insn	4, 0x2e322053
 132:	5f003933          	.insn	4, 0x5f003933
 136:	685f 6469 6564      	.insn	6, 0x65646469685f
 13c:	5f6e                	lw	t5,248(sp)
 13e:	5f5f 6475 7669      	.insn	6, 0x766964755f5f
 144:	00336973          	.insn	4, 0x00336973
 148:	5f5f 6d75 646f      	.insn	6, 0x646f6d755f5f
 14e:	00336973          	.insn	4, 0x00336973

Disassembly of section .debug_line_str:

00000000 <.debug_line_str>:
   0:	7070612f          	.insn	4, 0x7070612f
   4:	7365742f          	.insn	4, 0x7365742f
   8:	6374                	.insn	2, 0x6374
   a:	7361                	lui	t1,0xffff8
   c:	0065                	c.nop	25
   e:	7070612f          	.insn	4, 0x7070612f
  12:	7365742f          	.insn	4, 0x7365742f
  16:	6374                	.insn	2, 0x6374
  18:	7361                	lui	t1,0xffff8
  1a:	2f65                	jal	7d2 <N+0x4b2>
  1c:	7066                	.insn	2, 0x7066
  1e:	732f6167          	.insn	4, 0x732f6167
  22:	7075                	c.lui	zero,0xffffd
  24:	7265                	lui	tp,0xffff9
  26:	6f6c                	.insn	2, 0x6f6c
  28:	632e706f          	j	e765a <__heap_start+0xe665a>
  2c:	2f00                	.insn	2, 0x2f00
  2e:	7061                	c.lui	zero,0xffff8
  30:	2f70                	.insn	2, 0x2f70
  32:	6574                	.insn	2, 0x6574
  34:	61637473          	.insn	4, 0x61637473
  38:	662f6573          	.insn	4, 0x662f6573
  3c:	6770                	.insn	2, 0x6770
  3e:	0061                	c.nop	24
  40:	6f69                	lui	t5,0x1a
  42:	682e                	.insn	2, 0x682e
  44:	2f00                	.insn	2, 0x2f00
  46:	7562                	.insn	2, 0x7562
  48:	6c69                	lui	s8,0x1a
  4a:	2f64                	.insn	2, 0x2f64
  4c:	6972                	.insn	2, 0x6972
  4e:	36766373          	.insn	4, 0x36766373
  52:	2d34                	.insn	2, 0x2d34
  54:	6c65                	lui	s8,0x19
  56:	2d66                	.insn	2, 0x2d66
  58:	2f636367          	.insn	4, 0x2f636367
  5c:	2f637273          	.insn	4, 0x2f637273
  60:	7562                	.insn	2, 0x7562
  62:	6c69                	lui	s8,0x1a
  64:	2d64                	.insn	2, 0x2d64
  66:	2f636367          	.insn	4, 0x2f636367
  6a:	6972                	.insn	2, 0x6972
  6c:	36766373          	.insn	4, 0x36766373
  70:	2d34                	.insn	2, 0x2d34
  72:	6c65                	lui	s8,0x19
  74:	2f66                	.insn	2, 0x2f66
  76:	7672                	.insn	2, 0x7672
  78:	2f693233          	.insn	4, 0x2f693233
  7c:	6c69                	lui	s8,0x1a
  7e:	3370                	.insn	2, 0x3370
  80:	2f32                	.insn	2, 0x2f32
  82:	696c                	.insn	2, 0x696c
  84:	6762                	.insn	2, 0x6762
  86:	2f006363          	bltu	zero,a6,36c <N+0x4c>
  8a:	7562                	.insn	2, 0x7562
  8c:	6c69                	lui	s8,0x1a
  8e:	2f64                	.insn	2, 0x2f64
  90:	6972                	.insn	2, 0x6972
  92:	36766373          	.insn	4, 0x36766373
  96:	2d34                	.insn	2, 0x2d34
  98:	6c65                	lui	s8,0x19
  9a:	2d66                	.insn	2, 0x2d66
  9c:	2f636367          	.insn	4, 0x2f636367
  a0:	2f637273          	.insn	4, 0x2f637273
  a4:	2d636367          	.insn	4, 0x2d636367
  a8:	3431                	jal	fffffab4 <__heap_start+0xffffeab4>
  aa:	312e                	.insn	2, 0x312e
  ac:	302e                	.insn	2, 0x302e
  ae:	62696c2f          	.insn	4, 0x62696c2f
  b2:	2f636367          	.insn	4, 0x2f636367
  b6:	666e6f63          	bltu	t3,t1,734 <N+0x414>
  ba:	6769                	lui	a4,0x1a
  bc:	7369722f          	.insn	4, 0x7369722f
  c0:	64007663          	bgeu	zero,zero,70c <N+0x3ec>
  c4:	7669                	lui	a2,0xffffa
  c6:	532e                	lw	t1,232(sp)
	...

Disassembly of section .debug_frame:

00000000 <.debug_frame>:
   0:	000c                	.insn	2, 0x000c
   2:	0000                	unimp
   4:	ffff                	.insn	2, 0xffff
   6:	ffff                	.insn	2, 0xffff
   8:	7c010003          	lb	zero,1984(sp)
   c:	0d01                	addi	s10,s10,0 # b000 <__heap_start+0xa000>
   e:	0002                	c.slli64	zero
  10:	0034                	addi	a3,sp,8
  12:	0000                	unimp
  14:	0000                	unimp
  16:	0000                	unimp
  18:	00cc                	addi	a1,sp,68
  1a:	0000                	unimp
  1c:	0240                	addi	s0,sp,260
  1e:	0000                	unimp
  20:	0e42                	slli	t3,t3,0x10
  22:	4e40                	lw	s0,28(a2)
  24:	0181                	addi	gp,gp,0
  26:	0288                	addi	a0,sp,320
  28:	0389                	addi	t2,t2,2
  2a:	0492                	slli	s1,s1,0x4
  2c:	06940593          	addi	a1,s0,105 # 19069 <__heap_start+0x18069>
  30:	0795                	addi	a5,a5,5
  32:	0a021203          	lh	tp,160(tp) # ffff90a0 <__heap_start+0xffff80a0>
  36:	42c1                	li	t0,16
  38:	42c8                	lw	a0,4(a3)
  3a:	42c9                	li	t0,18
  3c:	42d2                	lw	t0,20(sp)
  3e:	42d442d3          	.insn	4, 0x42d442d3
  42:	44d5                	li	s1,21
  44:	000e                	c.slli	zero,0x3
  46:	0b42                	slli	s6,s6,0x10
