
/app/testcase/fpga/testsleep.elf:     file format elf32-littleriscv


Disassembly of section .text:

00000000 <_start>:
   0:	00020137          	lui	sp,0x20
   4:	178000ef          	jal	17c <main>
   8:	0ff00513          	li	a0,255
   c:	000306b7          	lui	a3,0x30
  10:	00a68223          	sb	a0,4(a3) # 30004 <__heap_start+0x2f004>
  14:	bfe5                	j	c <_start+0xc>

00000016 <outl>:
  16:	7179                	addi	sp,sp,-48
  18:	d422                	sw	s0,40(sp)
  1a:	c85a                	sw	s6,16(sp)
  1c:	d606                	sw	ra,44(sp)
  1e:	d226                	sw	s1,36(sp)
  20:	d04a                	sw	s2,32(sp)
  22:	ce4e                	sw	s3,28(sp)
  24:	cc52                	sw	s4,24(sp)
  26:	ca56                	sw	s5,20(sp)
  28:	842a                	mv	s0,a0
  2a:	4b01                	li	s6,0
  2c:	00055563          	bgez	a0,36 <outl+0x20>
  30:	40a00433          	neg	s0,a0
  34:	4b05                	li	s6,1
  36:	4901                	li	s2,0
  38:	00410993          	addi	s3,sp,4 # 20004 <__heap_start+0x1f004>
  3c:	4aa5                	li	s5,9
  3e:	45a9                	li	a1,10
  40:	8522                	mv	a0,s0
  42:	2229                	jal	14c <__modsi3>
  44:	84ca                	mv	s1,s2
  46:	0905                	addi	s2,s2,1
  48:	01298a33          	add	s4,s3,s2
  4c:	03050513          	addi	a0,a0,48
  50:	feaa0fa3          	sb	a0,-1(s4)
  54:	45a9                	li	a1,10
  56:	8522                	mv	a0,s0
  58:	8a22                	mv	s4,s0
  5a:	20bd                	jal	c8 <__divsi3>
  5c:	842a                	mv	s0,a0
  5e:	ff4ac0e3          	blt	s5,s4,3e <outl+0x28>
  62:	000b0a63          	beqz	s6,76 <outl+0x60>
  66:	01090793          	addi	a5,s2,16
  6a:	978a                	add	a5,a5,sp
  6c:	02d00713          	li	a4,45
  70:	84ca                	mv	s1,s2
  72:	fee78a23          	sb	a4,-12(a5)
  76:	009987b3          	add	a5,s3,s1
  7a:	00030637          	lui	a2,0x30
  7e:	0007c683          	lbu	a3,0(a5)
  82:	873e                	mv	a4,a5
  84:	17fd                	addi	a5,a5,-1
  86:	00d60023          	sb	a3,0(a2) # 30000 <__heap_start+0x2f000>
  8a:	fee99ae3          	bne	s3,a4,7e <outl+0x68>
  8e:	50b2                	lw	ra,44(sp)
  90:	5422                	lw	s0,40(sp)
  92:	5492                	lw	s1,36(sp)
  94:	5902                	lw	s2,32(sp)
  96:	49f2                	lw	s3,28(sp)
  98:	4a62                	lw	s4,24(sp)
  9a:	4ad2                	lw	s5,20(sp)
  9c:	4b42                	lw	s6,16(sp)
  9e:	6145                	addi	sp,sp,48
  a0:	8082                	ret

000000a2 <clock>:
  a2:	00030637          	lui	a2,0x30
  a6:	86b2                	mv	a3,a2
  a8:	00464603          	lbu	a2,4(a2) # 30004 <__heap_start+0x2f004>
  ac:	0056c503          	lbu	a0,5(a3)
  b0:	0066c703          	lbu	a4,6(a3)
  b4:	0076c783          	lbu	a5,7(a3)
  b8:	0522                	slli	a0,a0,0x8
  ba:	0742                	slli	a4,a4,0x10
  bc:	07e2                	slli	a5,a5,0x18
  be:	8fd9                	or	a5,a5,a4
  c0:	8fd1                	or	a5,a5,a2
  c2:	8d5d                	or	a0,a0,a5
  c4:	8082                	ret
	...

000000c8 <__divsi3>:
  c8:	06054063          	bltz	a0,128 <__umodsi3+0x10>
  cc:	0605c663          	bltz	a1,138 <__umodsi3+0x20>

000000d0 <__hidden___udivsi3>:
  d0:	00058613          	mv	a2,a1
  d4:	00050593          	mv	a1,a0
  d8:	fff00513          	li	a0,-1
  dc:	02060c63          	beqz	a2,114 <__hidden___udivsi3+0x44>
  e0:	00100693          	li	a3,1
  e4:	00b67a63          	bgeu	a2,a1,f8 <__hidden___udivsi3+0x28>
  e8:	00c05863          	blez	a2,f8 <__hidden___udivsi3+0x28>
  ec:	00161613          	slli	a2,a2,0x1
  f0:	00169693          	slli	a3,a3,0x1
  f4:	feb66ae3          	bltu	a2,a1,e8 <__hidden___udivsi3+0x18>
  f8:	00000513          	li	a0,0
  fc:	00c5e663          	bltu	a1,a2,108 <__hidden___udivsi3+0x38>
 100:	40c585b3          	sub	a1,a1,a2
 104:	00d56533          	or	a0,a0,a3
 108:	0016d693          	srli	a3,a3,0x1
 10c:	00165613          	srli	a2,a2,0x1
 110:	fe0696e3          	bnez	a3,fc <__hidden___udivsi3+0x2c>
 114:	00008067          	ret

00000118 <__umodsi3>:
 118:	00008293          	mv	t0,ra
 11c:	fb5ff0ef          	jal	d0 <__hidden___udivsi3>
 120:	00058513          	mv	a0,a1
 124:	00028067          	jr	t0
 128:	40a00533          	neg	a0,a0
 12c:	00b04863          	bgtz	a1,13c <__umodsi3+0x24>
 130:	40b005b3          	neg	a1,a1
 134:	f9dff06f          	j	d0 <__hidden___udivsi3>
 138:	40b005b3          	neg	a1,a1
 13c:	00008293          	mv	t0,ra
 140:	f91ff0ef          	jal	d0 <__hidden___udivsi3>
 144:	40a00533          	neg	a0,a0
 148:	00028067          	jr	t0

0000014c <__modsi3>:
 14c:	00008293          	mv	t0,ra
 150:	0005ca63          	bltz	a1,164 <__modsi3+0x18>
 154:	00054c63          	bltz	a0,16c <__modsi3+0x20>
 158:	f79ff0ef          	jal	d0 <__hidden___udivsi3>
 15c:	00058513          	mv	a0,a1
 160:	00028067          	jr	t0
 164:	40b005b3          	neg	a1,a1
 168:	fe0558e3          	bgez	a0,158 <__modsi3+0xc>
 16c:	40a00533          	neg	a0,a0
 170:	f61ff0ef          	jal	d0 <__hidden___udivsi3>
 174:	40b00533          	neg	a0,a1
 178:	00028067          	jr	t0

Disassembly of section .text.startup:

0000017c <main>:
 17c:	1141                	addi	sp,sp,-16
 17e:	c606                	sw	ra,12(sp)
 180:	c422                	sw	s0,8(sp)
 182:	c226                	sw	s1,4(sp)
 184:	c04a                	sw	s2,0(sp)
 186:	3f31                	jal	a2 <clock>
 188:	842a                	mv	s0,a0
 18a:	3f21                	jal	a2 <clock>
 18c:	00030e37          	lui	t3,0x30
 190:	8372                	mv	t1,t3
 192:	88f2                	mv	a7,t3
 194:	8872                	mv	a6,t3
 196:	29b925b7          	lui	a1,0x29b92
 19a:	0e11                	addi	t3,t3,4 # 30004 <__heap_start+0x2f004>
 19c:	0315                	addi	t1,t1,5
 19e:	0899                	addi	a7,a7,6
 1a0:	081d                	addi	a6,a6,7
 1a2:	6ff58593          	addi	a1,a1,1791 # 29b926ff <__heap_start+0x29b916ff>
 1a6:	000304b7          	lui	s1,0x30
 1aa:	000e4603          	lbu	a2,0(t3)
 1ae:	00034703          	lbu	a4,0(t1)
 1b2:	0008c683          	lbu	a3,0(a7)
 1b6:	00084783          	lbu	a5,0(a6)
 1ba:	0722                	slli	a4,a4,0x8
 1bc:	06c2                	slli	a3,a3,0x10
 1be:	07e2                	slli	a5,a5,0x18
 1c0:	8fd5                	or	a5,a5,a3
 1c2:	8fd1                	or	a5,a5,a2
 1c4:	8fd9                	or	a5,a5,a4
 1c6:	8f89                	sub	a5,a5,a0
 1c8:	fef5f1e3          	bgeu	a1,a5,1aa <main+0x2e>
 1cc:	3dd9                	jal	a2 <clock>
 1ce:	40850433          	sub	s0,a0,s0
 1d2:	8522                	mv	a0,s0
 1d4:	3589                	jal	16 <outl>
 1d6:	4929                	li	s2,10
 1d8:	042c25b7          	lui	a1,0x42c2
 1dc:	01248023          	sb	s2,0(s1) # 30000 <__heap_start+0x2f000>
 1e0:	8522                	mv	a0,s0
 1e2:	d8058593          	addi	a1,a1,-640 # 42c1d80 <__heap_start+0x42c0d80>
 1e6:	35cd                	jal	c8 <__divsi3>
 1e8:	353d                	jal	16 <outl>
 1ea:	01248023          	sb	s2,0(s1)
 1ee:	40b2                	lw	ra,12(sp)
 1f0:	4422                	lw	s0,8(sp)
 1f2:	4492                	lw	s1,4(sp)
 1f4:	4902                	lw	s2,0(sp)
 1f6:	4501                	li	a0,0
 1f8:	0141                	addi	sp,sp,16
 1fa:	8082                	ret
