
/app/testcase/sim1/000_array_test1.elf:     file format elf32-littleriscv


Disassembly of section .text:

00000000 <_start>:
   0:	00020137          	lui	sp,0x20
   4:	0c8000ef          	jal	cc <main>
   8:	0ff00513          	li	a0,255
   c:	000306b7          	lui	a3,0x30
  10:	00a68223          	sb	a0,4(a3) # 30004 <__heap_start+0x2f004>
  14:	bfe5                	j	c <_start+0xc>
	...

00000018 <__divsi3>:
  18:	06054063          	bltz	a0,78 <__umodsi3+0x10>
  1c:	0605c663          	bltz	a1,88 <__umodsi3+0x20>

00000020 <__hidden___udivsi3>:
  20:	00058613          	mv	a2,a1
  24:	00050593          	mv	a1,a0
  28:	fff00513          	li	a0,-1
  2c:	02060c63          	beqz	a2,64 <__hidden___udivsi3+0x44>
  30:	00100693          	li	a3,1
  34:	00b67a63          	bgeu	a2,a1,48 <__hidden___udivsi3+0x28>
  38:	00c05863          	blez	a2,48 <__hidden___udivsi3+0x28>
  3c:	00161613          	slli	a2,a2,0x1
  40:	00169693          	slli	a3,a3,0x1
  44:	feb66ae3          	bltu	a2,a1,38 <__hidden___udivsi3+0x18>
  48:	00000513          	li	a0,0
  4c:	00c5e663          	bltu	a1,a2,58 <__hidden___udivsi3+0x38>
  50:	40c585b3          	sub	a1,a1,a2
  54:	00d56533          	or	a0,a0,a3
  58:	0016d693          	srli	a3,a3,0x1
  5c:	00165613          	srli	a2,a2,0x1
  60:	fe0696e3          	bnez	a3,4c <__hidden___udivsi3+0x2c>
  64:	00008067          	ret

00000068 <__umodsi3>:
  68:	00008293          	mv	t0,ra
  6c:	fb5ff0ef          	jal	20 <__hidden___udivsi3>
  70:	00058513          	mv	a0,a1
  74:	00028067          	jr	t0
  78:	40a00533          	neg	a0,a0
  7c:	00b04863          	bgtz	a1,8c <__umodsi3+0x24>
  80:	40b005b3          	neg	a1,a1
  84:	f9dff06f          	j	20 <__hidden___udivsi3>
  88:	40b005b3          	neg	a1,a1
  8c:	00008293          	mv	t0,ra
  90:	f91ff0ef          	jal	20 <__hidden___udivsi3>
  94:	40a00533          	neg	a0,a0
  98:	00028067          	jr	t0

0000009c <__modsi3>:
  9c:	00008293          	mv	t0,ra
  a0:	0005ca63          	bltz	a1,b4 <__modsi3+0x18>
  a4:	00054c63          	bltz	a0,bc <__modsi3+0x20>
  a8:	f79ff0ef          	jal	20 <__hidden___udivsi3>
  ac:	00058513          	mv	a0,a1
  b0:	00028067          	jr	t0
  b4:	40b005b3          	neg	a1,a1
  b8:	fe0558e3          	bgez	a0,a8 <__modsi3+0xc>
  bc:	40a00533          	neg	a0,a0
  c0:	f61ff0ef          	jal	20 <__hidden___udivsi3>
  c4:	40b00533          	neg	a0,a1
  c8:	00028067          	jr	t0

Disassembly of section .text.startup:

000000cc <main>:
  cc:	715d                	addi	sp,sp,-80
  ce:	da56                	sw	s5,52(sp)
  d0:	c0ca                	sw	s2,64(sp)
  d2:	de4e                	sw	s3,60(sp)
  d4:	dc52                	sw	s4,56(sp)
  d6:	d85a                	sw	s6,48(sp)
  d8:	d65e                	sw	s7,44(sp)
  da:	21400793          	li	a5,532
  de:	c686                	sw	ra,76(sp)
  e0:	c4a2                	sw	s0,72(sp)
  e2:	c2a6                	sw	s1,68(sp)
  e4:	d462                	sw	s8,40(sp)
  e6:	d266                	sw	s9,36(sp)
  e8:	d06a                	sw	s10,32(sp)
  ea:	4711                	li	a4,4
  ec:	21400a93          	li	s5,532
  f0:	4585                	li	a1,1
  f2:	4609                	li	a2,2
  f4:	468d                	li	a3,3
  f6:	0007a023          	sw	zero,0(a5)
  fa:	0007a223          	sw	zero,4(a5)
  fe:	0007a423          	sw	zero,8(a5)
 102:	0007a623          	sw	zero,12(a5)
 106:	010a8b13          	addi	s6,s5,16
 10a:	c82e                	sw	a1,16(sp)
 10c:	ca32                	sw	a2,20(sp)
 10e:	cc36                	sw	a3,24(sp)
 110:	ce3a                	sw	a4,28(sp)
 112:	00e10933          	add	s2,sp,a4
 116:	49a5                	li	s3,9
 118:	02d00b93          	li	s7,45
 11c:	00030a37          	lui	s4,0x30
 120:	000aa403          	lw	s0,0(s5)
 124:	4c01                	li	s8,0
 126:	0c044f63          	bltz	s0,204 <main+0x138>
 12a:	4c81                	li	s9,0
 12c:	45a9                	li	a1,10
 12e:	8522                	mv	a0,s0
 130:	37b5                	jal	9c <__modsi3>
 132:	84e6                	mv	s1,s9
 134:	0c85                	addi	s9,s9,1
 136:	01990d33          	add	s10,s2,s9
 13a:	03050513          	addi	a0,a0,48
 13e:	fead0fa3          	sb	a0,-1(s10)
 142:	45a9                	li	a1,10
 144:	8522                	mv	a0,s0
 146:	8d22                	mv	s10,s0
 148:	3dc1                	jal	18 <__divsi3>
 14a:	842a                	mv	s0,a0
 14c:	ffa9c0e3          	blt	s3,s10,12c <main+0x60>
 150:	000c0763          	beqz	s8,15e <main+0x92>
 154:	002c87b3          	add	a5,s9,sp
 158:	01778223          	sb	s7,4(a5)
 15c:	84e6                	mv	s1,s9
 15e:	009907b3          	add	a5,s2,s1
 162:	0007c683          	lbu	a3,0(a5)
 166:	873e                	mv	a4,a5
 168:	17fd                	addi	a5,a5,-1
 16a:	00da0023          	sb	a3,0(s4) # 30000 <__heap_start+0x2f000>
 16e:	fee91ae3          	bne	s2,a4,162 <main+0x96>
 172:	0a91                	addi	s5,s5,4
 174:	fb6a96e3          	bne	s5,s6,120 <main+0x54>
 178:	47a9                	li	a5,10
 17a:	00fa0023          	sb	a5,0(s4)
 17e:	01010b13          	addi	s6,sp,16 # 20010 <__heap_start+0x1f010>
 182:	4a25                	li	s4,9
 184:	02d00b93          	li	s7,45
 188:	00030ab7          	lui	s5,0x30
 18c:	000b2403          	lw	s0,0(s6)
 190:	4c01                	li	s8,0
 192:	06044d63          	bltz	s0,20c <main+0x140>
 196:	4981                	li	s3,0
 198:	45a9                	li	a1,10
 19a:	8522                	mv	a0,s0
 19c:	3701                	jal	9c <__modsi3>
 19e:	84ce                	mv	s1,s3
 1a0:	0985                	addi	s3,s3,1
 1a2:	01390cb3          	add	s9,s2,s3
 1a6:	03050513          	addi	a0,a0,48
 1aa:	feac8fa3          	sb	a0,-1(s9)
 1ae:	45a9                	li	a1,10
 1b0:	8522                	mv	a0,s0
 1b2:	8ca2                	mv	s9,s0
 1b4:	3595                	jal	18 <__divsi3>
 1b6:	842a                	mv	s0,a0
 1b8:	ff9a40e3          	blt	s4,s9,198 <main+0xcc>
 1bc:	000c0763          	beqz	s8,1ca <main+0xfe>
 1c0:	002987b3          	add	a5,s3,sp
 1c4:	01778223          	sb	s7,4(a5)
 1c8:	84ce                	mv	s1,s3
 1ca:	009907b3          	add	a5,s2,s1
 1ce:	0007c683          	lbu	a3,0(a5)
 1d2:	873e                	mv	a4,a5
 1d4:	17fd                	addi	a5,a5,-1
 1d6:	00da8023          	sb	a3,0(s5) # 30000 <__heap_start+0x2f000>
 1da:	fee91ae3          	bne	s2,a4,1ce <main+0x102>
 1de:	0b11                	addi	s6,s6,4
 1e0:	101c                	addi	a5,sp,32
 1e2:	fb6795e3          	bne	a5,s6,18c <main+0xc0>
 1e6:	40b6                	lw	ra,76(sp)
 1e8:	4426                	lw	s0,72(sp)
 1ea:	4496                	lw	s1,68(sp)
 1ec:	4906                	lw	s2,64(sp)
 1ee:	59f2                	lw	s3,60(sp)
 1f0:	5a62                	lw	s4,56(sp)
 1f2:	5ad2                	lw	s5,52(sp)
 1f4:	5b42                	lw	s6,48(sp)
 1f6:	5bb2                	lw	s7,44(sp)
 1f8:	5c22                	lw	s8,40(sp)
 1fa:	5c92                	lw	s9,36(sp)
 1fc:	5d02                	lw	s10,32(sp)
 1fe:	4501                	li	a0,0
 200:	6161                	addi	sp,sp,80
 202:	8082                	ret
 204:	40800433          	neg	s0,s0
 208:	4c05                	li	s8,1
 20a:	b705                	j	12a <main+0x5e>
 20c:	40800433          	neg	s0,s0
 210:	4c05                	li	s8,1
 212:	b751                	j	196 <main+0xca>
