
/app/testcase/sim1/102_qsort.elf:     file format elf32-littleriscv


Disassembly of section .text:

00000000 <_start>:
   0:	00020137          	lui	sp,0x20
   4:	18c000ef          	jal	190 <main>
   8:	0ff00513          	li	a0,255
   c:	000306b7          	lui	a3,0x30
  10:	00a68223          	sb	a0,4(a3) # 30004 <__heap_start+0x25004>
  14:	bfe5                	j	c <_start+0xc>

00000016 <qsrt>:
  16:	00b50733          	add	a4,a0,a1
  1a:	01f75793          	srli	a5,a4,0x1f
  1e:	97ba                	add	a5,a5,a4
  20:	8785                	srai	a5,a5,0x1
  22:	078a                	slli	a5,a5,0x2
  24:	28000893          	li	a7,640
  28:	97c6                	add	a5,a5,a7
  2a:	4390                	lw	a2,0(a5)
  2c:	1141                	addi	sp,sp,-16 # 1fff0 <__heap_start+0x14ff0>
  2e:	40000eb7          	lui	t4,0x40000
  32:	c422                	sw	s0,8(sp)
  34:	c226                	sw	s1,4(sp)
  36:	c606                	sw	ra,12(sp)
  38:	84ae                	mv	s1,a1
  3a:	842a                	mv	s0,a0
  3c:	1efd                	addi	t4,t4,-1 # 3fffffff <__heap_start+0x3fff4fff>
  3e:	0685c663          	blt	a1,s0,aa <qsrt+0x94>
  42:	00241313          	slli	t1,s0,0x2
  46:	006887b3          	add	a5,a7,t1
  4a:	4394                	lw	a3,0(a5)
  4c:	00259e13          	slli	t3,a1,0x2
  50:	00140713          	addi	a4,s0,1
  54:	01c88833          	add	a6,a7,t3
  58:	00271793          	slli	a5,a4,0x2
  5c:	00082803          	lw	a6,0(a6)
  60:	97c6                	add	a5,a5,a7
  62:	04c6de63          	bge	a3,a2,be <qsrt+0xa8>
  66:	4394                	lw	a3,0(a5)
  68:	0791                	addi	a5,a5,4
  6a:	843a                	mv	s0,a4
  6c:	0705                	addi	a4,a4,1
  6e:	fec6cce3          	blt	a3,a2,66 <qsrt+0x50>
  72:	01065c63          	bge	a2,a6,8a <qsrt+0x74>
  76:	01d587b3          	add	a5,a1,t4
  7a:	078a                	slli	a5,a5,0x2
  7c:	97c6                	add	a5,a5,a7
  7e:	0007a803          	lw	a6,0(a5)
  82:	17f1                	addi	a5,a5,-4
  84:	15fd                	addi	a1,a1,-1
  86:	ff064ce3          	blt	a2,a6,7e <qsrt+0x68>
  8a:	fa85cae3          	blt	a1,s0,3e <qsrt+0x28>
  8e:	00241313          	slli	t1,s0,0x2
  92:	00259e13          	slli	t3,a1,0x2
  96:	9346                	add	t1,t1,a7
  98:	01032023          	sw	a6,0(t1)
  9c:	9e46                	add	t3,t3,a7
  9e:	00de2023          	sw	a3,0(t3)
  a2:	0405                	addi	s0,s0,1
  a4:	15fd                	addi	a1,a1,-1
  a6:	f885dee3          	bge	a1,s0,42 <qsrt+0x2c>
  aa:	00b54d63          	blt	a0,a1,c4 <qsrt+0xae>
  ae:	00944e63          	blt	s0,s1,ca <qsrt+0xb4>
  b2:	40b2                	lw	ra,12(sp)
  b4:	4422                	lw	s0,8(sp)
  b6:	4492                	lw	s1,4(sp)
  b8:	4501                	li	a0,0
  ba:	0141                	addi	sp,sp,16
  bc:	8082                	ret
  be:	fb064ce3          	blt	a2,a6,76 <qsrt+0x60>
  c2:	bfd1                	j	96 <qsrt+0x80>
  c4:	3f89                	jal	16 <qsrt>
  c6:	fe9456e3          	bge	s0,s1,b2 <qsrt+0x9c>
  ca:	85a6                	mv	a1,s1
  cc:	8522                	mv	a0,s0
  ce:	37a1                	jal	16 <qsrt>
  d0:	40b2                	lw	ra,12(sp)
  d2:	4422                	lw	s0,8(sp)
  d4:	4492                	lw	s1,4(sp)
  d6:	4501                	li	a0,0
  d8:	0141                	addi	sp,sp,16
  da:	8082                	ret

000000dc <__divsi3>:
  dc:	06054063          	bltz	a0,13c <__umodsi3+0x10>
  e0:	0605c663          	bltz	a1,14c <__umodsi3+0x20>

000000e4 <__hidden___udivsi3>:
  e4:	00058613          	mv	a2,a1
  e8:	00050593          	mv	a1,a0
  ec:	fff00513          	li	a0,-1
  f0:	02060c63          	beqz	a2,128 <__hidden___udivsi3+0x44>
  f4:	00100693          	li	a3,1
  f8:	00b67a63          	bgeu	a2,a1,10c <__hidden___udivsi3+0x28>
  fc:	00c05863          	blez	a2,10c <__hidden___udivsi3+0x28>
 100:	00161613          	slli	a2,a2,0x1
 104:	00169693          	slli	a3,a3,0x1
 108:	feb66ae3          	bltu	a2,a1,fc <__hidden___udivsi3+0x18>
 10c:	00000513          	li	a0,0
 110:	00c5e663          	bltu	a1,a2,11c <__hidden___udivsi3+0x38>
 114:	40c585b3          	sub	a1,a1,a2
 118:	00d56533          	or	a0,a0,a3
 11c:	0016d693          	srli	a3,a3,0x1
 120:	00165613          	srli	a2,a2,0x1
 124:	fe0696e3          	bnez	a3,110 <__hidden___udivsi3+0x2c>
 128:	00008067          	ret

0000012c <__umodsi3>:
 12c:	00008293          	mv	t0,ra
 130:	fb5ff0ef          	jal	e4 <__hidden___udivsi3>
 134:	00058513          	mv	a0,a1
 138:	00028067          	jr	t0
 13c:	40a00533          	neg	a0,a0
 140:	00b04863          	bgtz	a1,150 <__umodsi3+0x24>
 144:	40b005b3          	neg	a1,a1
 148:	f9dff06f          	j	e4 <__hidden___udivsi3>
 14c:	40b005b3          	neg	a1,a1
 150:	00008293          	mv	t0,ra
 154:	f91ff0ef          	jal	e4 <__hidden___udivsi3>
 158:	40a00533          	neg	a0,a0
 15c:	00028067          	jr	t0

00000160 <__modsi3>:
 160:	00008293          	mv	t0,ra
 164:	0005ca63          	bltz	a1,178 <__modsi3+0x18>
 168:	00054c63          	bltz	a0,180 <__modsi3+0x20>
 16c:	f79ff0ef          	jal	e4 <__hidden___udivsi3>
 170:	00058513          	mv	a0,a1
 174:	00028067          	jr	t0
 178:	40b005b3          	neg	a1,a1
 17c:	fe0558e3          	bgez	a0,16c <__modsi3+0xc>
 180:	40a00533          	neg	a0,a0
 184:	f61ff0ef          	jal	e4 <__hidden___udivsi3>
 188:	40b00533          	neg	a0,a1
 18c:	00028067          	jr	t0

Disassembly of section .text.startup:

00000190 <main>:
 190:	715d                	addi	sp,sp,-80
 192:	d85a                	sw	s6,48(sp)
 194:	27c02583          	lw	a1,636(zero) # 27c <n>
 198:	c686                	sw	ra,76(sp)
 19a:	00b05963          	blez	a1,1ac <main+0x1c>
 19e:	28400713          	li	a4,644
 1a2:	87ae                	mv	a5,a1
 1a4:	c31c                	sw	a5,0(a4)
 1a6:	17fd                	addi	a5,a5,-1
 1a8:	0711                	addi	a4,a4,4
 1aa:	ffed                	bnez	a5,1a4 <main+0x14>
 1ac:	4505                	li	a0,1
 1ae:	35a5                	jal	16 <qsrt>
 1b0:	27c02783          	lw	a5,636(zero) # 27c <n>
 1b4:	0af05563          	blez	a5,25e <main+0xce>
 1b8:	dc52                	sw	s4,56(sp)
 1ba:	c0ca                	sw	s2,64(sp)
 1bc:	de4e                	sw	s3,60(sp)
 1be:	da56                	sw	s5,52(sp)
 1c0:	d65e                	sw	s7,44(sp)
 1c2:	ce6e                	sw	s11,28(sp)
 1c4:	c4a2                	sw	s0,72(sp)
 1c6:	c2a6                	sw	s1,68(sp)
 1c8:	d462                	sw	s8,40(sp)
 1ca:	d266                	sw	s9,36(sp)
 1cc:	d06a                	sw	s10,32(sp)
 1ce:	28400a13          	li	s4,644
 1d2:	4a85                	li	s5,1
 1d4:	00410d93          	addi	s11,sp,4
 1d8:	49a5                	li	s3,9
 1da:	00030937          	lui	s2,0x30
 1de:	02000b93          	li	s7,32
 1e2:	000a2403          	lw	s0,0(s4)
 1e6:	4c81                	li	s9,0
 1e8:	08044563          	bltz	s0,272 <main+0xe2>
 1ec:	4d01                	li	s10,0
 1ee:	45a9                	li	a1,10
 1f0:	8522                	mv	a0,s0
 1f2:	37bd                	jal	160 <__modsi3>
 1f4:	84ea                	mv	s1,s10
 1f6:	0d05                	addi	s10,s10,1
 1f8:	01ad8c33          	add	s8,s11,s10
 1fc:	03050513          	addi	a0,a0,48
 200:	feac0fa3          	sb	a0,-1(s8)
 204:	45a9                	li	a1,10
 206:	8522                	mv	a0,s0
 208:	8c22                	mv	s8,s0
 20a:	3dc9                	jal	dc <__divsi3>
 20c:	842a                	mv	s0,a0
 20e:	ff89c0e3          	blt	s3,s8,1ee <main+0x5e>
 212:	000c8963          	beqz	s9,224 <main+0x94>
 216:	002d07b3          	add	a5,s10,sp
 21a:	02d00713          	li	a4,45
 21e:	00e78223          	sb	a4,4(a5)
 222:	84ea                	mv	s1,s10
 224:	009d87b3          	add	a5,s11,s1
 228:	0007c683          	lbu	a3,0(a5)
 22c:	873e                	mv	a4,a5
 22e:	17fd                	addi	a5,a5,-1
 230:	00d90023          	sb	a3,0(s2) # 30000 <__heap_start+0x25000>
 234:	feed9ae3          	bne	s11,a4,228 <main+0x98>
 238:	01790023          	sb	s7,0(s2)
 23c:	27c02783          	lw	a5,636(zero) # 27c <n>
 240:	0a85                	addi	s5,s5,1
 242:	0a11                	addi	s4,s4,4
 244:	f957dfe3          	bge	a5,s5,1e2 <main+0x52>
 248:	4426                	lw	s0,72(sp)
 24a:	4496                	lw	s1,68(sp)
 24c:	4906                	lw	s2,64(sp)
 24e:	59f2                	lw	s3,60(sp)
 250:	5a62                	lw	s4,56(sp)
 252:	5ad2                	lw	s5,52(sp)
 254:	5bb2                	lw	s7,44(sp)
 256:	5c22                	lw	s8,40(sp)
 258:	5c92                	lw	s9,36(sp)
 25a:	5d02                	lw	s10,32(sp)
 25c:	4df2                	lw	s11,28(sp)
 25e:	000307b7          	lui	a5,0x30
 262:	4729                	li	a4,10
 264:	00e78023          	sb	a4,0(a5) # 30000 <__heap_start+0x25000>
 268:	40b6                	lw	ra,76(sp)
 26a:	5b42                	lw	s6,48(sp)
 26c:	4501                	li	a0,0
 26e:	6161                	addi	sp,sp,80
 270:	8082                	ret
 272:	40800433          	neg	s0,s0
 276:	4c85                	li	s9,1
 278:	bf95                	j	1ec <main+0x5c>

Disassembly of section .sdata:

0000027c <n>:
 27c:	2710                	.insn	2, 0x2710
	...

Disassembly of section .riscv.attributes:

00000000 <.riscv.attributes>:
   0:	2041                	jal	80 <qsrt+0x6a>
   2:	0000                	unimp
   4:	7200                	.insn	2, 0x7200
   6:	7369                	lui	t1,0xffffa
   8:	01007663          	bgeu	zero,a6,14 <_start+0x14>
   c:	0016                	c.slli	zero,0x5
   e:	0000                	unimp
  10:	1004                	addi	s1,sp,32
  12:	7205                	lui	tp,0xfffe1
  14:	3376                	.insn	2, 0x3376
  16:	6932                	.insn	2, 0x6932
  18:	7032                	.insn	2, 0x7032
  1a:	5f31                	li	t5,-20
  1c:	30703263          	.insn	4, 0x30703263
	...

Disassembly of section .comment:

00000000 <.comment>:
   0:	3a434347          	.insn	4, 0x3a434347
   4:	2820                	.insn	2, 0x2820
   6:	7241                	lui	tp,0xffff0
   8:	4c206863          	bltu	zero,sp,4d8 <a+0x258>
   c:	6e69                	lui	t3,0x1a
   e:	7875                	lui	a6,0xffffd
  10:	5220                	lw	s0,96(a2)
  12:	7065                	c.lui	zero,0xffff9
  14:	7469736f          	jal	t1,9775a <__heap_start+0x8c75a>
  18:	6569726f          	jal	tp,9766e <__heap_start+0x8c66e>
  1c:	31202973          	.insn	4, 0x31202973
  20:	2e34                	.insn	2, 0x2e34
  22:	2e31                	jal	33e <a+0xbe>
  24:	0030                	addi	a2,sp,8

Disassembly of section .debug_info:

00000000 <.debug_info>:
   0:	000002d3          	.insn	4, 0x02d3
   4:	0005                	c.nop	1
   6:	0401                	addi	s0,s0,0
   8:	0000                	unimp
   a:	0000                	unimp
   c:	5212                	lw	tp,36(sp)
   e:	0000                	unimp
  10:	1d00                	addi	s0,sp,688
  12:	000e                	c.slli	zero,0x3
  14:	0000                	unimp
  16:	0000                	unimp
  18:	0000                	unimp
  1a:	00000057          	.insn	4, 0x0057
	...
  26:	0802                	c.slli64	a6
  28:	00001507          	.insn	4, 0x1507
  2c:	0200                	addi	s0,sp,256
  2e:	0704                	addi	s1,sp,896
  30:	001f 0000 450b      	.insn	6, 0x450b0000001f
  36:	0000                	unimp
  38:	4500                	lw	s0,8(a0)
  3a:	0000                	unimp
  3c:	1300                	addi	s0,sp,416
  3e:	002d                	c.nop	11
  40:	0000                	unimp
  42:	14002773          	.insn	4, 0x14002773
  46:	0504                	addi	s1,sp,640
  48:	6e69                	lui	t3,0x1a
  4a:	0074                	addi	a3,sp,12
  4c:	4505                	li	a0,1
  4e:	0000                	unimp
  50:	0c00                	addi	s0,sp,528
  52:	0061                	c.nop	24
  54:	3409                	jal	fffffa56 <__heap_start+0xffff4a56>
  56:	0000                	unimp
  58:	0500                	addi	s0,sp,640
  5a:	00028003          	lb	zero,0(t0)
  5e:	0c00                	addi	s0,sp,528
  60:	006e                	c.slli	zero,0x1b
  62:	450a                	lw	a0,128(sp)
  64:	0000                	unimp
  66:	0500                	addi	s0,sp,640
  68:	00027c03          	.insn	4, 0x00027c03
  6c:	1500                	addi	s0,sp,672
  6e:	0005                	c.nop	1
  70:	0000                	unimp
  72:	2001                	jal	72 <qsrt+0x5c>
  74:	4505                	li	a0,1
  76:	0000                	unimp
  78:	9000                	.insn	2, 0x9000
  7a:	0001                	nop
  7c:	ea00                	.insn	2, 0xea00
  7e:	0000                	unimp
  80:	0100                	addi	s0,sp,128
  82:	8b9c                	.insn	2, 0x8b9c
  84:	0001                	nop
  86:	0300                	addi	s0,sp,384
  88:	0069                	c.nop	26
  8a:	4521                	li	a0,8
  8c:	0000                	unimp
  8e:	0c00                	addi	s0,sp,528
  90:	0000                	unimp
  92:	0600                	addi	s0,sp,768
  94:	0248                	addi	a0,sp,260
  96:	0000                	unimp
  98:	01d8                	addi	a4,sp,196
  9a:	0000                	unimp
  9c:	000c                	.insn	2, 0x000c
  9e:	0000                	unimp
  a0:	2601                	jal	3a0 <a+0x120>
  a2:	00010b03          	lb	s6,0(sp)
  a6:	0100                	addi	s0,sp,128
  a8:	0252                	slli	tp,tp,0x14
  aa:	0000                	unimp
  ac:	0085                	addi	ra,ra,1
  ae:	0000                	unimp
  b0:	0c16                	slli	s8,s8,0x5
  b2:	0000                	unimp
  b4:	1700                	addi	s0,sp,928
  b6:	025d                	addi	tp,tp,23 # ffff0017 <__heap_start+0xfffe5017>
  b8:	0000                	unimp
  ba:	7fb49103          	lh	sp,2043(s1)
  be:	00026807          	.insn	4, 0x00026807
  c2:	b400                	.insn	2, 0xb400
  c4:	0000                	unimp
  c6:	0700                	addi	s0,sp,896
  c8:	00000273          	.insn	4, 0x0273
  cc:	000000cb          	.insn	4, 0x00cb
  d0:	00027c07          	.insn	4, 0x00027c07
  d4:	2d00                	.insn	2, 0x2d00
  d6:	0001                	nop
  d8:	0600                	addi	s0,sp,768
  da:	02a2                	slli	t0,t0,0x8
  dc:	0000                	unimp
  de:	01da                	slli	gp,gp,0x16
  e0:	0000                	unimp
  e2:	0028                	addi	a0,sp,8
  e4:	0000                	unimp
  e6:	4102                	lw	sp,0(sp)
  e8:	f709                	bnez	a4,fffffff2 <__heap_start+0xffff4ff2>
  ea:	0000                	unimp
  ec:	0100                	addi	s0,sp,128
  ee:	02ac                	addi	a1,sp,328
  f0:	0000                	unimp
  f2:	0151                	addi	sp,sp,20
  f4:	0000                	unimp
  f6:	0800                	addi	s0,sp,16
  f8:	01f4                	addi	a3,sp,204
  fa:	0000                	unimp
  fc:	02b8                	addi	a4,sp,328
  fe:	0000                	unimp
 100:	0c08                	addi	a0,sp,528
 102:	0002                	c.slli64	zero
 104:	c100                	sw	s0,0(a0)
 106:	0002                	c.slli64	zero
 108:	0000                	unimp
 10a:	0600                	addi	s0,sp,768
 10c:	021f 0000 01de      	.insn	6, 0x01de0000021f
 112:	0000                	unimp
 114:	0044                	addi	s1,sp,4
 116:	0000                	unimp
 118:	2701                	jal	818 <a+0x598>
 11a:	00014303          	lbu	t1,0(sp)
 11e:	0100                	addi	s0,sp,128
 120:	0229                	addi	tp,tp,10 # a <_start+0xa>
 122:	0000                	unimp
 124:	016a                	slli	sp,sp,0x1a
 126:	0000                	unimp
 128:	a218                	.insn	2, 0xa218
 12a:	0002                	c.slli64	zero
 12c:	de00                	sw	s0,56(a2)
 12e:	0001                	nop
 130:	4400                	lw	s0,8(s0)
 132:	0000                	unimp
 134:	0200                	addi	s0,sp,256
 136:	0348                	addi	a0,sp,388
 138:	ac01                	j	348 <a+0xc8>
 13a:	0002                	c.slli64	zero
 13c:	7b00                	.insn	2, 0x7b00
 13e:	0001                	nop
 140:	0000                	unimp
 142:	1900                	addi	s0,sp,176
 144:	021f 0000 025e      	.insn	6, 0x025e0000021f
 14a:	0000                	unimp
 14c:	000a                	c.slli	zero,0x2
 14e:	0000                	unimp
 150:	2a01                	jal	260 <main+0xd0>
 152:	7b05                	lui	s6,0xfffe1
 154:	0001                	nop
 156:	0100                	addi	s0,sp,128
 158:	0229                	addi	tp,tp,10 # a <_start+0xa>
 15a:	0000                	unimp
 15c:	0189                	addi	gp,gp,2
 15e:	0000                	unimp
 160:	a21a                	.insn	2, 0xa21a
 162:	0002                	c.slli64	zero
 164:	5e00                	lw	s0,56(a2)
 166:	0002                	c.slli64	zero
 168:	0a00                	addi	s0,sp,272
 16a:	0000                	unimp
 16c:	0200                	addi	s0,sp,256
 16e:	0348                	addi	a0,sp,388
 170:	ac01                	j	380 <a+0x100>
 172:	0002                	c.slli64	zero
 174:	9a00                	.insn	2, 0x9a00
 176:	0001                	nop
 178:	0000                	unimp
 17a:	0d00                	addi	s0,sp,656
 17c:	01b0                	addi	a2,sp,200
 17e:	0000                	unimp
 180:	0000018b          	.insn	4, 0x018b
 184:	0109                	addi	sp,sp,2
 186:	015a                	slli	sp,sp,0x16
 188:	0031                	c.nop	12
 18a:	1b00                	addi	s0,sp,432
 18c:	0031                	c.nop	12
 18e:	0000                	unimp
 190:	0c01                	addi	s8,s8,0
 192:	4505                	li	a0,1
 194:	0000                	unimp
 196:	1600                	addi	s0,sp,800
 198:	0000                	unimp
 19a:	c600                	sw	s0,8(a2)
 19c:	0000                	unimp
 19e:	0100                	addi	s0,sp,128
 1a0:	1f9c                	addi	a5,sp,1008
 1a2:	0002                	c.slli64	zero
 1a4:	0e00                	addi	s0,sp,784
 1a6:	006c                	addi	a1,sp,12
 1a8:	450e                	lw	a0,192(sp)
 1aa:	0000                	unimp
 1ac:	a700                	.insn	2, 0xa700
 1ae:	0001                	nop
 1b0:	0e00                	addi	s0,sp,784
 1b2:	0072                	c.slli	zero,0x1c
 1b4:	4515                	li	a0,5
 1b6:	0000                	unimp
 1b8:	e600                	.insn	2, 0xe600
 1ba:	0001                	nop
 1bc:	0300                	addi	s0,sp,384
 1be:	0069                	c.nop	26
 1c0:	450d                	li	a0,3
 1c2:	0000                	unimp
 1c4:	3000                	.insn	2, 0x3000
 1c6:	0002                	c.slli64	zero
 1c8:	0300                	addi	s0,sp,384
 1ca:	006a                	c.slli	zero,0x1a
 1cc:	450e                	lw	a0,192(sp)
 1ce:	0000                	unimp
 1d0:	8000                	.insn	2, 0x8000
 1d2:	0002                	c.slli64	zero
 1d4:	0300                	addi	s0,sp,384
 1d6:	0078                	addi	a4,sp,12
 1d8:	0000450f          	.insn	4, 0x450f
 1dc:	9700                	.insn	2, 0x9700
 1de:	0002                	c.slli64	zero
 1e0:	1c00                	addi	s0,sp,560
 1e2:	0096                	slli	ra,ra,0x5
 1e4:	0000                	unimp
 1e6:	0010                	.insn	2, 0x0010
 1e8:	0000                	unimp
 1ea:	01ff 0000 001d 0000 	.insn	10, 0x01000000001d000001ff
 1f2:	0100 
 1f4:	1114                	addi	a3,sp,160
 1f6:	0045                	c.nop	17
 1f8:	0000                	unimp
 1fa:	02ae                	slli	t0,t0,0xb
 1fc:	0000                	unimp
 1fe:	0800                	addi	s0,sp,16
 200:	00c6                	slli	ra,ra,0x11
 202:	0000                	unimp
 204:	0000018b          	.insn	4, 0x018b
 208:	d00d                	beqz	s0,12a <__hidden___udivsi3+0x46>
 20a:	0000                	unimp
 20c:	8b00                	.insn	2, 0x8b00
 20e:	0001                	nop
 210:	0900                	addi	s0,sp,144
 212:	5a01                	li	s4,-32
 214:	7802                	.insn	2, 0x7802
 216:	0900                	addi	s0,sp,144
 218:	5b01                	li	s6,-32
 21a:	7902                	.insn	2, 0x7902
 21c:	0000                	unimp
 21e:	0a00                	addi	s0,sp,272
 220:	000a                	c.slli	zero,0x2
 222:	0000                	unimp
 224:	3645                	jal	fffffdc4 <__heap_start+0xffff4dc4>
 226:	0002                	c.slli64	zero
 228:	1e00                	addi	s0,sp,816
 22a:	00727473          	.insn	4, 0x00727473
 22e:	4502                	lw	a0,0(sp)
 230:	3626                	.insn	2, 0x3626
 232:	0002                	c.slli64	zero
 234:	0000                	unimp
 236:	041f 0243 0000      	.insn	6, 0x0243041f
 23c:	0102                	c.slli64	sp
 23e:	4408                	lw	a0,8(s0)
 240:	0000                	unimp
 242:	0500                	addi	s0,sp,640
 244:	023c                	addi	a5,sp,264
 246:	0000                	unimp
 248:	360a                	.insn	2, 0x360a
 24a:	0000                	unimp
 24c:	3200                	.insn	2, 0x3200
 24e:	0286                	slli	t0,t0,0x1
 250:	0000                	unimp
 252:	00002c0f          	.insn	4, 0x2c0f
 256:	3200                	.insn	2, 0x3200
 258:	00004c23          	.insn	4, 0x4c23
 25c:	0400                	addi	s0,sp,512
 25e:	00727473          	.insn	4, 0x00727473
 262:	1334                	addi	a3,sp,424
 264:	0286                	slli	t0,t0,0x1
 266:	0000                	unimp
 268:	7404                	.insn	2, 0x7404
 26a:	706d                	c.lui	zero,0xffffb
 26c:	3500                	.insn	2, 0x3500
 26e:	4509                	li	a0,2
 270:	0000                	unimp
 272:	0400                	addi	s0,sp,512
 274:	0069                	c.nop	26
 276:	0936                	slli	s2,s2,0xd
 278:	0045                	c.nop	17
 27a:	0000                	unimp
 27c:	7304                	.insn	2, 0x7304
 27e:	3600                	.insn	2, 0x3600
 280:	450e                	lw	a0,192(sp)
 282:	0000                	unimp
 284:	0000                	unimp
 286:	0002960b          	.insn	4, 0x0002960b
 28a:	9600                	.insn	2, 0x9600
 28c:	0002                	c.slli64	zero
 28e:	2000                	.insn	2, 0x2000
 290:	002d                	c.nop	11
 292:	0000                	unimp
 294:	0102000b          	.insn	4, 0x0102000b
 298:	3b08                	.insn	2, 0x3b08
 29a:	0000                	unimp
 29c:	0500                	addi	s0,sp,640
 29e:	0296                	slli	t0,t0,0x5
 2a0:	0000                	unimp
 2a2:	100a                	c.slli	zero,0x22
 2a4:	0000                	unimp
 2a6:	1200                	addi	s0,sp,288
 2a8:	02b8                	addi	a4,sp,328
 2aa:	0000                	unimp
 2ac:	00002c0f          	.insn	4, 0x2c0f
 2b0:	1200                	addi	s0,sp,288
 2b2:	9d2d                	.insn	2, 0x9d2d
 2b4:	0002                	c.slli64	zero
 2b6:	0000                	unimp
 2b8:	9f10                	.insn	2, 0x9f10
 2ba:	0000                	unimp
 2bc:	9f00                	.insn	2, 0x9f00
 2be:	0000                	unimp
 2c0:	1000                	addi	s0,sp,32
 2c2:	0049                	c.nop	18
 2c4:	0000                	unimp
 2c6:	0049                	c.nop	18
 2c8:	0000                	unimp
 2ca:	0411                	addi	s0,s0,4
 2cc:	029e                	slli	t0,t0,0x7
 2ce:	0020                	addi	s0,sp,8
 2d0:	0411                	addi	s0,s0,4
 2d2:	029e                	slli	t0,t0,0x7
 2d4:	000a                	c.slli	zero,0x2
 2d6:	5500                	lw	s0,40(a0)
 2d8:	0000                	unimp
 2da:	0500                	addi	s0,sp,640
 2dc:	0100                	addi	s0,sp,128
 2de:	c204                	sw	s1,0(a2)
 2e0:	0001                	nop
 2e2:	0100                	addi	s0,sp,128
 2e4:	04f1                	addi	s1,s1,28
 2e6:	0000                	unimp
 2e8:	00dc                	addi	a5,sp,68
 2ea:	0000                	unimp
 2ec:	01b4                	addi	a3,sp,200
 2ee:	00a8                	addi	a0,sp,72
 2f0:	0000                	unimp
 2f2:	00e8                	addi	a0,sp,76
 2f4:	0000                	unimp
 2f6:	012c                	addi	a1,sp,136
 2f8:	0000                	unimp
 2fa:	8001                	c.srli64	s0
 2fc:	4902                	lw	s2,0(sp)
 2fe:	0000                	unimp
 300:	dc00                	sw	s0,56(s0)
 302:	0000                	unimp
 304:	8400                	.insn	2, 0x8400
 306:	0201                	addi	tp,tp,0 # 0 <_start>
 308:	0141                	addi	sp,sp,16
 30a:	0000                	unimp
 30c:	00e4                	addi	s1,sp,76
 30e:	0000                	unimp
 310:	0248                	addi	a0,sp,260
 312:	0138                	addi	a4,sp,136
 314:	0000                	unimp
 316:	00e4                	addi	s1,sp,76
 318:	0000                	unimp
 31a:	0248                	addi	a0,sp,260
 31c:	0000014b          	.insn	4, 0x014b
 320:	012c                	addi	a1,sp,136
 322:	0000                	unimp
 324:	0210                	addi	a2,sp,256
 326:	009f 0000 0160      	.insn	6, 0x01600000009f
 32c:	0000                	unimp
 32e:	0030                	addi	a2,sp,8

Disassembly of section .debug_abbrev:

00000000 <.debug_abbrev>:
   0:	0501                	addi	a0,a0,0
   2:	3100                	.insn	2, 0x3100
   4:	00170213          	addi	tp,a4,1
   8:	0200                	addi	s0,sp,256
   a:	0024                	addi	s1,sp,8
   c:	0b3e0b0b          	.insn	4, 0x0b3e0b0b
  10:	00000e03          	lb	t3,0(zero) # 0 <_start>
  14:	03003403          	.insn	4, 0x03003403
  18:	3a08                	.insn	2, 0x3a08
  1a:	0121                	addi	sp,sp,8
  1c:	21390b3b          	.insn	4, 0x21390b3b
  20:	4909                	li	s2,2
  22:	00170213          	addi	tp,a4,1
  26:	0400                	addi	s0,sp,512
  28:	0034                	addi	a3,sp,8
  2a:	213a0803          	lb	a6,531(s4)
  2e:	3b02                	.insn	2, 0x3b02
  30:	490b390b          	.insn	4, 0x490b390b
  34:	05000013          	li	zero,80
  38:	0026                	c.slli	zero,0x9
  3a:	1349                	addi	t1,t1,-14 # ffff9ff2 <__heap_start+0xfffeeff2>
  3c:	0000                	unimp
  3e:	1d06                	slli	s10,s10,0x21
  40:	3101                	jal	fffffc40 <__heap_start+0xffff4c40>
  42:	55015213          	.insn	4, 0x55015213
  46:	590b5817          	auipc	a6,0x590b5
  4a:	010b570b          	.insn	4, 0x010b570b
  4e:	07000013          	li	zero,112
  52:	0034                	addi	a3,sp,8
  54:	1331                	addi	t1,t1,-20
  56:	1702                	slli	a4,a4,0x20
  58:	0000                	unimp
  5a:	4808                	lw	a0,16(s0)
  5c:	7d00                	.insn	2, 0x7d00
  5e:	7f01                	lui	t5,0xfffe0
  60:	09000013          	li	zero,144
  64:	0049                	c.nop	18
  66:	1802                	slli	a6,a6,0x20
  68:	187e                	slli	a6,a6,0x3f
  6a:	0000                	unimp
  6c:	2e0a                	.insn	2, 0x2e0a
  6e:	0301                	addi	t1,t1,0
  70:	3a0e                	.insn	2, 0x3a0e
  72:	0221                	addi	tp,tp,8 # 8 <_start+0x8>
  74:	21390b3b          	.insn	4, 0x21390b3b
  78:	2714                	.insn	2, 0x2714
  7a:	2019                	jal	80 <qsrt+0x6a>
  7c:	0321                	addi	t1,t1,8
  7e:	1301                	addi	t1,t1,-32
  80:	0000                	unimp
  82:	4901010b          	.insn	4, 0x4901010b
  86:	00130113          	addi	sp,t1,1
  8a:	0c00                	addi	s0,sp,528
  8c:	0034                	addi	a3,sp,8
  8e:	213a0803          	lb	a6,531(s4)
  92:	3b01                	jal	fffffda2 <__heap_start+0xffff4da2>
  94:	0521390b          	.insn	4, 0x0521390b
  98:	1349                	addi	t1,t1,-14
  9a:	1802193f 480d0000 	.insn	8, 0x480d00001802193f
  a2:	7d01                	lui	s10,0xfffe0
  a4:	7f01                	lui	t5,0xfffe0
  a6:	0e000013          	li	zero,224
  aa:	0005                	c.nop	1
  ac:	213a0803          	lb	a6,531(s4)
  b0:	3b01                	jal	fffffdc0 <__heap_start+0xffff4dc0>
  b2:	0c21                	addi	s8,s8,8
  b4:	0b39                	addi	s6,s6,14 # fffe100e <__heap_start+0xfffd600e>
  b6:	1349                	addi	t1,t1,-14
  b8:	1702                	slli	a4,a4,0x20
  ba:	0000                	unimp
  bc:	0300050f          	.insn	4, 0x0300050f
  c0:	3a0e                	.insn	2, 0x3a0e
  c2:	0221                	addi	tp,tp,8 # 8 <_start+0x8>
  c4:	0b390b3b          	.insn	4, 0x0b390b3b
  c8:	1349                	addi	t1,t1,-14
  ca:	0000                	unimp
  cc:	2e10                	.insn	2, 0x2e10
  ce:	3f00                	.insn	2, 0x3f00
  d0:	3c19                	jal	fffffae6 <__heap_start+0xffff4ae6>
  d2:	6e19                	lui	t3,0x6
  d4:	030e                	slli	t1,t1,0x3
  d6:	000e                	c.slli	zero,0x3
  d8:	1100                	addi	s0,sp,160
  da:	0036                	c.slli	zero,0xd
  dc:	1802                	slli	a6,a6,0x20
  de:	0000                	unimp
  e0:	1112                	slli	sp,sp,0x24
  e2:	2501                	jal	6e2 <a+0x462>
  e4:	130e                	slli	t1,t1,0x23
  e6:	1b1f030b          	.insn	4, 0x1b1f030b
  ea:	551f 1117 1001      	.insn	6, 0x10011117551f
  f0:	13000017          	auipc	zero,0x13000
  f4:	0021                	c.nop	8
  f6:	1349                	addi	t1,t1,-14
  f8:	0000052f          	.insn	4, 0x052f
  fc:	2414                	.insn	2, 0x2414
  fe:	0b00                	addi	s0,sp,400
 100:	030b3e0b          	.insn	4, 0x030b3e0b
 104:	0008                	.insn	2, 0x0008
 106:	1500                	addi	s0,sp,672
 108:	012e                	slli	sp,sp,0xb
 10a:	0e03193f 0b3b0b3a 	.insn	8, 0x0b3b0b3a0e03193f
 112:	0b39                	addi	s6,s6,14
 114:	1349                	addi	t1,t1,-14
 116:	0111                	addi	sp,sp,4
 118:	0612                	slli	a2,a2,0x4
 11a:	1840                	addi	s0,sp,52
 11c:	197a                	slli	s2,s2,0x3e
 11e:	1301                	addi	t1,t1,-32
 120:	0000                	unimp
 122:	0b16                	slli	s6,s6,0x5
 124:	5501                	li	a0,-32
 126:	17000017          	auipc	zero,0x17000
 12a:	0034                	addi	a3,sp,8
 12c:	1331                	addi	t1,t1,-20
 12e:	1802                	slli	a6,a6,0x20
 130:	0000                	unimp
 132:	1d18                	addi	a4,sp,688
 134:	3101                	jal	fffffd34 <__heap_start+0xffff4d34>
 136:	55015213          	.insn	4, 0x55015213
 13a:	590b5817          	auipc	a6,0x590b5
 13e:	000b570b          	.insn	4, 0x000b570b
 142:	1900                	addi	s0,sp,176
 144:	011d                	addi	sp,sp,7
 146:	1331                	addi	t1,t1,-20
 148:	0111                	addi	sp,sp,4
 14a:	0612                	slli	a2,a2,0x4
 14c:	0b58                	addi	a4,sp,404
 14e:	0b59                	addi	s6,s6,22
 150:	13010b57          	.insn	4, 0x13010b57
 154:	0000                	unimp
 156:	1d1a                	slli	s10,s10,0x26
 158:	3101                	jal	fffffd58 <__heap_start+0xffff4d58>
 15a:	12011113          	.insn	4, 0x12011113
 15e:	5806                	lw	a6,96(sp)
 160:	570b590b          	.insn	4, 0x570b590b
 164:	1b00000b          	.insn	4, 0x1b00000b
 168:	012e                	slli	sp,sp,0xb
 16a:	0e03193f 0b3b0b3a 	.insn	8, 0x0b3b0b3a0e03193f
 172:	0b39                	addi	s6,s6,14
 174:	13491927          	.insn	4, 0x13491927
 178:	0111                	addi	sp,sp,4
 17a:	0612                	slli	a2,a2,0x4
 17c:	1840                	addi	s0,sp,52
 17e:	197a                	slli	s2,s2,0x3e
 180:	1301                	addi	t1,t1,-32
 182:	0000                	unimp
 184:	0b1c                	addi	a5,sp,400
 186:	1101                	addi	sp,sp,-32
 188:	1201                	addi	tp,tp,-32 # ffffffe0 <__heap_start+0xffff4fe0>
 18a:	0106                	slli	sp,sp,0x1
 18c:	1d000013          	li	zero,464
 190:	0034                	addi	a3,sp,8
 192:	0b3a0e03          	lb	t3,179(s4)
 196:	0b390b3b          	.insn	4, 0x0b390b3b
 19a:	1349                	addi	t1,t1,-14
 19c:	1702                	slli	a4,a4,0x20
 19e:	0000                	unimp
 1a0:	051e                	slli	a0,a0,0x7
 1a2:	0300                	addi	s0,sp,384
 1a4:	3a08                	.insn	2, 0x3a08
 1a6:	390b3b0b          	.insn	4, 0x390b3b0b
 1aa:	0013490b          	.insn	4, 0x0013490b
 1ae:	1f00                	addi	s0,sp,944
 1b0:	0b0b000f          	.insn	4, 0x0b0b000f
 1b4:	1349                	addi	t1,t1,-14
 1b6:	0000                	unimp
 1b8:	2120                	.insn	2, 0x2120
 1ba:	4900                	lw	s0,16(a0)
 1bc:	000b2f13          	slti	t5,s6,0
 1c0:	0000                	unimp
 1c2:	1101                	addi	sp,sp,-32
 1c4:	1001                	c.nop	-32
 1c6:	12011117          	auipc	sp,0x12011
 1ca:	1b0e030f          	.insn	4, 0x1b0e030f
 1ce:	250e                	.insn	2, 0x250e
 1d0:	130e                	slli	t1,t1,0x23
 1d2:	0005                	c.nop	1
 1d4:	0200                	addi	s0,sp,256
 1d6:	002e                	c.slli	zero,0xb
 1d8:	193f0e03          	lb	t3,403(t5) # fffe0193 <__heap_start+0xfffd5193>
 1dc:	0111                	addi	sp,sp,4 # 120111ca <__heap_start+0x120061ca>
 1de:	0f12                	slli	t5,t5,0x4
 1e0:	0000                	unimp
	...

Disassembly of section .debug_loclists:

00000000 <.debug_loclists>:
   0:	02b6                	slli	t0,t0,0xd
   2:	0000                	unimp
   4:	0005                	c.nop	1
   6:	0004                	.insn	2, 0x0004
   8:	0000                	unimp
   a:	0000                	unimp
   c:	00019007          	.insn	4, 0x00019007
  10:	a400                	.insn	2, 0xa400
  12:	0001                	nop
  14:	0200                	addi	s0,sp,256
  16:	9f31                	.insn	2, 0x9f31
  18:	0001a407          	.insn	4, 0x0001a407
  1c:	a600                	.insn	2, 0xa600
  1e:	0001                	nop
  20:	0800                	addi	s0,sp,16
  22:	007f007b          	.insn	4, 0x007f007b
  26:	231c                	.insn	2, 0x231c
  28:	9f01                	.insn	2, 0x9f01
  2a:	0001a607          	.insn	4, 0x0001a607
  2e:	a800                	.insn	2, 0xa800
  30:	0001                	nop
  32:	0800                	addi	s0,sp,16
  34:	007f007b          	.insn	4, 0x007f007b
  38:	231c                	.insn	2, 0x231c
  3a:	9f02                	jalr	t5
  3c:	0001a807          	.insn	4, 0x0001a807
  40:	aa00                	.insn	2, 0xaa00
  42:	0001                	nop
  44:	0900                	addi	s0,sp,144
  46:	007e007b          	.insn	4, 0x007e007b
  4a:	1c06                	slli	s8,s8,0x21
  4c:	079f0223          	sb	s9,100(t5)
  50:	01aa                	slli	gp,gp,0xa
  52:	0000                	unimp
  54:	01ac                	addi	a1,sp,200
  56:	0000                	unimp
  58:	7b09                	lui	s6,0xfffe2
  5a:	7e00                	.insn	2, 0x7e00
  5c:	067c                	addi	a5,sp,780
  5e:	231c                	.insn	2, 0x231c
  60:	9f02                	jalr	t5
  62:	0001b007          	.insn	4, 0x0001b007
  66:	e200                	.insn	2, 0xe200
  68:	0001                	nop
  6a:	0200                	addi	s0,sp,256
  6c:	9f31                	.insn	2, 0x9f31
  6e:	0001e207          	.insn	4, 0x0001e207
  72:	5400                	lw	s0,40(s0)
  74:	0002                	c.slli64	zero
  76:	0100                	addi	s0,sp,128
  78:	0765                	addi	a4,a4,25
  7a:	0272                	slli	tp,tp,0x1c
  7c:	0000                	unimp
  7e:	027a                	slli	tp,tp,0x1e
  80:	0000                	unimp
  82:	6501                	.insn	2, 0x6501
  84:	0700                	addi	s0,sp,896
  86:	01e6                	slli	gp,gp,0x19
  88:	0000                	unimp
  8a:	01ec                	addi	a1,sp,204
  8c:	0000                	unimp
  8e:	5801                	li	a6,-32
  90:	0001ec07          	.insn	4, 0x0001ec07
  94:	ee00                	.insn	2, 0xee00
  96:	0001                	nop
  98:	0200                	addi	s0,sp,256
  9a:	0084                	addi	s1,sp,64
  9c:	00027207          	.insn	4, 0x00027207
  a0:	7600                	.insn	2, 0x7600
  a2:	0002                	c.slli64	zero
  a4:	0100                	addi	s0,sp,128
  a6:	0758                	addi	a4,sp,900
  a8:	0276                	slli	tp,tp,0x1d
  aa:	0000                	unimp
  ac:	027a                	slli	tp,tp,0x1e
  ae:	0000                	unimp
  b0:	8402                	jr	s0
  b2:	0000                	unimp
  b4:	0001e607          	.insn	4, 0x0001e607
  b8:	3800                	.insn	2, 0x3800
  ba:	0002                	c.slli64	zero
  bc:	0100                	addi	s0,sp,128
  be:	0758                	addi	a4,sp,900
  c0:	0272                	slli	tp,tp,0x1c
  c2:	0000                	unimp
  c4:	027a                	slli	tp,tp,0x1e
  c6:	0000                	unimp
  c8:	5801                	li	a6,-32
  ca:	0700                	addi	s0,sp,896
  cc:	01e6                	slli	gp,gp,0x19
  ce:	0000                	unimp
  d0:	01ee                	slli	gp,gp,0x1b
  d2:	0000                	unimp
  d4:	3002                	.insn	2, 0x3002
  d6:	079f 01ee 0000      	.insn	6, 0x01ee079f
  dc:	0216                	slli	tp,tp,0x5
  de:	0000                	unimp
  e0:	6a01                	.insn	2, 0x6a01
  e2:	00021607          	.insn	4, 0x00021607
  e6:	2200                	.insn	2, 0x2200
  e8:	0002                	c.slli64	zero
  ea:	0300                	addi	s0,sp,384
  ec:	0279                	addi	tp,tp,30 # 1e <qsrt+0x8>
  ee:	079f 0222 0000      	.insn	6, 0x0222079f
  f4:	0224                	addi	s1,sp,264
  f6:	0000                	unimp
  f8:	9f028a03          	lb	s4,-1552(t0)
  fc:	00022807          	.insn	4, 0x00022807
 100:	3000                	.insn	2, 0x3000
 102:	0002                	c.slli64	zero
 104:	0800                	addi	s0,sp,16
 106:	007f 0091 231c 9f4c 	.insn	10, 0x30079f4c231c0091007f
 10e:	3007 
 110:	0002                	c.slli64	zero
 112:	3400                	.insn	2, 0x3400
 114:	0002                	c.slli64	zero
 116:	0800                	addi	s0,sp,16
 118:	007e                	c.slli	zero,0x1f
 11a:	0091                	addi	ra,ra,4
 11c:	231c                	.insn	2, 0x231c
 11e:	9f4c                	.insn	2, 0x9f4c
 120:	00027207          	.insn	4, 0x00027207
 124:	7a00                	.insn	2, 0x7a00
 126:	0002                	c.slli64	zero
 128:	0200                	addi	s0,sp,256
 12a:	9f30                	.insn	2, 0x9f30
 12c:	0700                	addi	s0,sp,896
 12e:	01e6                	slli	gp,gp,0x19
 130:	0000                	unimp
 132:	01ec                	addi	a1,sp,204
 134:	0000                	unimp
 136:	3002                	.insn	2, 0x3002
 138:	079f 01ee 0000      	.insn	6, 0x01ee079f
 13e:	0238                	addi	a4,sp,264
 140:	0000                	unimp
 142:	6901                	.insn	2, 0x6901
 144:	00027207          	.insn	4, 0x00027207
 148:	7a00                	.insn	2, 0x7a00
 14a:	0002                	c.slli64	zero
 14c:	0200                	addi	s0,sp,256
 14e:	9f31                	.insn	2, 0x9f31
 150:	0700                	addi	s0,sp,896
 152:	022c                	addi	a1,sp,264
 154:	0000                	unimp
 156:	0230                	addi	a2,sp,264
 158:	0000                	unimp
 15a:	7f02                	.insn	2, 0x7f02
 15c:	0700                	addi	s0,sp,896
 15e:	0230                	addi	a2,sp,264
 160:	0000                	unimp
 162:	0234                	addi	a3,sp,264
 164:	0000                	unimp
 166:	7e02                	.insn	2, 0x7e02
 168:	0000                	unimp
 16a:	00023807          	.insn	4, 0x00023807
 16e:	3c00                	.insn	2, 0x3c00
 170:	0002                	c.slli64	zero
 172:	0600                	addi	s0,sp,768
 174:	caa0                	sw	s0,80(a3)
 176:	0002                	c.slli64	zero
 178:	0000                	unimp
 17a:	0700                	addi	s0,sp,896
 17c:	0238                	addi	a4,sp,264
 17e:	0000                	unimp
 180:	023c                	addi	a5,sp,264
 182:	0000                	unimp
 184:	9f200803          	lb	a6,-1550(zero) # fffff9f2 <__heap_start+0xffff49f2>
 188:	0700                	addi	s0,sp,896
 18a:	025e                	slli	tp,tp,0x17
 18c:	0000                	unimp
 18e:	0268                	addi	a0,sp,268
 190:	0000                	unimp
 192:	a006                	.insn	2, 0xa006
 194:	02d0                	addi	a2,sp,324
 196:	0000                	unimp
 198:	0000                	unimp
 19a:	00025e07          	.insn	4, 0x00025e07
 19e:	6800                	.insn	2, 0x6800
 1a0:	0002                	c.slli64	zero
 1a2:	0200                	addi	s0,sp,256
 1a4:	9f3a                	add	t5,t5,a4
 1a6:	0700                	addi	s0,sp,896
 1a8:	0016                	c.slli	zero,0x5
 1aa:	0000                	unimp
 1ac:	00b2                	slli	ra,ra,0xc
 1ae:	0000                	unimp
 1b0:	5a01                	li	s4,-32
 1b2:	0000b207          	.insn	4, 0xb207
 1b6:	be00                	.insn	2, 0xbe00
 1b8:	0000                	unimp
 1ba:	0a00                	addi	s0,sp,272
 1bc:	0aa503a3          	sb	a0,167(a0)
 1c0:	a826                	.insn	2, 0xa826
 1c2:	a82d                	j	1fc <main+0x6c>
 1c4:	9f00                	.insn	2, 0x9f00
 1c6:	0000be07          	.insn	4, 0xbe07
 1ca:	c500                	sw	s0,8(a0)
 1cc:	0000                	unimp
 1ce:	0100                	addi	s0,sp,128
 1d0:	075a                	slli	a4,a4,0x16
 1d2:	00c5                	addi	ra,ra,17
 1d4:	0000                	unimp
 1d6:	00dc                	addi	a5,sp,68
 1d8:	0000                	unimp
 1da:	a30a                	.insn	2, 0xa30a
 1dc:	260aa503          	lw	a0,608(s5)
 1e0:	2da8                	.insn	2, 0x2da8
 1e2:	00a8                	addi	a0,sp,72
 1e4:	009f 1607 0000      	.insn	6, 0x1607009f
 1ea:	3e00                	.insn	2, 0x3e00
 1ec:	0000                	unimp
 1ee:	0100                	addi	s0,sp,128
 1f0:	003e075b          	.insn	4, 0x003e075b
 1f4:	0000                	unimp
 1f6:	00b8                	addi	a4,sp,72
 1f8:	0000                	unimp
 1fa:	5901                	li	s2,-32
 1fc:	0000b807          	.insn	4, 0xb807
 200:	be00                	.insn	2, 0xbe00
 202:	0000                	unimp
 204:	0a00                	addi	s0,sp,272
 206:	0ba503a3          	sb	s10,167(a0)
 20a:	a826                	.insn	2, 0xa826
 20c:	a82d                	j	246 <main+0xb6>
 20e:	9f00                	.insn	2, 0x9f00
 210:	0000be07          	.insn	4, 0xbe07
 214:	d600                	sw	s0,40(a2)
 216:	0000                	unimp
 218:	0100                	addi	s0,sp,128
 21a:	0759                	addi	a4,a4,22
 21c:	00d6                	slli	ra,ra,0x15
 21e:	0000                	unimp
 220:	00dc                	addi	a5,sp,68
 222:	0000                	unimp
 224:	a30a                	.insn	2, 0xa30a
 226:	260ba503          	lw	a0,608(s7)
 22a:	2da8                	.insn	2, 0x2da8
 22c:	00a8                	addi	a0,sp,72
 22e:	009f 1607 0000      	.insn	6, 0x1607009f
 234:	3e00                	.insn	2, 0x3e00
 236:	0000                	unimp
 238:	0100                	addi	s0,sp,128
 23a:	075a                	slli	a4,a4,0x16
 23c:	003e                	c.slli	zero,0xf
 23e:	0000                	unimp
 240:	0066                	c.slli	zero,0x19
 242:	0000                	unimp
 244:	5801                	li	a6,-32
 246:	00006607          	.insn	4, 0x6607
 24a:	6e00                	.insn	2, 0x6e00
 24c:	0000                	unimp
 24e:	0100                	addi	s0,sp,128
 250:	075e                	slli	a4,a4,0x17
 252:	006e                	c.slli	zero,0x1b
 254:	0000                	unimp
 256:	00a2                	slli	ra,ra,0x8
 258:	0000                	unimp
 25a:	5801                	li	a6,-32
 25c:	0000a207          	.insn	4, 0xa207
 260:	a400                	.insn	2, 0xa400
 262:	0000                	unimp
 264:	0300                	addi	s0,sp,384
 266:	0178                	addi	a4,sp,140
 268:	079f 00a4 0000      	.insn	6, 0x00a4079f
 26e:	00b6                	slli	ra,ra,0xd
 270:	0000                	unimp
 272:	5801                	li	a6,-32
 274:	0000be07          	.insn	4, 0xbe07
 278:	d400                	sw	s0,40(s0)
 27a:	0000                	unimp
 27c:	0100                	addi	s0,sp,128
 27e:	0058                	addi	a4,sp,4
 280:	00003a07          	.insn	4, 0x3a07
 284:	b200                	.insn	2, 0xb200
 286:	0000                	unimp
 288:	0100                	addi	s0,sp,128
 28a:	00be075b          	.insn	4, 0x00be075b
 28e:	0000                	unimp
 290:	00c5                	addi	ra,ra,17
 292:	0000                	unimp
 294:	5b01                	li	s6,-32
 296:	0700                	addi	s0,sp,896
 298:	003a                	c.slli	zero,0xe
 29a:	0000                	unimp
 29c:	00b2                	slli	ra,ra,0xc
 29e:	0000                	unimp
 2a0:	5c01                	li	s8,-32
 2a2:	0000be07          	.insn	4, 0xbe07
 2a6:	c500                	sw	s0,8(a0)
 2a8:	0000                	unimp
 2aa:	0100                	addi	s0,sp,128
 2ac:	005c                	addi	a5,sp,4
 2ae:	00009607          	.insn	4, 0x9607
 2b2:	aa00                	.insn	2, 0xaa00
 2b4:	0000                	unimp
 2b6:	0100                	addi	s0,sp,128
 2b8:	005d                	c.nop	23

Disassembly of section .debug_aranges:

00000000 <.debug_aranges>:
   0:	0024                	addi	s1,sp,8
   2:	0000                	unimp
   4:	0002                	c.slli64	zero
   6:	0000                	unimp
   8:	0000                	unimp
   a:	0004                	.insn	2, 0x0004
   c:	0000                	unimp
   e:	0000                	unimp
  10:	0016                	c.slli	zero,0x5
  12:	0000                	unimp
  14:	00c6                	slli	ra,ra,0x11
  16:	0000                	unimp
  18:	0190                	addi	a2,sp,192
  1a:	0000                	unimp
  1c:	00ea                	slli	ra,ra,0x1a
	...
  26:	0000                	unimp
  28:	001c                	.insn	2, 0x001c
  2a:	0000                	unimp
  2c:	0002                	c.slli64	zero
  2e:	000002d7          	.insn	4, 0x02d7
  32:	0004                	.insn	2, 0x0004
  34:	0000                	unimp
  36:	0000                	unimp
  38:	00dc                	addi	a5,sp,68
  3a:	0000                	unimp
  3c:	00b4                	addi	a3,sp,72
	...

Disassembly of section .debug_rnglists:

00000000 <.debug_rnglists>:
   0:	0066                	c.slli	zero,0x19
   2:	0000                	unimp
   4:	0005                	c.nop	1
   6:	0004                	.insn	2, 0x0004
   8:	0000                	unimp
   a:	0000                	unimp
   c:	d806                	sw	ra,48(sp)
   e:	0001                	nop
  10:	de00                	sw	s0,56(a2)
  12:	0001                	nop
  14:	0600                	addi	s0,sp,768
  16:	01e6                	slli	gp,gp,0x19
  18:	0000                	unimp
  1a:	0238                	addi	a4,sp,264
  1c:	0000                	unimp
  1e:	7206                	.insn	2, 0x7206
  20:	0002                	c.slli64	zero
  22:	7a00                	.insn	2, 0x7a00
  24:	0002                	c.slli64	zero
  26:	0000                	unimp
  28:	da06                	sw	ra,52(sp)
  2a:	0001                	nop
  2c:	de00                	sw	s0,56(a2)
  2e:	0001                	nop
  30:	0600                	addi	s0,sp,768
  32:	022c                	addi	a1,sp,264
  34:	0000                	unimp
  36:	022e                	slli	tp,tp,0xb
  38:	0000                	unimp
  3a:	3006                	.insn	2, 0x3006
  3c:	0002                	c.slli64	zero
  3e:	3400                	.insn	2, 0x3400
  40:	0002                	c.slli64	zero
  42:	0000                	unimp
  44:	de06                	sw	ra,60(sp)
  46:	0001                	nop
  48:	e200                	.insn	2, 0xe200
  4a:	0001                	nop
  4c:	0600                	addi	s0,sp,768
  4e:	0238                	addi	a4,sp,264
  50:	0000                	unimp
  52:	023c                	addi	a5,sp,264
  54:	0000                	unimp
  56:	0600                	addi	s0,sp,768
  58:	0016                	c.slli	zero,0x5
  5a:	0000                	unimp
  5c:	00dc                	addi	a5,sp,68
  5e:	0000                	unimp
  60:	9006                	c.add	zero,ra
  62:	0001                	nop
  64:	7a00                	.insn	2, 0x7a00
  66:	0002                	c.slli64	zero
	...

Disassembly of section .debug_line:

00000000 <.debug_line>:
   0:	04ed                	addi	s1,s1,27
   2:	0000                	unimp
   4:	0005                	c.nop	1
   6:	0004                	.insn	2, 0x0004
   8:	00000033          	add	zero,zero,zero
   c:	0101                	addi	sp,sp,0
   e:	fb01                	bnez	a4,ffffff1e <__heap_start+0xffff4f1e>
  10:	0d0e                	slli	s10,s10,0x3
  12:	0100                	addi	s0,sp,128
  14:	0101                	addi	sp,sp,0
  16:	0001                	nop
  18:	0000                	unimp
  1a:	0001                	nop
  1c:	0100                	addi	s0,sp,128
  1e:	0101                	addi	sp,sp,0
  20:	021f 0000 0000      	.insn	6, 0x021f
  26:	002d                	c.nop	11
  28:	0000                	unimp
  2a:	0102                	c.slli64	sp
  2c:	021f 030f 0021      	.insn	6, 0x0021030f021f
  32:	0000                	unimp
  34:	2101                	jal	434 <a+0x1b4>
  36:	0000                	unimp
  38:	0100                	addi	s0,sp,128
  3a:	0040                	addi	s0,sp,4
  3c:	0000                	unimp
  3e:	0500                	addi	s0,sp,640
  40:	0018                	.insn	2, 0x0018
  42:	0205                	addi	tp,tp,1 # 1 <_start+0x1>
  44:	0016                	c.slli	zero,0x5
  46:	0000                	unimp
  48:	05010b03          	lb	s6,80(sp)
  4c:	0305                	addi	t1,t1,1
  4e:	0901                	addi	s2,s2,0
  50:	0000                	unimp
  52:	0301                	addi	t1,t1,0
  54:	0901                	addi	s2,s2,0
  56:	0000                	unimp
  58:	0501                	addi	a0,a0,0
  5a:	0612                	slli	a2,a2,0x4
  5c:	00090103          	lb	sp,0(s2)
  60:	0100                	addi	s0,sp,128
  62:	1705                	addi	a4,a4,-31
  64:	04090003          	lb	zero,64(s2)
  68:	0100                	addi	s0,sp,128
  6a:	0905                	addi	s2,s2,1
  6c:	08090003          	lb	zero,128(s2)
  70:	0100                	addi	s0,sp,128
  72:	1805                	addi	a6,a6,-31 # 590b511b <__heap_start+0x590aa11b>
  74:	0a097d03          	.insn	4, 0x0a097d03
  78:	0100                	addi	s0,sp,128
  7a:	0c090003          	lb	zero,192(s2)
  7e:	0100                	addi	s0,sp,128
  80:	0505                	addi	a0,a0,1
  82:	0306                	slli	t1,t1,0x1
  84:	00020903          	lb	s2,0(tp) # 0 <_start>
  88:	0301                	addi	t1,t1,0
  8a:	0901                	addi	s2,s2,0
  8c:	0000                	unimp
  8e:	0501                	addi	a0,a0,0
  90:	0609                	addi	a2,a2,2
  92:	00097d03          	.insn	4, 0x00097d03
  96:	0100                	addi	s0,sp,128
  98:	0e05                	addi	t3,t3,1 # 6001 <a+0x5d81>
  9a:	0306                	slli	t1,t1,0x1
  9c:	00040903          	lb	s2,0(s0)
  a0:	0501                	addi	a0,a0,0
  a2:	0015                	c.nop	5
  a4:	0402                	c.slli64	s0
  a6:	0301                	addi	t1,t1,0
  a8:	0901                	addi	s2,s2,0
  aa:	0004                	.insn	2, 0x0004
  ac:	0501                	addi	a0,a0,0
  ae:	0011                	c.nop	4
  b0:	0402                	c.slli64	s0
  b2:	0601                	addi	a2,a2,0
  b4:	00090003          	lb	zero,0(s2)
  b8:	0100                	addi	s0,sp,128
  ba:	0200                	addi	s0,sp,256
  bc:	0104                	addi	s1,sp,128
  be:	0a090103          	lb	sp,160(s2)
  c2:	0100                	addi	s0,sp,128
  c4:	1505                	addi	a0,a0,-31
  c6:	0200                	addi	s0,sp,256
  c8:	0104                	addi	s1,sp,128
  ca:	16097f03          	.insn	4, 0x16097f03
  ce:	0100                	addi	s0,sp,128
  d0:	1a05                	addi	s4,s4,-31
  d2:	0200                	addi	s0,sp,256
  d4:	0204                	addi	s1,sp,256
  d6:	0306                	slli	t1,t1,0x1
  d8:	0900                	addi	s0,sp,144
  da:	0004                	.insn	2, 0x0004
  dc:	0501                	addi	a0,a0,0
  de:	0011                	c.nop	4
  e0:	0402                	c.slli64	s0
  e2:	0601                	addi	a2,a2,0
  e4:	00090003          	lb	zero,0(s2)
  e8:	0100                	addi	s0,sp,128
  ea:	1505                	addi	a0,a0,-31
  ec:	0200                	addi	s0,sp,256
  ee:	0104                	addi	s1,sp,128
  f0:	02090003          	lb	zero,32(s2)
  f4:	0100                	addi	s0,sp,128
  f6:	1b05                	addi	s6,s6,-31 # fffe1fe1 <__heap_start+0xfffd6fe1>
  f8:	0200                	addi	s0,sp,256
  fa:	0204                	addi	s1,sp,256
  fc:	02090003          	lb	zero,32(s2)
 100:	0100                	addi	s0,sp,128
 102:	1505                	addi	a0,a0,-31
 104:	0200                	addi	s0,sp,256
 106:	0104                	addi	s1,sp,128
 108:	0306                	slli	t1,t1,0x1
 10a:	0900                	addi	s0,sp,144
 10c:	0002                	c.slli64	zero
 10e:	0001                	nop
 110:	0402                	c.slli64	s0
 112:	0301                	addi	t1,t1,0
 114:	0901                	addi	s2,s2,0
 116:	0006                	c.slli	zero,0x1
 118:	0501                	addi	a0,a0,0
 11a:	001a                	c.slli	zero,0x6
 11c:	0402                	c.slli64	s0
 11e:	0302                	c.slli64	t1
 120:	0900                	addi	s0,sp,144
 122:	000c                	.insn	2, 0x000c
 124:	0501                	addi	a0,a0,0
 126:	0011                	c.nop	4
 128:	0402                	c.slli64	s0
 12a:	0601                	addi	a2,a2,0
 12c:	00090003          	lb	zero,0(s2)
 130:	0100                	addi	s0,sp,128
 132:	1505                	addi	a0,a0,-31
 134:	0200                	addi	s0,sp,256
 136:	0104                	addi	s1,sp,128
 138:	04090003          	lb	zero,64(s2)
 13c:	0100                	addi	s0,sp,128
 13e:	1b05                	addi	s6,s6,-31
 140:	0200                	addi	s0,sp,256
 142:	0204                	addi	s1,sp,256
 144:	02090003          	lb	zero,32(s2)
 148:	0100                	addi	s0,sp,128
 14a:	1505                	addi	a0,a0,-31
 14c:	0200                	addi	s0,sp,256
 14e:	0104                	addi	s1,sp,128
 150:	0306                	slli	t1,t1,0x1
 152:	0900                	addi	s0,sp,144
 154:	0002                	c.slli64	zero
 156:	0501                	addi	a0,a0,0
 158:	0309                	addi	t1,t1,2
 15a:	0901                	addi	s2,s2,0
 15c:	0004                	.insn	2, 0x0004
 15e:	0501                	addi	a0,a0,0
 160:	060c                	addi	a1,sp,768
 162:	00090003          	lb	zero,0(s2)
 166:	0100                	addi	s0,sp,128
 168:	0d05                	addi	s10,s10,1 # fffe0001 <__heap_start+0xfffd5001>
 16a:	0306                	slli	t1,t1,0x1
 16c:	0901                	addi	s2,s2,0
 16e:	000c                	.insn	2, 0x000c
 170:	0301                	addi	t1,t1,0
 172:	0901                	addi	s2,s2,0
 174:	0000                	unimp
 176:	0501                	addi	a0,a0,0
 178:	0612                	slli	a2,a2,0x4
 17a:	00090003          	lb	zero,0(s2)
 17e:	0100                	addi	s0,sp,128
 180:	0d05                	addi	s10,s10,1
 182:	0306                	slli	t1,t1,0x1
 184:	0901                	addi	s2,s2,0
 186:	0006                	c.slli	zero,0x1
 188:	0501                	addi	a0,a0,0
 18a:	0612                	slli	a2,a2,0x4
 18c:	00090003          	lb	zero,0(s2)
 190:	0100                	addi	s0,sp,128
 192:	0d05                	addi	s10,s10,1
 194:	0306                	slli	t1,t1,0x1
 196:	0901                	addi	s2,s2,0
 198:	0006                	c.slli	zero,0x1
 19a:	0501                	addi	a0,a0,0
 19c:	060e                	slli	a2,a2,0x3
 19e:	00090003          	lb	zero,0(s2)
 1a2:	0100                	addi	s0,sp,128
 1a4:	0d05                	addi	s10,s10,1
 1a6:	0306                	slli	t1,t1,0x1
 1a8:	0901                	addi	s2,s2,0
 1aa:	0002                	c.slli64	zero
 1ac:	0501                	addi	a0,a0,0
 1ae:	060e                	slli	a2,a2,0x3
 1b0:	00090003          	lb	zero,0(s2)
 1b4:	0100                	addi	s0,sp,128
 1b6:	0306                	slli	t1,t1,0x1
 1b8:	0978                	addi	a4,sp,156
 1ba:	0002                	c.slli64	zero
 1bc:	0501                	addi	a0,a0,0
 1be:	0305                	addi	t1,t1,1
 1c0:	0004090b          	.insn	4, 0x0004090b
 1c4:	0501                	addi	a0,a0,0
 1c6:	0608                	addi	a0,sp,768
 1c8:	00090003          	lb	zero,0(s2)
 1cc:	0100                	addi	s0,sp,128
 1ce:	0505                	addi	a0,a0,1
 1d0:	0306                	slli	t1,t1,0x1
 1d2:	0901                	addi	s2,s2,0
 1d4:	0004                	.insn	2, 0x0004
 1d6:	0501                	addi	a0,a0,0
 1d8:	0608                	addi	a0,sp,768
 1da:	00090003          	lb	zero,0(s2)
 1de:	0100                	addi	s0,sp,128
 1e0:	0105                	addi	sp,sp,1
 1e2:	04090203          	lb	tp,64(s2)
 1e6:	0100                	addi	s0,sp,128
 1e8:	1505                	addi	a0,a0,-31
 1ea:	0200                	addi	s0,sp,256
 1ec:	0104                	addi	s1,sp,128
 1ee:	0306                	slli	t1,t1,0x1
 1f0:	0974                	addi	a3,sp,156
 1f2:	000c                	.insn	2, 0x000c
 1f4:	0501                	addi	a0,a0,0
 1f6:	0010                	.insn	2, 0x0010
 1f8:	0402                	c.slli64	s0
 1fa:	0301                	addi	t1,t1,0
 1fc:	0909                	addi	s2,s2,2
 1fe:	0006                	c.slli	zero,0x1
 200:	0501                	addi	a0,a0,0
 202:	0305                	addi	t1,t1,1
 204:	0901                	addi	s2,s2,0
 206:	0002                	c.slli64	zero
 208:	0501                	addi	a0,a0,0
 20a:	0608                	addi	a0,sp,768
 20c:	00090003          	lb	zero,0(s2)
 210:	0100                	addi	s0,sp,128
 212:	1005                	c.nop	-31
 214:	0200                	addi	s0,sp,256
 216:	0104                	addi	s1,sp,128
 218:	0306                	slli	t1,t1,0x1
 21a:	0900                	addi	s0,sp,144
 21c:	0004                	.insn	2, 0x0004
 21e:	0501                	addi	a0,a0,0
 220:	0305                	addi	t1,t1,1
 222:	0901                	addi	s2,s2,0
 224:	0006                	c.slli	zero,0x1
 226:	0501                	addi	a0,a0,0
 228:	0601                	addi	a2,a2,0
 22a:	00090103          	lb	sp,0(s2)
 22e:	0100                	addi	s0,sp,128
 230:	0c09                	addi	s8,s8,2
 232:	0000                	unimp
 234:	0101                	addi	sp,sp,0
 236:	0c05                	addi	s8,s8,1
 238:	0500                	addi	s0,sp,640
 23a:	9002                	ebreak
 23c:	0001                	nop
 23e:	0300                	addi	s0,sp,384
 240:	011f 0505 0103      	.insn	6, 0x01030505011f
 246:	0009                	c.nop	2
 248:	0100                	addi	s0,sp,128
 24a:	00090103          	lb	sp,0(s2)
 24e:	0100                	addi	s0,sp,128
 250:	1305                	addi	t1,t1,-31
 252:	0200                	addi	s0,sp,256
 254:	0104                	addi	s1,sp,128
 256:	00090003          	lb	zero,0(s2)
 25a:	0100                	addi	s0,sp,128
 25c:	0c05                	addi	s8,s8,1
 25e:	0306                	slli	t1,t1,0x1
 260:	097e                	slli	s2,s2,0x1f
 262:	0000                	unimp
 264:	0501                	addi	a0,a0,0
 266:	04020013          	addi	zero,tp,64 # 40 <qsrt+0x2a>
 26a:	0301                	addi	t1,t1,0
 26c:	0902                	c.slli64	s2
 26e:	0004                	.insn	2, 0x0004
 270:	0501                	addi	a0,a0,0
 272:	030c                	addi	a1,sp,384
 274:	097e                	slli	s2,s2,0x1f
 276:	0004                	.insn	2, 0x0004
 278:	0501                	addi	a0,a0,0
 27a:	04020013          	addi	zero,tp,64 # 40 <qsrt+0x2a>
 27e:	0301                	addi	t1,t1,0
 280:	0902                	c.slli64	s2
 282:	0002                	c.slli64	zero
 284:	0501                	addi	a0,a0,0
 286:	0609                	addi	a2,a2,2
 288:	0a090103          	lb	sp,160(s2)
 28c:	0100                	addi	s0,sp,128
 28e:	0e05                	addi	t3,t3,1
 290:	0306                	slli	t1,t1,0x1
 292:	0900                	addi	s0,sp,144
 294:	0000                	unimp
 296:	0501                	addi	a0,a0,0
 298:	001a                	c.slli	zero,0x6
 29a:	0402                	c.slli64	s0
 29c:	7f030603          	lb	a2,2032(t1)
 2a0:	0209                	addi	tp,tp,2 # 2 <_start+0x2>
 2a2:	0100                	addi	s0,sp,128
 2a4:	1305                	addi	t1,t1,-31
 2a6:	0200                	addi	s0,sp,256
 2a8:	0104                	addi	s1,sp,128
 2aa:	00090003          	lb	zero,0(s2)
 2ae:	0100                	addi	s0,sp,128
 2b0:	0505                	addi	a0,a0,1
 2b2:	06090203          	lb	tp,96(s2)
 2b6:	0100                	addi	s0,sp,128
 2b8:	04090103          	lb	sp,64(s2)
 2bc:	0100                	addi	s0,sp,128
 2be:	1305                	addi	t1,t1,-31
 2c0:	0200                	addi	s0,sp,256
 2c2:	0104                	addi	s1,sp,128
 2c4:	00090003          	lb	zero,0(s2)
 2c8:	0100                	addi	s0,sp,128
 2ca:	0c05                	addi	s8,s8,1
 2cc:	0306                	slli	t1,t1,0x1
 2ce:	0900                	addi	s0,sp,144
 2d0:	0022                	c.slli	zero,0x8
 2d2:	0401                	addi	s0,s0,0
 2d4:	0502                	c.slli64	a0
 2d6:	0015                	c.nop	5
 2d8:	0402                	c.slli64	s0
 2da:	0301                	addi	t1,t1,0
 2dc:	0919                	addi	s2,s2,6
 2de:	0006                	c.slli	zero,0x1
 2e0:	0501                	addi	a0,a0,0
 2e2:	032d                	addi	t1,t1,11
 2e4:	0956                	slli	s2,s2,0x15
 2e6:	0002                	c.slli64	zero
 2e8:	0401                	addi	s0,s0,0
 2ea:	0501                	addi	a0,a0,0
 2ec:	12030603          	lb	a2,288(t1)
 2f0:	0809                	addi	a6,a6,2
 2f2:	0100                	addi	s0,sp,128
 2f4:	0204                	addi	s1,sp,256
 2f6:	0505                	addi	a0,a0,1
 2f8:	04090e03          	lb	t3,64(s2)
 2fc:	0100                	addi	s0,sp,128
 2fe:	00090103          	lb	sp,0(s2)
 302:	0100                	addi	s0,sp,128
 304:	00090103          	lb	sp,0(s2)
 308:	0100                	addi	s0,sp,128
 30a:	00090103          	lb	sp,0(s2)
 30e:	0100                	addi	s0,sp,128
 310:	0e05                	addi	t3,t3,1
 312:	0306                	slli	t1,t1,0x1
 314:	097f 0000 0501 0308 	.insn	10, 0x0901030805010000097f
 31c:	0901 
 31e:	0002                	c.slli64	zero
 320:	0501                	addi	a0,a0,0
 322:	030a                	slli	t1,t1,0x2
 324:	0901                	addi	s2,s2,0
 326:	0004                	.insn	2, 0x0004
 328:	0501                	addi	a0,a0,0
 32a:	0605                	addi	a2,a2,1
 32c:	02090303          	lb	t1,32(s2)
 330:	0100                	addi	s0,sp,128
 332:	0905                	addi	s2,s2,1
 334:	00090103          	lb	sp,0(s2)
 338:	0100                	addi	s0,sp,128
 33a:	1805                	addi	a6,a6,-31
 33c:	0306                	slli	t1,t1,0x1
 33e:	0900                	addi	s0,sp,144
 340:	0000                	unimp
 342:	0501                	addi	a0,a0,0
 344:	030e                	slli	t1,t1,0x3
 346:	0900                	addi	s0,sp,144
 348:	0008                	.insn	2, 0x0008
 34a:	0501                	addi	a0,a0,0
 34c:	0312                	slli	t1,t1,0x4
 34e:	0900                	addi	s0,sp,144
 350:	0002                	c.slli64	zero
 352:	0501                	addi	a0,a0,0
 354:	031d                	addi	t1,t1,7
 356:	0900                	addi	s0,sp,144
 358:	0004                	.insn	2, 0x0004
 35a:	0501                	addi	a0,a0,0
 35c:	0312                	slli	t1,t1,0x4
 35e:	0900                	addi	s0,sp,144
 360:	0004                	.insn	2, 0x0004
 362:	0501                	addi	a0,a0,0
 364:	0015                	c.nop	5
 366:	0402                	c.slli64	s0
 368:	0601                	addi	a2,a2,0
 36a:	04090203          	lb	tp,64(s2)
 36e:	0100                	addi	s0,sp,128
 370:	1005                	c.nop	-31
 372:	0200                	addi	s0,sp,256
 374:	0104                	addi	s1,sp,128
 376:	0306                	slli	t1,t1,0x1
 378:	0900                	addi	s0,sp,144
 37a:	0000                	unimp
 37c:	0501                	addi	a0,a0,0
 37e:	0015                	c.nop	5
 380:	0402                	c.slli64	s0
 382:	0301                	addi	t1,t1,0
 384:	0900                	addi	s0,sp,144
 386:	000a                	c.slli	zero,0x2
 388:	0501                	addi	a0,a0,0
 38a:	0605                	addi	a2,a2,1
 38c:	04090103          	lb	sp,64(s2)
 390:	0100                	addi	s0,sp,128
 392:	0705                	addi	a4,a4,1
 394:	0306                	slli	t1,t1,0x1
 396:	0900                	addi	s0,sp,144
 398:	0000                	unimp
 39a:	0501                	addi	a0,a0,0
 39c:	0402000b          	.insn	4, 0x0402000b
 3a0:	0601                	addi	a2,a2,0
 3a2:	04090003          	lb	zero,64(s2)
 3a6:	0100                	addi	s0,sp,128
 3a8:	1305                	addi	t1,t1,-31
 3aa:	0200                	addi	s0,sp,256
 3ac:	0104                	addi	s1,sp,128
 3ae:	0306                	slli	t1,t1,0x1
 3b0:	0900                	addi	s0,sp,144
 3b2:	0000                	unimp
 3b4:	0501                	addi	a0,a0,0
 3b6:	060c                	addi	a1,sp,768
 3b8:	0e090103          	lb	sp,224(s2)
 3bc:	0100                	addi	s0,sp,128
 3be:	0905                	addi	s2,s2,1
 3c0:	04090103          	lb	sp,64(s2)
 3c4:	0100                	addi	s0,sp,128
 3c6:	0205                	addi	tp,tp,1 # 1 <_start+0x1>
 3c8:	04095303          	lhu	t1,64(s2)
 3cc:	0100                	addi	s0,sp,128
 3ce:	0c05                	addi	s8,s8,1
 3d0:	0306                	slli	t1,t1,0x1
 3d2:	092c                	addi	a1,sp,152
 3d4:	0002                	c.slli64	zero
 3d6:	0501                	addi	a0,a0,0
 3d8:	032d                	addi	t1,t1,11
 3da:	0954                	addi	a3,sp,148
 3dc:	0002                	c.slli64	zero
 3de:	0501                	addi	a0,a0,0
 3e0:	060c                	addi	a1,sp,768
 3e2:	04092c03          	lw	s8,64(s2)
 3e6:	0100                	addi	s0,sp,128
 3e8:	0104                	addi	s1,sp,128
 3ea:	0305                	addi	t1,t1,1
 3ec:	04096703          	.insn	4, 0x04096703
 3f0:	0100                	addi	s0,sp,128
 3f2:	0204                	addi	s1,sp,256
 3f4:	0205                	addi	tp,tp,1 # 1 <_start+0x1>
 3f6:	00092003          	lw	zero,0(s2)
 3fa:	0100                	addi	s0,sp,128
 3fc:	0905                	addi	s2,s2,1
 3fe:	0200                	addi	s0,sp,256
 400:	0104                	addi	s1,sp,128
 402:	00090003          	lb	zero,0(s2)
 406:	0100                	addi	s0,sp,128
 408:	0305                	addi	t1,t1,1
 40a:	00090103          	lb	sp,0(s2)
 40e:	0100                	addi	s0,sp,128
 410:	0205                	addi	tp,tp,1 # 1 <_start+0x1>
 412:	00094c03          	lbu	s8,0(s2)
 416:	0100                	addi	s0,sp,128
 418:	2d05                	jal	a48 <a+0x7c8>
 41a:	0306                	slli	t1,t1,0x1
 41c:	0900                	addi	s0,sp,144
 41e:	0000                	unimp
 420:	0501                	addi	a0,a0,0
 422:	0012                	c.slli	zero,0x4
 424:	0402                	c.slli64	s0
 426:	0602                	c.slli64	a2
 428:	04093303          	.insn	4, 0x04093303
 42c:	0100                	addi	s0,sp,128
 42e:	0905                	addi	s2,s2,1
 430:	0200                	addi	s0,sp,256
 432:	0104                	addi	s1,sp,128
 434:	00090003          	lb	zero,0(s2)
 438:	0100                	addi	s0,sp,128
 43a:	0104                	addi	s1,sp,128
 43c:	1105                	addi	sp,sp,-31
 43e:	00096103          	.insn	4, 0x00096103
 442:	0100                	addi	s0,sp,128
 444:	1a05                	addi	s4,s4,-31
 446:	0200                	addi	s0,sp,256
 448:	0304                	addi	s1,sp,384
 44a:	00097d03          	.insn	4, 0x00097d03
 44e:	0100                	addi	s0,sp,128
 450:	1305                	addi	t1,t1,-31
 452:	0200                	addi	s0,sp,256
 454:	0104                	addi	s1,sp,128
 456:	0306                	slli	t1,t1,0x1
 458:	0900                	addi	s0,sp,144
 45a:	0000                	unimp
 45c:	0501                	addi	a0,a0,0
 45e:	001a                	c.slli	zero,0x6
 460:	0402                	c.slli64	s0
 462:	09000303          	lb	t1,144(zero) # 90 <qsrt+0x7a>
 466:	0004                	.insn	2, 0x0004
 468:	0501                	addi	a0,a0,0
 46a:	04020013          	addi	zero,tp,64 # 40 <qsrt+0x2a>
 46e:	0601                	addi	a2,a2,0
 470:	02090003          	lb	zero,32(s2)
 474:	0100                	addi	s0,sp,128
 476:	0204                	addi	s1,sp,256
 478:	0905                	addi	s2,s2,1
 47a:	0200                	addi	s0,sp,256
 47c:	0104                	addi	s1,sp,128
 47e:	1c092203          	lw	tp,448(s2)
 482:	0100                	addi	s0,sp,128
 484:	0305                	addi	t1,t1,1
 486:	00090103          	lb	sp,0(s2)
 48a:	0100                	addi	s0,sp,128
 48c:	0205                	addi	tp,tp,1 # 1 <_start+0x1>
 48e:	00094c03          	lbu	s8,0(s2)
 492:	0100                	addi	s0,sp,128
 494:	2d05                	jal	ac4 <a+0x844>
 496:	0306                	slli	t1,t1,0x1
 498:	0900                	addi	s0,sp,144
 49a:	0000                	unimp
 49c:	0501                	addi	a0,a0,0
 49e:	0012                	c.slli	zero,0x4
 4a0:	0402                	c.slli64	s0
 4a2:	0602                	c.slli64	a2
 4a4:	0a093303          	.insn	4, 0x0a093303
 4a8:	0100                	addi	s0,sp,128
 4aa:	0905                	addi	s2,s2,1
 4ac:	0200                	addi	s0,sp,256
 4ae:	0104                	addi	s1,sp,128
 4b0:	00090003          	lb	zero,0(s2)
 4b4:	0100                	addi	s0,sp,128
 4b6:	0104                	addi	s1,sp,128
 4b8:	0505                	addi	a0,a0,1
 4ba:	00096403          	.insn	4, 0x00096403
 4be:	0100                	addi	s0,sp,128
 4c0:	0105                	addi	sp,sp,1
 4c2:	0306                	slli	t1,t1,0x1
 4c4:	0901                	addi	s2,s2,0
 4c6:	0000                	unimp
 4c8:	0401                	addi	s0,s0,0
 4ca:	0502                	c.slli64	a0
 4cc:	0609                	addi	a2,a2,2
 4ce:	0a090c03          	lb	s8,160(s2)
 4d2:	0100                	addi	s0,sp,128
 4d4:	00090103          	lb	sp,0(s2)
 4d8:	0100                	addi	s0,sp,128
 4da:	0c05                	addi	s8,s8,1
 4dc:	0306                	slli	t1,t1,0x1
 4de:	0900                	addi	s0,sp,144
 4e0:	0000                	unimp
 4e2:	0501                	addi	a0,a0,0
 4e4:	030a                	slli	t1,t1,0x2
 4e6:	097f 0004 0901 0004 	.insn	10, 0x0100000409010004097f
 4ee:	0100 
 4f0:	4f01                	li	t5,0
 4f2:	0001                	nop
 4f4:	0500                	addi	s0,sp,640
 4f6:	0400                	addi	s0,sp,512
 4f8:	2e00                	.insn	2, 0x2e00
 4fa:	0000                	unimp
 4fc:	0100                	addi	s0,sp,128
 4fe:	0101                	addi	sp,sp,0
 500:	000d0efb          	.insn	4, 0x000d0efb
 504:	0101                	addi	sp,sp,0
 506:	0101                	addi	sp,sp,0
 508:	0000                	unimp
 50a:	0100                	addi	s0,sp,128
 50c:	0000                	unimp
 50e:	0101                	addi	sp,sp,0
 510:	1f01                	addi	t5,t5,-32
 512:	4502                	lw	a0,0(sp)
 514:	0000                	unimp
 516:	8900                	.insn	2, 0x8900
 518:	0000                	unimp
 51a:	0200                	addi	s0,sp,256
 51c:	1f01                	addi	t5,t5,-32
 51e:	0f02                	c.slli64	t5
 520:	c302                	sw	zero,132(sp)
 522:	0000                	unimp
 524:	0100                	addi	s0,sp,128
 526:	000000c3          	.insn	4, 0x00c3
 52a:	0001                	nop
 52c:	0205                	addi	tp,tp,1 # 1 <_start+0x1>
 52e:	00dc                	addi	a5,sp,68
 530:	0000                	unimp
 532:	0100c403          	lbu	s0,16(ra)
 536:	04090103          	lb	sp,64(s2)
 53a:	0100                	addi	s0,sp,128
 53c:	04090403          	lb	s0,64(s2)
 540:	0100                	addi	s0,sp,128
 542:	04090103          	lb	sp,64(s2)
 546:	0100                	addi	s0,sp,128
 548:	04090103          	lb	sp,64(s2)
 54c:	0100                	addi	s0,sp,128
 54e:	04090103          	lb	sp,64(s2)
 552:	0100                	addi	s0,sp,128
 554:	04090103          	lb	sp,64(s2)
 558:	0100                	addi	s0,sp,128
 55a:	04090103          	lb	sp,64(s2)
 55e:	0100                	addi	s0,sp,128
 560:	04090203          	lb	tp,64(s2)
 564:	0100                	addi	s0,sp,128
 566:	04090103          	lb	sp,64(s2)
 56a:	0100                	addi	s0,sp,128
 56c:	04090103          	lb	sp,64(s2)
 570:	0100                	addi	s0,sp,128
 572:	04090103          	lb	sp,64(s2)
 576:	0100                	addi	s0,sp,128
 578:	04090203          	lb	tp,64(s2)
 57c:	0100                	addi	s0,sp,128
 57e:	04090203          	lb	tp,64(s2)
 582:	0100                	addi	s0,sp,128
 584:	04090103          	lb	sp,64(s2)
 588:	0100                	addi	s0,sp,128
 58a:	04090103          	lb	sp,64(s2)
 58e:	0100                	addi	s0,sp,128
 590:	04090203          	lb	tp,64(s2)
 594:	0100                	addi	s0,sp,128
 596:	04090103          	lb	sp,64(s2)
 59a:	0100                	addi	s0,sp,128
 59c:	04090103          	lb	sp,64(s2)
 5a0:	0100                	addi	s0,sp,128
 5a2:	04090203          	lb	tp,64(s2)
 5a6:	0100                	addi	s0,sp,128
 5a8:	04090603          	lb	a2,64(s2)
 5ac:	0100                	addi	s0,sp,128
 5ae:	04090103          	lb	sp,64(s2)
 5b2:	0100                	addi	s0,sp,128
 5b4:	04090103          	lb	sp,64(s2)
 5b8:	0100                	addi	s0,sp,128
 5ba:	04090103          	lb	sp,64(s2)
 5be:	0100                	addi	s0,sp,128
 5c0:	04090503          	lb	a0,64(s2)
 5c4:	0100                	addi	s0,sp,128
 5c6:	04090203          	lb	tp,64(s2)
 5ca:	0100                	addi	s0,sp,128
 5cc:	04090203          	lb	tp,64(s2)
 5d0:	0100                	addi	s0,sp,128
 5d2:	04090103          	lb	sp,64(s2)
 5d6:	0100                	addi	s0,sp,128
 5d8:	04090203          	lb	tp,64(s2)
 5dc:	0100                	addi	s0,sp,128
 5de:	04090203          	lb	tp,64(s2)
 5e2:	0100                	addi	s0,sp,128
 5e4:	04090103          	lb	sp,64(s2)
 5e8:	0100                	addi	s0,sp,128
 5ea:	04090103          	lb	sp,64(s2)
 5ee:	0100                	addi	s0,sp,128
 5f0:	04090103          	lb	sp,64(s2)
 5f4:	0100                	addi	s0,sp,128
 5f6:	04090403          	lb	s0,64(s2)
 5fa:	0100                	addi	s0,sp,128
 5fc:	04090103          	lb	sp,64(s2)
 600:	0100                	addi	s0,sp,128
 602:	04090103          	lb	sp,64(s2)
 606:	0100                	addi	s0,sp,128
 608:	04090203          	lb	tp,64(s2)
 60c:	0100                	addi	s0,sp,128
 60e:	04090103          	lb	sp,64(s2)
 612:	0100                	addi	s0,sp,128
 614:	04090103          	lb	sp,64(s2)
 618:	0100                	addi	s0,sp,128
 61a:	04090203          	lb	tp,64(s2)
 61e:	0100                	addi	s0,sp,128
 620:	04090103          	lb	sp,64(s2)
 624:	0100                	addi	s0,sp,128
 626:	04090203          	lb	tp,64(s2)
 62a:	0100                	addi	s0,sp,128
 62c:	04090103          	lb	sp,64(s2)
 630:	0100                	addi	s0,sp,128
 632:	04090103          	lb	sp,64(s2)
 636:	0100                	addi	s0,sp,128
 638:	04090103          	lb	sp,64(s2)
 63c:	0100                	addi	s0,sp,128
 63e:	0409                	addi	s0,s0,2
 640:	0000                	unimp
 642:	0101                	addi	sp,sp,0

Disassembly of section .debug_str:

00000000 <.debug_str>:
   0:	6574                	.insn	2, 0x6574
   2:	706d                	c.lui	zero,0xffffb
   4:	6d00                	.insn	2, 0x6d00
   6:	6961                	lui	s2,0x18
   8:	006e                	c.slli	zero,0x1b
   a:	7270                	.insn	2, 0x7270
   c:	6e69                	lui	t3,0x1a
   e:	0074                	addi	a3,sp,12
  10:	6274756f          	jal	a0,47e36 <__heap_start+0x3ce36>
  14:	6c00                	.insn	2, 0x6c00
  16:	20676e6f          	jal	t3,7621c <__heap_start+0x6b21c>
  1a:	6f6c                	.insn	2, 0x6f6c
  1c:	676e                	.insn	2, 0x676e
  1e:	7520                	.insn	2, 0x7520
  20:	736e                	.insn	2, 0x736e
  22:	6769                	lui	a4,0x1a
  24:	656e                	.insn	2, 0x656e
  26:	2064                	.insn	2, 0x2064
  28:	6e69                	lui	t3,0x1a
  2a:	0074                	addi	a3,sp,12
  2c:	6164                	.insn	2, 0x6164
  2e:	6174                	.insn	2, 0x6174
  30:	7100                	.insn	2, 0x7100
  32:	00747273          	.insn	4, 0x00747273
  36:	6c74756f          	jal	a0,47efc <__heap_start+0x3cefc>
  3a:	7500                	.insn	2, 0x7500
  3c:	736e                	.insn	2, 0x736e
  3e:	6769                	lui	a4,0x1a
  40:	656e                	.insn	2, 0x656e
  42:	2064                	.insn	2, 0x2064
  44:	72616863          	bltu	sp,t1,774 <a+0x4f4>
  48:	5f00                	lw	s0,56(a4)
  4a:	645f 7669 6973      	.insn	6, 0x69737669645f
  50:	4e470033          	.insn	4, 0x4e470033
  54:	2055                	jal	f8 <__hidden___udivsi3+0x14>
  56:	20373143          	.insn	4, 0x20373143
  5a:	3431                	jal	fffffa66 <__heap_start+0xffff4a66>
  5c:	312e                	.insn	2, 0x312e
  5e:	302e                	.insn	2, 0x302e
  60:	2d20                	.insn	2, 0x2d20
  62:	616d                	addi	sp,sp,240
  64:	6962                	.insn	2, 0x6962
  66:	693d                	lui	s2,0xf
  68:	706c                	.insn	2, 0x706c
  6a:	2d203233          	.insn	4, 0x2d203233
  6e:	696d                	lui	s2,0x1b
  70:	732d6173          	.insn	4, 0x732d6173
  74:	6570                	.insn	2, 0x6570
  76:	30323d63          	.insn	4, 0x30323d63
  7a:	3931                	jal	fffffc96 <__heap_start+0xffff4c96>
  7c:	3231                	jal	fffff988 <__heap_start+0xffff4988>
  7e:	3331                	jal	fffffd8a <__heap_start+0xffff4d8a>
  80:	2d20                	.insn	2, 0x2d20
  82:	616d                	addi	sp,sp,240
  84:	6372                	.insn	2, 0x6372
  86:	3d68                	.insn	2, 0x3d68
  88:	7672                	.insn	2, 0x7672
  8a:	63693233          	.insn	4, 0x63693233
  8e:	2d20                	.insn	2, 0x2d20
  90:	4f2d2067          	.insn	4, 0x4f2d2067
  94:	2032                	.insn	2, 0x2032
  96:	732d                	lui	t1,0xfffeb
  98:	6474                	.insn	2, 0x6474
  9a:	633d                	lui	t1,0xf
  9c:	3731                	jal	ffffffa8 <__heap_start+0xffff4fa8>
  9e:	5f00                	lw	s0,56(a4)
  a0:	6d5f 646f 6973      	.insn	6, 0x6973646f6d5f
  a6:	622f0033          	.insn	4, 0x622f0033
  aa:	6975                	lui	s2,0x1d
  ac:	646c                	.insn	2, 0x646c
  ae:	7369722f          	.insn	4, 0x7369722f
  b2:	34367663          	bgeu	a2,gp,3fe <a+0x17e>
  b6:	652d                	lui	a0,0xb
  b8:	666c                	.insn	2, 0x666c
  ba:	672d                	lui	a4,0xb
  bc:	732f6363          	bltu	t5,s2,7e2 <a+0x562>
  c0:	6372                	.insn	2, 0x6372
  c2:	6363672f          	.insn	4, 0x6363672f
  c6:	312d                	jal	fffffcf0 <__heap_start+0xffff4cf0>
  c8:	2e34                	.insn	2, 0x2e34
  ca:	2e31                	jal	3e6 <a+0x166>
  cc:	2f30                	.insn	2, 0x2f30
  ce:	696c                	.insn	2, 0x696c
  d0:	6762                	.insn	2, 0x6762
  d2:	632f6363          	bltu	t5,s2,6f8 <a+0x478>
  d6:	69666e6f          	jal	t3,6676c <__heap_start+0x5b76c>
  da:	69722f67          	.insn	4, 0x69722f67
  de:	2f766373          	.insn	4, 0x2f766373
  e2:	6964                	.insn	2, 0x6964
  e4:	2e76                	.insn	2, 0x2e76
  e6:	622f0053          	.insn	4, 0x622f0053
  ea:	6975                	lui	s2,0x1d
  ec:	646c                	.insn	2, 0x646c
  ee:	7369722f          	.insn	4, 0x7369722f
  f2:	34367663          	bgeu	a2,gp,43e <a+0x1be>
  f6:	652d                	lui	a0,0xb
  f8:	666c                	.insn	2, 0x666c
  fa:	672d                	lui	a4,0xb
  fc:	732f6363          	bltu	t5,s2,822 <a+0x5a2>
 100:	6372                	.insn	2, 0x6372
 102:	6975622f          	.insn	4, 0x6975622f
 106:	646c                	.insn	2, 0x646c
 108:	672d                	lui	a4,0xb
 10a:	722f6363          	bltu	t5,sp,830 <a+0x5b0>
 10e:	7369                	lui	t1,0xffffa
 110:	34367663          	bgeu	a2,gp,45c <a+0x1dc>
 114:	652d                	lui	a0,0xb
 116:	666c                	.insn	2, 0x666c
 118:	3376722f          	.insn	4, 0x3376722f
 11c:	6932                	.insn	2, 0x6932
 11e:	706c692f          	.insn	4, 0x706c692f
 122:	6c2f3233          	.insn	4, 0x6c2f3233
 126:	6269                	lui	tp,0x1a
 128:	00636367          	.insn	4, 0x00636367
 12c:	20554e47          	.insn	4, 0x20554e47
 130:	5341                	li	t1,-16
 132:	3220                	.insn	2, 0x3220
 134:	332e                	.insn	2, 0x332e
 136:	0039                	c.nop	14
 138:	5f5f 6968 6464      	.insn	6, 0x646469685f5f
 13e:	6e65                	lui	t3,0x19
 140:	5f5f 755f 6964      	.insn	6, 0x6964755f5f5f
 146:	7376                	.insn	2, 0x7376
 148:	3369                	jal	fffffed2 <__heap_start+0xffff4ed2>
 14a:	5f00                	lw	s0,56(a4)
 14c:	755f 6f6d 7364      	.insn	6, 0x73646f6d755f
 152:	3369                	jal	fffffedc <__heap_start+0xffff4edc>
	...

Disassembly of section .debug_line_str:

00000000 <.debug_line_str>:
   0:	7070612f          	.insn	4, 0x7070612f
   4:	7365742f          	.insn	4, 0x7365742f
   8:	6374                	.insn	2, 0x6374
   a:	7361                	lui	t1,0xffff8
   c:	0065                	c.nop	25
   e:	7070612f          	.insn	4, 0x7070612f
  12:	7365742f          	.insn	4, 0x7365742f
  16:	6374                	.insn	2, 0x6374
  18:	7361                	lui	t1,0xffff8
  1a:	2f65                	jal	7d2 <a+0x552>
  1c:	316d6973          	.insn	4, 0x316d6973
  20:	3230312f          	.insn	4, 0x3230312f
  24:	715f 6f73 7472      	.insn	6, 0x74726f73715f
  2a:	632e                	.insn	2, 0x632e
  2c:	2f00                	.insn	2, 0x2f00
  2e:	7061                	c.lui	zero,0xffff8
  30:	2f70                	.insn	2, 0x2f70
  32:	6574                	.insn	2, 0x6574
  34:	61637473          	.insn	4, 0x61637473
  38:	732f6573          	.insn	4, 0x732f6573
  3c:	6d69                	lui	s10,0x1a
  3e:	0031                	c.nop	12
  40:	6f69                	lui	t5,0x1a
  42:	682e                	.insn	2, 0x682e
  44:	2f00                	.insn	2, 0x2f00
  46:	7562                	.insn	2, 0x7562
  48:	6c69                	lui	s8,0x1a
  4a:	2f64                	.insn	2, 0x2f64
  4c:	6972                	.insn	2, 0x6972
  4e:	36766373          	.insn	4, 0x36766373
  52:	2d34                	.insn	2, 0x2d34
  54:	6c65                	lui	s8,0x19
  56:	2d66                	.insn	2, 0x2d66
  58:	2f636367          	.insn	4, 0x2f636367
  5c:	2f637273          	.insn	4, 0x2f637273
  60:	7562                	.insn	2, 0x7562
  62:	6c69                	lui	s8,0x1a
  64:	2d64                	.insn	2, 0x2d64
  66:	2f636367          	.insn	4, 0x2f636367
  6a:	6972                	.insn	2, 0x6972
  6c:	36766373          	.insn	4, 0x36766373
  70:	2d34                	.insn	2, 0x2d34
  72:	6c65                	lui	s8,0x19
  74:	2f66                	.insn	2, 0x2f66
  76:	7672                	.insn	2, 0x7672
  78:	2f693233          	.insn	4, 0x2f693233
  7c:	6c69                	lui	s8,0x1a
  7e:	3370                	.insn	2, 0x3370
  80:	2f32                	.insn	2, 0x2f32
  82:	696c                	.insn	2, 0x696c
  84:	6762                	.insn	2, 0x6762
  86:	2f006363          	bltu	zero,a6,36c <a+0xec>
  8a:	7562                	.insn	2, 0x7562
  8c:	6c69                	lui	s8,0x1a
  8e:	2f64                	.insn	2, 0x2f64
  90:	6972                	.insn	2, 0x6972
  92:	36766373          	.insn	4, 0x36766373
  96:	2d34                	.insn	2, 0x2d34
  98:	6c65                	lui	s8,0x19
  9a:	2d66                	.insn	2, 0x2d66
  9c:	2f636367          	.insn	4, 0x2f636367
  a0:	2f637273          	.insn	4, 0x2f637273
  a4:	2d636367          	.insn	4, 0x2d636367
  a8:	3431                	jal	fffffab4 <__heap_start+0xffff4ab4>
  aa:	312e                	.insn	2, 0x312e
  ac:	302e                	.insn	2, 0x302e
  ae:	62696c2f          	.insn	4, 0x62696c2f
  b2:	2f636367          	.insn	4, 0x2f636367
  b6:	666e6f63          	bltu	t3,t1,734 <a+0x4b4>
  ba:	6769                	lui	a4,0x1a
  bc:	7369722f          	.insn	4, 0x7369722f
  c0:	64007663          	bgeu	zero,zero,70c <a+0x48c>
  c4:	7669                	lui	a2,0xffffa
  c6:	532e                	lw	t1,232(sp)
	...

Disassembly of section .debug_frame:

00000000 <.debug_frame>:
   0:	000c                	.insn	2, 0x000c
   2:	0000                	unimp
   4:	ffff                	.insn	2, 0xffff
   6:	ffff                	.insn	2, 0xffff
   8:	7c010003          	lb	zero,1984(sp)
   c:	0d01                	addi	s10,s10,0 # 1a000 <__heap_start+0xf000>
   e:	0002                	c.slli64	zero
  10:	002c                	addi	a1,sp,8
  12:	0000                	unimp
  14:	0000                	unimp
  16:	0000                	unimp
  18:	0016                	c.slli	zero,0x5
  1a:	0000                	unimp
  1c:	00c6                	slli	ra,ra,0x11
  1e:	0000                	unimp
  20:	0e58                	addi	a4,sp,788
  22:	4a10                	lw	a2,16(a2)
  24:	0288                	addi	a0,sp,320
  26:	0389                	addi	t2,t2,2
  28:	0181                	addi	gp,gp,0
  2a:	7c02                	.insn	2, 0x7c02
  2c:	c10a                	sw	sp,128(sp)
  2e:	c842                	sw	a6,16(sp)
  30:	c942                	sw	a6,144(sp)
  32:	0e44                	addi	s1,sp,788
  34:	4200                	lw	s0,0(a2)
  36:	42c1540b          	.insn	4, 0x42c1540b
  3a:	42c8                	lw	a0,4(a3)
  3c:	44c9                	li	s1,18
  3e:	000e                	c.slli	zero,0x3
  40:	0068                	addi	a0,sp,12
  42:	0000                	unimp
  44:	0000                	unimp
  46:	0000                	unimp
  48:	0190                	addi	a2,sp,192
  4a:	0000                	unimp
  4c:	00ea                	slli	ra,ra,0x1a
  4e:	0000                	unimp
  50:	0e42                	slli	t3,t3,0x10
  52:	4250                	lw	a2,4(a2)
  54:	0896                	slli	a7,a7,0x5
  56:	8146                	mv	sp,a7
  58:	6001                	.insn	2, 0x6001
  5a:	0694                	addi	a3,sp,832
  5c:	9254                	.insn	2, 0x9254
  5e:	9304                	.insn	2, 0x9304
  60:	9505                	srai	a0,a0,0x21
  62:	9b099707          	.insn	4, 0x9b099707
  66:	880d                	andi	s0,s0,3
  68:	8902                	jr	s2
  6a:	990a9803          	lh	a6,-1648(s5)
  6e:	020c9a0b          	.insn	4, 0x020c9a0b
  72:	c87c                	sw	a5,84(s0)
  74:	c942                	sw	a6,144(sp)
  76:	d242                	sw	a6,36(sp)
  78:	d342                	sw	a6,164(sp)
  7a:	d442                	sw	a6,40(sp)
  7c:	d542                	sw	a6,168(sp)
  7e:	d742                	sw	a6,172(sp)
  80:	d842                	sw	a6,48(sp)
  82:	d942                	sw	a6,176(sp)
  84:	da42                	sw	a6,52(sp)
  86:	db42                	sw	a6,180(sp)
  88:	c14c                	sw	a1,4(a0)
  8a:	d642                	sw	a6,44(sp)
  8c:	0e44                	addi	s1,sp,788
  8e:	4200                	lw	s0,0(a2)
  90:	500e                	.insn	2, 0x500e
  92:	0181                	addi	gp,gp,0
  94:	0288                	addi	a0,sp,320
  96:	0389                	addi	t2,t2,2
  98:	0492                	slli	s1,s1,0x4
  9a:	06940593          	addi	a1,s0,105
  9e:	0795                	addi	a5,a5,5
  a0:	0896                	slli	a7,a7,0x5
  a2:	0a980997          	auipc	s3,0xa980
  a6:	0b99                	addi	s7,s7,6
  a8:	0c9a                	slli	s9,s9,0x6
  aa:	Address 0xaa is out of bounds.

