
/app/testcase/sim1/102_qsort.elf:     file format elf32-littleriscv


Disassembly of section .text:

00000000 <_start>:
   0:	00020137          	lui	sp,0x20
   4:	18c000ef          	jal	190 <main>
   8:	0ff00513          	li	a0,255
   c:	000306b7          	lui	a3,0x30
  10:	00a68223          	sb	a0,4(a3) # 30004 <__heap_start+0x25004>
  14:	bfe5                	j	c <_start+0xc>

00000016 <qsrt>:
  16:	00b50733          	add	a4,a0,a1
  1a:	01f75793          	srli	a5,a4,0x1f
  1e:	97ba                	add	a5,a5,a4
  20:	8785                	srai	a5,a5,0x1
  22:	078a                	slli	a5,a5,0x2
  24:	28000893          	li	a7,640
  28:	97c6                	add	a5,a5,a7
  2a:	4390                	lw	a2,0(a5)
  2c:	1141                	addi	sp,sp,-16 # 1fff0 <__heap_start+0x14ff0>
  2e:	40000eb7          	lui	t4,0x40000
  32:	c422                	sw	s0,8(sp)
  34:	c226                	sw	s1,4(sp)
  36:	c606                	sw	ra,12(sp)
  38:	84ae                	mv	s1,a1
  3a:	842a                	mv	s0,a0
  3c:	1efd                	addi	t4,t4,-1 # 3fffffff <__heap_start+0x3fff4fff>
  3e:	0685c663          	blt	a1,s0,aa <qsrt+0x94>
  42:	00241313          	slli	t1,s0,0x2
  46:	006887b3          	add	a5,a7,t1
  4a:	4394                	lw	a3,0(a5)
  4c:	00259e13          	slli	t3,a1,0x2
  50:	00140713          	addi	a4,s0,1
  54:	01c88833          	add	a6,a7,t3
  58:	00271793          	slli	a5,a4,0x2
  5c:	00082803          	lw	a6,0(a6)
  60:	97c6                	add	a5,a5,a7
  62:	04c6de63          	bge	a3,a2,be <qsrt+0xa8>
  66:	4394                	lw	a3,0(a5)
  68:	0791                	addi	a5,a5,4
  6a:	843a                	mv	s0,a4
  6c:	0705                	addi	a4,a4,1
  6e:	fec6cce3          	blt	a3,a2,66 <qsrt+0x50>
  72:	01065c63          	bge	a2,a6,8a <qsrt+0x74>
  76:	01d587b3          	add	a5,a1,t4
  7a:	078a                	slli	a5,a5,0x2
  7c:	97c6                	add	a5,a5,a7
  7e:	0007a803          	lw	a6,0(a5)
  82:	17f1                	addi	a5,a5,-4
  84:	15fd                	addi	a1,a1,-1
  86:	ff064ce3          	blt	a2,a6,7e <qsrt+0x68>
  8a:	fa85cae3          	blt	a1,s0,3e <qsrt+0x28>
  8e:	00241313          	slli	t1,s0,0x2
  92:	00259e13          	slli	t3,a1,0x2
  96:	9346                	add	t1,t1,a7
  98:	01032023          	sw	a6,0(t1)
  9c:	9e46                	add	t3,t3,a7
  9e:	00de2023          	sw	a3,0(t3)
  a2:	0405                	addi	s0,s0,1
  a4:	15fd                	addi	a1,a1,-1
  a6:	f885dee3          	bge	a1,s0,42 <qsrt+0x2c>
  aa:	00b54d63          	blt	a0,a1,c4 <qsrt+0xae>
  ae:	00944e63          	blt	s0,s1,ca <qsrt+0xb4>
  b2:	40b2                	lw	ra,12(sp)
  b4:	4422                	lw	s0,8(sp)
  b6:	4492                	lw	s1,4(sp)
  b8:	4501                	li	a0,0
  ba:	0141                	addi	sp,sp,16
  bc:	8082                	ret
  be:	fb064ce3          	blt	a2,a6,76 <qsrt+0x60>
  c2:	bfd1                	j	96 <qsrt+0x80>
  c4:	3f89                	jal	16 <qsrt>
  c6:	fe9456e3          	bge	s0,s1,b2 <qsrt+0x9c>
  ca:	85a6                	mv	a1,s1
  cc:	8522                	mv	a0,s0
  ce:	37a1                	jal	16 <qsrt>
  d0:	40b2                	lw	ra,12(sp)
  d2:	4422                	lw	s0,8(sp)
  d4:	4492                	lw	s1,4(sp)
  d6:	4501                	li	a0,0
  d8:	0141                	addi	sp,sp,16
  da:	8082                	ret

000000dc <__divsi3>:
  dc:	06054063          	bltz	a0,13c <__umodsi3+0x10>
  e0:	0605c663          	bltz	a1,14c <__umodsi3+0x20>

000000e4 <__hidden___udivsi3>:
  e4:	00058613          	mv	a2,a1
  e8:	00050593          	mv	a1,a0
  ec:	fff00513          	li	a0,-1
  f0:	02060c63          	beqz	a2,128 <__hidden___udivsi3+0x44>
  f4:	00100693          	li	a3,1
  f8:	00b67a63          	bgeu	a2,a1,10c <__hidden___udivsi3+0x28>
  fc:	00c05863          	blez	a2,10c <__hidden___udivsi3+0x28>
 100:	00161613          	slli	a2,a2,0x1
 104:	00169693          	slli	a3,a3,0x1
 108:	feb66ae3          	bltu	a2,a1,fc <__hidden___udivsi3+0x18>
 10c:	00000513          	li	a0,0
 110:	00c5e663          	bltu	a1,a2,11c <__hidden___udivsi3+0x38>
 114:	40c585b3          	sub	a1,a1,a2
 118:	00d56533          	or	a0,a0,a3
 11c:	0016d693          	srli	a3,a3,0x1
 120:	00165613          	srli	a2,a2,0x1
 124:	fe0696e3          	bnez	a3,110 <__hidden___udivsi3+0x2c>
 128:	00008067          	ret

0000012c <__umodsi3>:
 12c:	00008293          	mv	t0,ra
 130:	fb5ff0ef          	jal	e4 <__hidden___udivsi3>
 134:	00058513          	mv	a0,a1
 138:	00028067          	jr	t0
 13c:	40a00533          	neg	a0,a0
 140:	00b04863          	bgtz	a1,150 <__umodsi3+0x24>
 144:	40b005b3          	neg	a1,a1
 148:	f9dff06f          	j	e4 <__hidden___udivsi3>
 14c:	40b005b3          	neg	a1,a1
 150:	00008293          	mv	t0,ra
 154:	f91ff0ef          	jal	e4 <__hidden___udivsi3>
 158:	40a00533          	neg	a0,a0
 15c:	00028067          	jr	t0

00000160 <__modsi3>:
 160:	00008293          	mv	t0,ra
 164:	0005ca63          	bltz	a1,178 <__modsi3+0x18>
 168:	00054c63          	bltz	a0,180 <__modsi3+0x20>
 16c:	f79ff0ef          	jal	e4 <__hidden___udivsi3>
 170:	00058513          	mv	a0,a1
 174:	00028067          	jr	t0
 178:	40b005b3          	neg	a1,a1
 17c:	fe0558e3          	bgez	a0,16c <__modsi3+0xc>
 180:	40a00533          	neg	a0,a0
 184:	f61ff0ef          	jal	e4 <__hidden___udivsi3>
 188:	40b00533          	neg	a0,a1
 18c:	00028067          	jr	t0

Disassembly of section .text.startup:

00000190 <main>:
 190:	715d                	addi	sp,sp,-80
 192:	d85a                	sw	s6,48(sp)
 194:	27c02583          	lw	a1,636(zero) # 27c <n>
 198:	c686                	sw	ra,76(sp)
 19a:	00b05963          	blez	a1,1ac <main+0x1c>
 19e:	28400713          	li	a4,644
 1a2:	87ae                	mv	a5,a1
 1a4:	c31c                	sw	a5,0(a4)
 1a6:	17fd                	addi	a5,a5,-1
 1a8:	0711                	addi	a4,a4,4
 1aa:	ffed                	bnez	a5,1a4 <main+0x14>
 1ac:	4505                	li	a0,1
 1ae:	35a5                	jal	16 <qsrt>
 1b0:	27c02783          	lw	a5,636(zero) # 27c <n>
 1b4:	0af05563          	blez	a5,25e <main+0xce>
 1b8:	dc52                	sw	s4,56(sp)
 1ba:	c0ca                	sw	s2,64(sp)
 1bc:	de4e                	sw	s3,60(sp)
 1be:	da56                	sw	s5,52(sp)
 1c0:	d65e                	sw	s7,44(sp)
 1c2:	ce6e                	sw	s11,28(sp)
 1c4:	c4a2                	sw	s0,72(sp)
 1c6:	c2a6                	sw	s1,68(sp)
 1c8:	d462                	sw	s8,40(sp)
 1ca:	d266                	sw	s9,36(sp)
 1cc:	d06a                	sw	s10,32(sp)
 1ce:	28400a13          	li	s4,644
 1d2:	4a85                	li	s5,1
 1d4:	00410d93          	addi	s11,sp,4
 1d8:	49a5                	li	s3,9
 1da:	00030937          	lui	s2,0x30
 1de:	02000b93          	li	s7,32
 1e2:	000a2403          	lw	s0,0(s4)
 1e6:	4c81                	li	s9,0
 1e8:	08044563          	bltz	s0,272 <main+0xe2>
 1ec:	4d01                	li	s10,0
 1ee:	45a9                	li	a1,10
 1f0:	8522                	mv	a0,s0
 1f2:	37bd                	jal	160 <__modsi3>
 1f4:	84ea                	mv	s1,s10
 1f6:	0d05                	addi	s10,s10,1
 1f8:	01ad8c33          	add	s8,s11,s10
 1fc:	03050513          	addi	a0,a0,48
 200:	feac0fa3          	sb	a0,-1(s8)
 204:	45a9                	li	a1,10
 206:	8522                	mv	a0,s0
 208:	8c22                	mv	s8,s0
 20a:	3dc9                	jal	dc <__divsi3>
 20c:	842a                	mv	s0,a0
 20e:	ff89c0e3          	blt	s3,s8,1ee <main+0x5e>
 212:	000c8963          	beqz	s9,224 <main+0x94>
 216:	002d07b3          	add	a5,s10,sp
 21a:	02d00713          	li	a4,45
 21e:	00e78223          	sb	a4,4(a5)
 222:	84ea                	mv	s1,s10
 224:	009d87b3          	add	a5,s11,s1
 228:	0007c683          	lbu	a3,0(a5)
 22c:	873e                	mv	a4,a5
 22e:	17fd                	addi	a5,a5,-1
 230:	00d90023          	sb	a3,0(s2) # 30000 <__heap_start+0x25000>
 234:	feed9ae3          	bne	s11,a4,228 <main+0x98>
 238:	01790023          	sb	s7,0(s2)
 23c:	27c02783          	lw	a5,636(zero) # 27c <n>
 240:	0a85                	addi	s5,s5,1
 242:	0a11                	addi	s4,s4,4
 244:	f957dfe3          	bge	a5,s5,1e2 <main+0x52>
 248:	4426                	lw	s0,72(sp)
 24a:	4496                	lw	s1,68(sp)
 24c:	4906                	lw	s2,64(sp)
 24e:	59f2                	lw	s3,60(sp)
 250:	5a62                	lw	s4,56(sp)
 252:	5ad2                	lw	s5,52(sp)
 254:	5bb2                	lw	s7,44(sp)
 256:	5c22                	lw	s8,40(sp)
 258:	5c92                	lw	s9,36(sp)
 25a:	5d02                	lw	s10,32(sp)
 25c:	4df2                	lw	s11,28(sp)
 25e:	000307b7          	lui	a5,0x30
 262:	4729                	li	a4,10
 264:	00e78023          	sb	a4,0(a5) # 30000 <__heap_start+0x25000>
 268:	40b6                	lw	ra,76(sp)
 26a:	5b42                	lw	s6,48(sp)
 26c:	4501                	li	a0,0
 26e:	6161                	addi	sp,sp,80
 270:	8082                	ret
 272:	40800433          	neg	s0,s0
 276:	4c85                	li	s9,1
 278:	bf95                	j	1ec <main+0x5c>
