
/app/testcase/sim/003_looper.elf:     file format elf32-littleriscv


Disassembly of section .text:

00000000 <_start>:
   0:	00020137          	lui	sp,0x20
   4:	0f4000ef          	jal	f8 <main>
   8:	0ff00513          	li	a0,255
   c:	000306b7          	lui	a3,0x30
  10:	00a68223          	sb	a0,4(a3) # 30004 <__heap_start+0x2f004>
  14:	bfe5                	j	c <_start+0xc>

00000016 <work>:
  16:	1ac02783          	lw	a5,428(zero) # 1ac <n>
  1a:	cf99                	beqz	a5,38 <work+0x22>
  1c:	00279713          	slli	a4,a5,0x2
  20:	973e                	add	a4,a4,a5
  22:	4605                	li	a2,1
  24:	1a802783          	lw	a5,424(zero) # 1a8 <sum>
  28:	00e66963          	bltu	a2,a4,3a <work+0x24>
  2c:	3b800737          	lui	a4,0x3b800
  30:	9732                	add	a4,a4,a2
  32:	97ba                	add	a5,a5,a4
  34:	1af02423          	sw	a5,424(zero) # 1a8 <sum>
  38:	8082                	ret
  3a:	b2800737          	lui	a4,0xb2800
  3e:	070d                	addi	a4,a4,3 # b2800003 <__heap_start+0xb27ff003>
  40:	97ba                	add	a5,a5,a4
  42:	bfcd                	j	34 <work+0x1e>

00000044 <__divsi3>:
  44:	06054063          	bltz	a0,a4 <__umodsi3+0x10>
  48:	0605c663          	bltz	a1,b4 <__umodsi3+0x20>

0000004c <__hidden___udivsi3>:
  4c:	00058613          	mv	a2,a1
  50:	00050593          	mv	a1,a0
  54:	fff00513          	li	a0,-1
  58:	02060c63          	beqz	a2,90 <__hidden___udivsi3+0x44>
  5c:	00100693          	li	a3,1
  60:	00b67a63          	bgeu	a2,a1,74 <__hidden___udivsi3+0x28>
  64:	00c05863          	blez	a2,74 <__hidden___udivsi3+0x28>
  68:	00161613          	slli	a2,a2,0x1
  6c:	00169693          	slli	a3,a3,0x1
  70:	feb66ae3          	bltu	a2,a1,64 <__hidden___udivsi3+0x18>
  74:	00000513          	li	a0,0
  78:	00c5e663          	bltu	a1,a2,84 <__hidden___udivsi3+0x38>
  7c:	40c585b3          	sub	a1,a1,a2
  80:	00d56533          	or	a0,a0,a3
  84:	0016d693          	srli	a3,a3,0x1
  88:	00165613          	srli	a2,a2,0x1
  8c:	fe0696e3          	bnez	a3,78 <__hidden___udivsi3+0x2c>
  90:	00008067          	ret

00000094 <__umodsi3>:
  94:	00008293          	mv	t0,ra
  98:	fb5ff0ef          	jal	4c <__hidden___udivsi3>
  9c:	00058513          	mv	a0,a1
  a0:	00028067          	jr	t0
  a4:	40a00533          	neg	a0,a0
  a8:	00b04863          	bgtz	a1,b8 <__umodsi3+0x24>
  ac:	40b005b3          	neg	a1,a1
  b0:	f9dff06f          	j	4c <__hidden___udivsi3>
  b4:	40b005b3          	neg	a1,a1
  b8:	00008293          	mv	t0,ra
  bc:	f91ff0ef          	jal	4c <__hidden___udivsi3>
  c0:	40a00533          	neg	a0,a0
  c4:	00028067          	jr	t0

000000c8 <__modsi3>:
  c8:	00008293          	mv	t0,ra
  cc:	0005ca63          	bltz	a1,e0 <__modsi3+0x18>
  d0:	00054c63          	bltz	a0,e8 <__modsi3+0x20>
  d4:	f79ff0ef          	jal	4c <__hidden___udivsi3>
  d8:	00058513          	mv	a0,a1
  dc:	00028067          	jr	t0
  e0:	40b005b3          	neg	a1,a1
  e4:	fe0558e3          	bgez	a0,d4 <__modsi3+0xc>
  e8:	40a00533          	neg	a0,a0
  ec:	f61ff0ef          	jal	4c <__hidden___udivsi3>
  f0:	40b00533          	neg	a0,a1
  f4:	00028067          	jr	t0

Disassembly of section .text.startup:

000000f8 <main>:
  f8:	7179                	addi	sp,sp,-48
  fa:	03200793          	li	a5,50
  fe:	d422                	sw	s0,40(sp)
 100:	1af02623          	sw	a5,428(zero) # 1ac <n>
 104:	d606                	sw	ra,44(sp)
 106:	c85a                	sw	s6,16(sp)
 108:	d226                	sw	s1,36(sp)
 10a:	d04a                	sw	s2,32(sp)
 10c:	ce4e                	sw	s3,28(sp)
 10e:	cc52                	sw	s4,24(sp)
 110:	ca56                	sw	s5,20(sp)
 112:	3711                	jal	16 <work>
 114:	009897b7          	lui	a5,0x989
 118:	68078793          	addi	a5,a5,1664 # 989680 <__heap_start+0x988680>
 11c:	1af02623          	sw	a5,428(zero) # 1ac <n>
 120:	3ddd                	jal	16 <work>
 122:	1a802403          	lw	s0,424(zero) # 1a8 <sum>
 126:	4b01                	li	s6,0
 128:	00045563          	bgez	s0,132 <main+0x3a>
 12c:	40800433          	neg	s0,s0
 130:	4b05                	li	s6,1
 132:	4901                	li	s2,0
 134:	00410993          	addi	s3,sp,4 # 20004 <__heap_start+0x1f004>
 138:	4aa5                	li	s5,9
 13a:	45a9                	li	a1,10
 13c:	8522                	mv	a0,s0
 13e:	3769                	jal	c8 <__modsi3>
 140:	84ca                	mv	s1,s2
 142:	0905                	addi	s2,s2,1
 144:	01298a33          	add	s4,s3,s2
 148:	03050513          	addi	a0,a0,48
 14c:	feaa0fa3          	sb	a0,-1(s4)
 150:	45a9                	li	a1,10
 152:	8522                	mv	a0,s0
 154:	8a22                	mv	s4,s0
 156:	35fd                	jal	44 <__divsi3>
 158:	842a                	mv	s0,a0
 15a:	ff4ac0e3          	blt	s5,s4,13a <main+0x42>
 15e:	000b0a63          	beqz	s6,172 <main+0x7a>
 162:	01090793          	addi	a5,s2,16
 166:	978a                	add	a5,a5,sp
 168:	02d00713          	li	a4,45
 16c:	84ca                	mv	s1,s2
 16e:	fee78a23          	sb	a4,-12(a5)
 172:	009987b3          	add	a5,s3,s1
 176:	00030637          	lui	a2,0x30
 17a:	0007c683          	lbu	a3,0(a5)
 17e:	873e                	mv	a4,a5
 180:	17fd                	addi	a5,a5,-1
 182:	00d60023          	sb	a3,0(a2) # 30000 <__heap_start+0x2f000>
 186:	fee99ae3          	bne	s3,a4,17a <main+0x82>
 18a:	47a9                	li	a5,10
 18c:	00f60023          	sb	a5,0(a2)
 190:	50b2                	lw	ra,44(sp)
 192:	5422                	lw	s0,40(sp)
 194:	5492                	lw	s1,36(sp)
 196:	5902                	lw	s2,32(sp)
 198:	49f2                	lw	s3,28(sp)
 19a:	4a62                	lw	s4,24(sp)
 19c:	4ad2                	lw	s5,20(sp)
 19e:	4b42                	lw	s6,16(sp)
 1a0:	4501                	li	a0,0
 1a2:	6145                	addi	sp,sp,48
 1a4:	8082                	ret
