
/app/testcase/sim/004_gcd.elf:     file format elf32-littleriscv


Disassembly of section .text:

00000000 <_start>:
   0:	00020137          	lui	sp,0x20
   4:	16c000ef          	jal	170 <main>
   8:	0ff00513          	li	a0,255
   c:	000306b7          	lui	a3,0x30
  10:	00a68223          	sb	a0,4(a3) # 30004 <__heap_start+0x2f004>
  14:	bfe5                	j	c <_start+0xc>

00000016 <outl>:
  16:	7179                	addi	sp,sp,-48
  18:	d422                	sw	s0,40(sp)
  1a:	c85a                	sw	s6,16(sp)
  1c:	d606                	sw	ra,44(sp)
  1e:	d226                	sw	s1,36(sp)
  20:	d04a                	sw	s2,32(sp)
  22:	ce4e                	sw	s3,28(sp)
  24:	cc52                	sw	s4,24(sp)
  26:	ca56                	sw	s5,20(sp)
  28:	842a                	mv	s0,a0
  2a:	4b01                	li	s6,0
  2c:	00055563          	bgez	a0,36 <outl+0x20>
  30:	40a00433          	neg	s0,a0
  34:	4b05                	li	s6,1
  36:	4901                	li	s2,0
  38:	00410993          	addi	s3,sp,4 # 20004 <__heap_start+0x1f004>
  3c:	4aa5                	li	s5,9
  3e:	45a9                	li	a1,10
  40:	8522                	mv	a0,s0
  42:	28fd                	jal	140 <__modsi3>
  44:	84ca                	mv	s1,s2
  46:	0905                	addi	s2,s2,1
  48:	01298a33          	add	s4,s3,s2
  4c:	03050513          	addi	a0,a0,48
  50:	feaa0fa3          	sb	a0,-1(s4)
  54:	45a9                	li	a1,10
  56:	8522                	mv	a0,s0
  58:	8a22                	mv	s4,s0
  5a:	208d                	jal	bc <__divsi3>
  5c:	842a                	mv	s0,a0
  5e:	ff4ac0e3          	blt	s5,s4,3e <outl+0x28>
  62:	000b0a63          	beqz	s6,76 <outl+0x60>
  66:	01090793          	addi	a5,s2,16
  6a:	978a                	add	a5,a5,sp
  6c:	02d00713          	li	a4,45
  70:	84ca                	mv	s1,s2
  72:	fee78a23          	sb	a4,-12(a5)
  76:	009987b3          	add	a5,s3,s1
  7a:	00030637          	lui	a2,0x30
  7e:	0007c683          	lbu	a3,0(a5)
  82:	873e                	mv	a4,a5
  84:	17fd                	addi	a5,a5,-1
  86:	00d60023          	sb	a3,0(a2) # 30000 <__heap_start+0x2f000>
  8a:	fee99ae3          	bne	s3,a4,7e <outl+0x68>
  8e:	50b2                	lw	ra,44(sp)
  90:	5422                	lw	s0,40(sp)
  92:	5492                	lw	s1,36(sp)
  94:	5902                	lw	s2,32(sp)
  96:	49f2                	lw	s3,28(sp)
  98:	4a62                	lw	s4,24(sp)
  9a:	4ad2                	lw	s5,20(sp)
  9c:	4b42                	lw	s6,16(sp)
  9e:	6145                	addi	sp,sp,48
  a0:	8082                	ret

000000a2 <gcd>:
  a2:	1141                	addi	sp,sp,-16
  a4:	c606                	sw	ra,12(sp)
  a6:	c422                	sw	s0,8(sp)
  a8:	842e                	mv	s0,a1
  aa:	2859                	jal	140 <__modsi3>
  ac:	85aa                	mv	a1,a0
  ae:	8522                	mv	a0,s0
  b0:	fde5                	bnez	a1,a8 <gcd+0x6>
  b2:	40b2                	lw	ra,12(sp)
  b4:	4422                	lw	s0,8(sp)
  b6:	0141                	addi	sp,sp,16
  b8:	8082                	ret
	...

000000bc <__divsi3>:
  bc:	06054063          	bltz	a0,11c <__umodsi3+0x10>
  c0:	0605c663          	bltz	a1,12c <__umodsi3+0x20>

000000c4 <__hidden___udivsi3>:
  c4:	00058613          	mv	a2,a1
  c8:	00050593          	mv	a1,a0
  cc:	fff00513          	li	a0,-1
  d0:	02060c63          	beqz	a2,108 <__hidden___udivsi3+0x44>
  d4:	00100693          	li	a3,1
  d8:	00b67a63          	bgeu	a2,a1,ec <__hidden___udivsi3+0x28>
  dc:	00c05863          	blez	a2,ec <__hidden___udivsi3+0x28>
  e0:	00161613          	slli	a2,a2,0x1
  e4:	00169693          	slli	a3,a3,0x1
  e8:	feb66ae3          	bltu	a2,a1,dc <__hidden___udivsi3+0x18>
  ec:	00000513          	li	a0,0
  f0:	00c5e663          	bltu	a1,a2,fc <__hidden___udivsi3+0x38>
  f4:	40c585b3          	sub	a1,a1,a2
  f8:	00d56533          	or	a0,a0,a3
  fc:	0016d693          	srli	a3,a3,0x1
 100:	00165613          	srli	a2,a2,0x1
 104:	fe0696e3          	bnez	a3,f0 <__hidden___udivsi3+0x2c>
 108:	00008067          	ret

0000010c <__umodsi3>:
 10c:	00008293          	mv	t0,ra
 110:	fb5ff0ef          	jal	c4 <__hidden___udivsi3>
 114:	00058513          	mv	a0,a1
 118:	00028067          	jr	t0
 11c:	40a00533          	neg	a0,a0
 120:	00b04863          	bgtz	a1,130 <__umodsi3+0x24>
 124:	40b005b3          	neg	a1,a1
 128:	f9dff06f          	j	c4 <__hidden___udivsi3>
 12c:	40b005b3          	neg	a1,a1
 130:	00008293          	mv	t0,ra
 134:	f91ff0ef          	jal	c4 <__hidden___udivsi3>
 138:	40a00533          	neg	a0,a0
 13c:	00028067          	jr	t0

00000140 <__modsi3>:
 140:	00008293          	mv	t0,ra
 144:	0005ca63          	bltz	a1,158 <__modsi3+0x18>
 148:	00054c63          	bltz	a0,160 <__modsi3+0x20>
 14c:	f79ff0ef          	jal	c4 <__hidden___udivsi3>
 150:	00058513          	mv	a0,a1
 154:	00028067          	jr	t0
 158:	40b005b3          	neg	a1,a1
 15c:	fe0558e3          	bgez	a0,14c <__modsi3+0xc>
 160:	40a00533          	neg	a0,a0
 164:	f61ff0ef          	jal	c4 <__hidden___udivsi3>
 168:	40b00533          	neg	a0,a1
 16c:	00028067          	jr	t0

Disassembly of section .text.startup:

00000170 <main>:
 170:	1141                	addi	sp,sp,-16
 172:	4505                	li	a0,1
 174:	c606                	sw	ra,12(sp)
 176:	c422                	sw	s0,8(sp)
 178:	c226                	sw	s1,4(sp)
 17a:	00030437          	lui	s0,0x30
 17e:	3d61                	jal	16 <outl>
 180:	44a9                	li	s1,10
 182:	40500513          	li	a0,1029
 186:	00940023          	sb	s1,0(s0) # 30000 <__heap_start+0x2f000>
 18a:	3571                	jal	16 <outl>
 18c:	55800593          	li	a1,1368
 190:	00940023          	sb	s1,0(s0)
 194:	60300513          	li	a0,1539
 198:	842e                	mv	s0,a1
 19a:	375d                	jal	140 <__modsi3>
 19c:	85aa                	mv	a1,a0
 19e:	8522                	mv	a0,s0
 1a0:	fde5                	bnez	a1,198 <main+0x28>
 1a2:	3d95                	jal	16 <outl>
 1a4:	000307b7          	lui	a5,0x30
 1a8:	4729                	li	a4,10
 1aa:	00e78023          	sb	a4,0(a5) # 30000 <__heap_start+0x2f000>
 1ae:	40b2                	lw	ra,12(sp)
 1b0:	4422                	lw	s0,8(sp)
 1b2:	4492                	lw	s1,4(sp)
 1b4:	4501                	li	a0,0
 1b6:	0141                	addi	sp,sp,16
 1b8:	8082                	ret
