
/app/testcase/sim/007_hanoi.elf:     file format elf32-littleriscv


Disassembly of section .text:

00000000 <_start>:
   0:	00020137          	lui	sp,0x20
   4:	1f8000ef          	jal	1fc <main>
   8:	0ff00513          	li	a0,255
   c:	000306b7          	lui	a3,0x30
  10:	00a68223          	sb	a0,4(a3) # 30004 <__heap_start+0x2f004>
  14:	bfe5                	j	c <_start+0xc>

00000016 <cd>:
  16:	7179                	addi	sp,sp,-48
  18:	d226                	sw	s1,36(sp)
  1a:	ca56                	sw	s5,20(sp)
  1c:	c65e                	sw	s7,12(sp)
  1e:	d606                	sw	ra,44(sp)
  20:	d04a                	sw	s2,32(sp)
  22:	ce4e                	sw	s3,28(sp)
  24:	cc52                	sw	s4,24(sp)
  26:	c85a                	sw	s6,16(sp)
  28:	4b85                	li	s7,1
  2a:	8aae                	mv	s5,a1
  2c:	84b6                	mv	s1,a3
  2e:	11750663          	beq	a0,s7,13a <cd+0x124>
  32:	d422                	sw	s0,40(sp)
  34:	c462                	sw	s8,8(sp)
  36:	c266                	sw	s9,4(sp)
  38:	8b2a                	mv	s6,a0
  3a:	8932                	mv	s2,a2
  3c:	2bc00a13          	li	s4,700
  40:	2c400993          	li	s3,708
  44:	8c2a                	mv	s8,a0
  46:	00030437          	lui	s0,0x30
  4a:	4ca9                	li	s9,10
  4c:	1c7d                	addi	s8,s8,-1
  4e:	8562                	mv	a0,s8
  50:	86ca                	mv	a3,s2
  52:	8626                	mv	a2,s1
  54:	85d6                	mv	a1,s5
  56:	37c1                	jal	16 <cd>
  58:	872a                	mv	a4,a0
  5a:	8852                	mv	a6,s4
  5c:	06d00793          	li	a5,109
  60:	00f40023          	sb	a5,0(s0) # 30000 <__heap_start+0x2f000>
  64:	00184783          	lbu	a5,1(a6)
  68:	0805                	addi	a6,a6,1
  6a:	fbfd                	bnez	a5,60 <cd+0x4a>
  6c:	000ac783          	lbu	a5,0(s5)
  70:	cb81                	beqz	a5,80 <cd+0x6a>
  72:	8856                	mv	a6,s5
  74:	00f40023          	sb	a5,0(s0)
  78:	00184783          	lbu	a5,1(a6)
  7c:	0805                	addi	a6,a6,1
  7e:	fbfd                	bnez	a5,74 <cd+0x5e>
  80:	884e                	mv	a6,s3
  82:	02000793          	li	a5,32
  86:	00f40023          	sb	a5,0(s0)
  8a:	00184783          	lbu	a5,1(a6)
  8e:	0805                	addi	a6,a6,1
  90:	fbfd                	bnez	a5,86 <cd+0x70>
  92:	0004c783          	lbu	a5,0(s1)
  96:	cb81                	beqz	a5,a6 <cd+0x90>
  98:	8826                	mv	a6,s1
  9a:	00f40023          	sb	a5,0(s0)
  9e:	00184783          	lbu	a5,1(a6)
  a2:	0805                	addi	a6,a6,1
  a4:	fbfd                	bnez	a5,9a <cd+0x84>
  a6:	01940023          	sb	s9,0(s0)
  aa:	017c0663          	beq	s8,s7,b6 <cd+0xa0>
  ae:	87d6                	mv	a5,s5
  b0:	8aca                	mv	s5,s2
  b2:	893e                	mv	s2,a5
  b4:	bf61                	j	4c <cd+0x36>
  b6:	5422                	lw	s0,40(sp)
  b8:	4c22                	lw	s8,8(sp)
  ba:	4c92                	lw	s9,4(sp)
  bc:	1b7d                	addi	s6,s6,-1
  be:	86d2                	mv	a3,s4
  c0:	06d00793          	li	a5,109
  c4:	00030637          	lui	a2,0x30
  c8:	00f60023          	sb	a5,0(a2) # 30000 <__heap_start+0x2f000>
  cc:	0016c783          	lbu	a5,1(a3)
  d0:	0685                	addi	a3,a3,1
  d2:	fbfd                	bnez	a5,c8 <cd+0xb2>
  d4:	00094783          	lbu	a5,0(s2)
  d8:	cb89                	beqz	a5,ea <cd+0xd4>
  da:	000306b7          	lui	a3,0x30
  de:	00f68023          	sb	a5,0(a3) # 30000 <__heap_start+0x2f000>
  e2:	00194783          	lbu	a5,1(s2)
  e6:	0905                	addi	s2,s2,1
  e8:	fbfd                	bnez	a5,de <cd+0xc8>
  ea:	86ce                	mv	a3,s3
  ec:	02000793          	li	a5,32
  f0:	00030637          	lui	a2,0x30
  f4:	00f60023          	sb	a5,0(a2) # 30000 <__heap_start+0x2f000>
  f8:	0016c783          	lbu	a5,1(a3)
  fc:	0685                	addi	a3,a3,1
  fe:	fbfd                	bnez	a5,f4 <cd+0xde>
 100:	0004c783          	lbu	a5,0(s1)
 104:	cb89                	beqz	a5,116 <cd+0x100>
 106:	000306b7          	lui	a3,0x30
 10a:	00f68023          	sb	a5,0(a3) # 30000 <__heap_start+0x2f000>
 10e:	0014c783          	lbu	a5,1(s1)
 112:	0485                	addi	s1,s1,1
 114:	fbfd                	bnez	a5,10a <cd+0xf4>
 116:	000307b7          	lui	a5,0x30
 11a:	46a9                	li	a3,10
 11c:	00d78023          	sb	a3,0(a5) # 30000 <__heap_start+0x2f000>
 120:	50b2                	lw	ra,44(sp)
 122:	0705                	addi	a4,a4,1
 124:	5492                	lw	s1,36(sp)
 126:	5902                	lw	s2,32(sp)
 128:	49f2                	lw	s3,28(sp)
 12a:	4a62                	lw	s4,24(sp)
 12c:	4ad2                	lw	s5,20(sp)
 12e:	4bb2                	lw	s7,12(sp)
 130:	01670533          	add	a0,a4,s6
 134:	4b42                	lw	s6,16(sp)
 136:	6145                	addi	sp,sp,48
 138:	8082                	ret
 13a:	892e                	mv	s2,a1
 13c:	2bc00a13          	li	s4,700
 140:	2c400993          	li	s3,708
 144:	4b01                	li	s6,0
 146:	bfa5                	j	be <cd+0xa8>

00000148 <__divsi3>:
 148:	06054063          	bltz	a0,1a8 <__umodsi3+0x10>
 14c:	0605c663          	bltz	a1,1b8 <__umodsi3+0x20>

00000150 <__hidden___udivsi3>:
 150:	00058613          	mv	a2,a1
 154:	00050593          	mv	a1,a0
 158:	fff00513          	li	a0,-1
 15c:	02060c63          	beqz	a2,194 <__hidden___udivsi3+0x44>
 160:	00100693          	li	a3,1
 164:	00b67a63          	bgeu	a2,a1,178 <__hidden___udivsi3+0x28>
 168:	00c05863          	blez	a2,178 <__hidden___udivsi3+0x28>
 16c:	00161613          	slli	a2,a2,0x1
 170:	00169693          	slli	a3,a3,0x1
 174:	feb66ae3          	bltu	a2,a1,168 <__hidden___udivsi3+0x18>
 178:	00000513          	li	a0,0
 17c:	00c5e663          	bltu	a1,a2,188 <__hidden___udivsi3+0x38>
 180:	40c585b3          	sub	a1,a1,a2
 184:	00d56533          	or	a0,a0,a3
 188:	0016d693          	srli	a3,a3,0x1
 18c:	00165613          	srli	a2,a2,0x1
 190:	fe0696e3          	bnez	a3,17c <__hidden___udivsi3+0x2c>
 194:	00008067          	ret

00000198 <__umodsi3>:
 198:	00008293          	mv	t0,ra
 19c:	fb5ff0ef          	jal	150 <__hidden___udivsi3>
 1a0:	00058513          	mv	a0,a1
 1a4:	00028067          	jr	t0
 1a8:	40a00533          	neg	a0,a0
 1ac:	00b04863          	bgtz	a1,1bc <__umodsi3+0x24>
 1b0:	40b005b3          	neg	a1,a1
 1b4:	f9dff06f          	j	150 <__hidden___udivsi3>
 1b8:	40b005b3          	neg	a1,a1
 1bc:	00008293          	mv	t0,ra
 1c0:	f91ff0ef          	jal	150 <__hidden___udivsi3>
 1c4:	40a00533          	neg	a0,a0
 1c8:	00028067          	jr	t0

000001cc <__modsi3>:
 1cc:	00008293          	mv	t0,ra
 1d0:	0005ca63          	bltz	a1,1e4 <__modsi3+0x18>
 1d4:	00054c63          	bltz	a0,1ec <__modsi3+0x20>
 1d8:	f79ff0ef          	jal	150 <__hidden___udivsi3>
 1dc:	00058513          	mv	a0,a1
 1e0:	00028067          	jr	t0
 1e4:	40b005b3          	neg	a1,a1
 1e8:	fe0558e3          	bgez	a0,1d8 <__modsi3+0xc>
 1ec:	40a00533          	neg	a0,a0
 1f0:	f61ff0ef          	jal	150 <__hidden___udivsi3>
 1f4:	40b00533          	neg	a0,a1
 1f8:	00028067          	jr	t0

Disassembly of section .text.startup:

000001fc <main>:
 1fc:	715d                	addi	sp,sp,-80
 1fe:	04100893          	li	a7,65
 202:	04200813          	li	a6,66
 206:	04300793          	li	a5,67
 20a:	4701                	li	a4,0
 20c:	0874                	addi	a3,sp,28
 20e:	0850                	addi	a2,sp,20
 210:	006c                	addi	a1,sp,12
 212:	4529                	li	a0,10
 214:	c4a2                	sw	s0,72(sp)
 216:	d85a                	sw	s6,48(sp)
 218:	c686                	sw	ra,76(sp)
 21a:	c2a6                	sw	s1,68(sp)
 21c:	c0ca                	sw	s2,64(sp)
 21e:	de4e                	sw	s3,60(sp)
 220:	dc52                	sw	s4,56(sp)
 222:	da56                	sw	s5,52(sp)
 224:	00010823          	sb	zero,16(sp) # 20010 <__heap_start+0x1f010>
 228:	00010c23          	sb	zero,24(sp)
 22c:	02010023          	sb	zero,32(sp)
 230:	c646                	sw	a7,12(sp)
 232:	ca42                	sw	a6,20(sp)
 234:	ce3e                	sw	a5,28(sp)
 236:	33c5                	jal	16 <cd>
 238:	842a                	mv	s0,a0
 23a:	4b01                	li	s6,0
 23c:	00055563          	bgez	a0,246 <main+0x4a>
 240:	40a00433          	neg	s0,a0
 244:	4b05                	li	s6,1
 246:	4901                	li	s2,0
 248:	02410993          	addi	s3,sp,36
 24c:	4aa5                	li	s5,9
 24e:	45a9                	li	a1,10
 250:	8522                	mv	a0,s0
 252:	3fad                	jal	1cc <__modsi3>
 254:	84ca                	mv	s1,s2
 256:	0905                	addi	s2,s2,1
 258:	01298a33          	add	s4,s3,s2
 25c:	03050513          	addi	a0,a0,48
 260:	feaa0fa3          	sb	a0,-1(s4)
 264:	45a9                	li	a1,10
 266:	8522                	mv	a0,s0
 268:	8a22                	mv	s4,s0
 26a:	3df9                	jal	148 <__divsi3>
 26c:	842a                	mv	s0,a0
 26e:	ff4ac0e3          	blt	s5,s4,24e <main+0x52>
 272:	000b0a63          	beqz	s6,286 <main+0x8a>
 276:	03090793          	addi	a5,s2,48
 27a:	978a                	add	a5,a5,sp
 27c:	02d00713          	li	a4,45
 280:	84ca                	mv	s1,s2
 282:	fee78a23          	sb	a4,-12(a5)
 286:	009987b3          	add	a5,s3,s1
 28a:	00030637          	lui	a2,0x30
 28e:	0007c683          	lbu	a3,0(a5)
 292:	873e                	mv	a4,a5
 294:	17fd                	addi	a5,a5,-1
 296:	00d60023          	sb	a3,0(a2) # 30000 <__heap_start+0x2f000>
 29a:	fee99ae3          	bne	s3,a4,28e <main+0x92>
 29e:	47a9                	li	a5,10
 2a0:	00f60023          	sb	a5,0(a2)
 2a4:	40b6                	lw	ra,76(sp)
 2a6:	4426                	lw	s0,72(sp)
 2a8:	4496                	lw	s1,68(sp)
 2aa:	4906                	lw	s2,64(sp)
 2ac:	59f2                	lw	s3,60(sp)
 2ae:	5a62                	lw	s4,56(sp)
 2b0:	5ad2                	lw	s5,52(sp)
 2b2:	5b42                	lw	s6,48(sp)
 2b4:	4501                	li	a0,0
 2b6:	6161                	addi	sp,sp,80
 2b8:	8082                	ret
