
/app/testcase/sim/100_magic.elf:     file format elf32-littleriscv


Disassembly of section .text:

00000000 <_start>:
   0:	00020137          	lui	sp,0x20
   4:	464000ef          	jal	468 <main>
   8:	0ff00513          	li	a0,255
   c:	000306b7          	lui	a3,0x30
  10:	00a68223          	sb	a0,4(a3) # 30004 <__heap_start+0x2f004>
  14:	bfe5                	j	c <_start+0xc>

00000016 <outl>:
  16:	7179                	addi	sp,sp,-48
  18:	d422                	sw	s0,40(sp)
  1a:	c85a                	sw	s6,16(sp)
  1c:	d606                	sw	ra,44(sp)
  1e:	d226                	sw	s1,36(sp)
  20:	d04a                	sw	s2,32(sp)
  22:	ce4e                	sw	s3,28(sp)
  24:	cc52                	sw	s4,24(sp)
  26:	ca56                	sw	s5,20(sp)
  28:	842a                	mv	s0,a0
  2a:	4b01                	li	s6,0
  2c:	00055563          	bgez	a0,36 <outl+0x20>
  30:	40a00433          	neg	s0,a0
  34:	4b05                	li	s6,1
  36:	4901                	li	s2,0
  38:	00410993          	addi	s3,sp,4 # 20004 <__heap_start+0x1f004>
  3c:	4aa5                	li	s5,9
  3e:	45a9                	li	a1,10
  40:	8522                	mv	a0,s0
  42:	2edd                	jal	438 <__modsi3>
  44:	84ca                	mv	s1,s2
  46:	0905                	addi	s2,s2,1
  48:	01298a33          	add	s4,s3,s2
  4c:	03050513          	addi	a0,a0,48
  50:	feaa0fa3          	sb	a0,-1(s4)
  54:	45a9                	li	a1,10
  56:	8522                	mv	a0,s0
  58:	8a22                	mv	s4,s0
  5a:	2ea9                	jal	3b4 <__divsi3>
  5c:	842a                	mv	s0,a0
  5e:	ff4ac0e3          	blt	s5,s4,3e <outl+0x28>
  62:	000b0963          	beqz	s6,74 <outl+0x5e>
  66:	002907b3          	add	a5,s2,sp
  6a:	02d00713          	li	a4,45
  6e:	84ca                	mv	s1,s2
  70:	00e78223          	sb	a4,4(a5)
  74:	009987b3          	add	a5,s3,s1
  78:	00030637          	lui	a2,0x30
  7c:	0007c683          	lbu	a3,0(a5)
  80:	873e                	mv	a4,a5
  82:	17fd                	addi	a5,a5,-1
  84:	00d60023          	sb	a3,0(a2) # 30000 <__heap_start+0x2f000>
  88:	fee99ae3          	bne	s3,a4,7c <outl+0x66>
  8c:	50b2                	lw	ra,44(sp)
  8e:	5422                	lw	s0,40(sp)
  90:	5492                	lw	s1,36(sp)
  92:	5902                	lw	s2,32(sp)
  94:	49f2                	lw	s3,28(sp)
  96:	4a62                	lw	s4,24(sp)
  98:	4ad2                	lw	s5,20(sp)
  9a:	4b42                	lw	s6,16(sp)
  9c:	6145                	addi	sp,sp,48
  9e:	8082                	ret

000000a0 <origin>:
  a0:	1101                	addi	sp,sp,-32
  a2:	c64e                	sw	s3,12(sp)
  a4:	ce06                	sw	ra,28(sp)
  a6:	4e002223          	sw	zero,1252(zero) # 4e4 <i>
  aa:	02a05e63          	blez	a0,e6 <origin+0x46>
  ae:	cc22                	sw	s0,24(sp)
  b0:	00151413          	slli	s0,a0,0x1
  b4:	942a                	add	s0,s0,a0
  b6:	040a                	slli	s0,s0,0x2
  b8:	49400793          	li	a5,1172
  bc:	ca26                	sw	s1,20(sp)
  be:	c84a                	sw	s2,16(sp)
  c0:	943e                	add	s0,s0,a5
  c2:	892a                	mv	s2,a0
  c4:	00251493          	slli	s1,a0,0x2
  c8:	853e                	mv	a0,a5
  ca:	8626                	mv	a2,s1
  cc:	4581                	li	a1,0
  ce:	2429                	jal	2d8 <memset>
  d0:	00c50793          	addi	a5,a0,12
  d4:	fef41ae3          	bne	s0,a5,c8 <origin+0x28>
  d8:	4f202223          	sw	s2,1252(zero) # 4e4 <i>
  dc:	4f202023          	sw	s2,1248(zero) # 4e0 <j>
  e0:	4462                	lw	s0,24(sp)
  e2:	44d2                	lw	s1,20(sp)
  e4:	4942                	lw	s2,16(sp)
  e6:	40f2                	lw	ra,28(sp)
  e8:	49b2                	lw	s3,12(sp)
  ea:	6105                	addi	sp,sp,32
  ec:	8082                	ret

000000ee <search>:
  ee:	1101                	addi	sp,sp,-32
  f0:	c452                	sw	s4,8(sp)
  f2:	c256                	sw	s5,4(sp)
  f4:	ce06                	sw	ra,28(sp)
  f6:	cc22                	sw	s0,24(sp)
  f8:	8a2a                	mv	s4,a0
  fa:	8ab2                	mv	s5,a2
  fc:	e9a5                	bnez	a1,16c <search+0x7e>
  fe:	ed45                	bnez	a0,1b6 <search+0xc8>
 100:	ca26                	sw	s1,20(sp)
 102:	c84a                	sw	s2,16(sp)
 104:	c64e                	sw	s3,12(sp)
 106:	c05a                	sw	s6,0(sp)
 108:	49400413          	li	s0,1172
 10c:	001a1913          	slli	s2,s4,0x1
 110:	9952                	add	s2,s2,s4
 112:	992e                	add	s2,s2,a1
 114:	4485                	li	s1,1
 116:	090a                	slli	s2,s2,0x2
 118:	9922                	add	s2,s2,s0
 11a:	009589b3          	add	s3,a1,s1
 11e:	02440413          	addi	s0,s0,36
 122:	8b26                	mv	s6,s1
 124:	a031                	j	130 <search+0x42>
 126:	0485                	addi	s1,s1,1
 128:	47a9                	li	a5,10
 12a:	0411                	addi	s0,s0,4
 12c:	02f48663          	beq	s1,a5,158 <search+0x6a>
 130:	405c                	lw	a5,4(s0)
 132:	fbf5                	bnez	a5,126 <search+0x38>
 134:	009a8633          	add	a2,s5,s1
 138:	01642223          	sw	s6,4(s0)
 13c:	85ce                	mv	a1,s3
 13e:	8552                	mv	a0,s4
 140:	00992023          	sw	s1,0(s2)
 144:	376d                	jal	ee <search>
 146:	0485                	addi	s1,s1,1
 148:	00042223          	sw	zero,4(s0)
 14c:	00092023          	sw	zero,0(s2)
 150:	47a9                	li	a5,10
 152:	0411                	addi	s0,s0,4
 154:	fcf49ee3          	bne	s1,a5,130 <search+0x42>
 158:	44d2                	lw	s1,20(sp)
 15a:	4942                	lw	s2,16(sp)
 15c:	49b2                	lw	s3,12(sp)
 15e:	4b02                	lw	s6,0(sp)
 160:	40f2                	lw	ra,28(sp)
 162:	4462                	lw	s0,24(sp)
 164:	4a22                	lw	s4,8(sp)
 166:	4a92                	lw	s5,4(sp)
 168:	6105                	addi	sp,sp,32
 16a:	8082                	ret
 16c:	4789                	li	a5,2
 16e:	06f50b63          	beq	a0,a5,1e4 <search+0xf6>
 172:	ca26                	sw	s1,20(sp)
 174:	f8f597e3          	bne	a1,a5,102 <search+0x14>
 178:	00151413          	slli	s0,a0,0x1
 17c:	942a                	add	s0,s0,a0
 17e:	040a                	slli	s0,s0,0x2
 180:	49400493          	li	s1,1172
 184:	9426                	add	s0,s0,s1
 186:	4018                	lw	a4,0(s0)
 188:	405c                	lw	a5,4(s0)
 18a:	463d                	li	a2,15
 18c:	8e19                	sub	a2,a2,a4
 18e:	8e1d                	sub	a2,a2,a5
 190:	c410                	sw	a2,8(s0)
 192:	fff60713          	addi	a4,a2,-1
 196:	47a1                	li	a5,8
 198:	00e7e863          	bltu	a5,a4,1a8 <search+0xba>
 19c:	00261793          	slli	a5,a2,0x2
 1a0:	97a6                	add	a5,a5,s1
 1a2:	53d8                	lw	a4,36(a5)
 1a4:	10070d63          	beqz	a4,2be <search+0x1d0>
 1a8:	40f2                	lw	ra,28(sp)
 1aa:	4462                	lw	s0,24(sp)
 1ac:	44d2                	lw	s1,20(sp)
 1ae:	4a22                	lw	s4,8(sp)
 1b0:	4a92                	lw	s5,4(sp)
 1b2:	6105                	addi	sp,sp,32
 1b4:	8082                	ret
 1b6:	fff50713          	addi	a4,a0,-1
 1ba:	00171793          	slli	a5,a4,0x1
 1be:	97ba                	add	a5,a5,a4
 1c0:	078a                	slli	a5,a5,0x2
 1c2:	49400413          	li	s0,1172
 1c6:	97a2                	add	a5,a5,s0
 1c8:	4398                	lw	a4,0(a5)
 1ca:	43c8                	lw	a0,4(a5)
 1cc:	4790                	lw	a2,8(a5)
 1ce:	46bd                	li	a3,15
 1d0:	00a707b3          	add	a5,a4,a0
 1d4:	97b2                	add	a5,a5,a2
 1d6:	f8d795e3          	bne	a5,a3,160 <search+0x72>
 1da:	ca26                	sw	s1,20(sp)
 1dc:	c84a                	sw	s2,16(sp)
 1de:	c64e                	sw	s3,12(sp)
 1e0:	c05a                	sw	s6,0(sp)
 1e2:	b72d                	j	10c <search+0x1e>
 1e4:	f0a59ee3          	bne	a1,a0,100 <search+0x12>
 1e8:	49400413          	li	s0,1172
 1ec:	4010                	lw	a2,0(s0)
 1ee:	404c                	lw	a1,4(s0)
 1f0:	4448                	lw	a0,12(s0)
 1f2:	01042803          	lw	a6,16(s0)
 1f6:	4414                	lw	a3,8(s0)
 1f8:	01442303          	lw	t1,20(s0)
 1fc:	02d00793          	li	a5,45
 200:	00b608b3          	add	a7,a2,a1
 204:	01050733          	add	a4,a0,a6
 208:	415787b3          	sub	a5,a5,s5
 20c:	00d88e33          	add	t3,a7,a3
 210:	971a                	add	a4,a4,t1
 212:	d01c                	sw	a5,32(s0)
 214:	f5c716e3          	bne	a4,t3,160 <search+0x72>
 218:	01842e83          	lw	t4,24(s0)
 21c:	01c42f03          	lw	t5,28(s0)
 220:	01ee8e33          	add	t3,t4,t5
 224:	9e3e                	add	t3,t3,a5
 226:	f2ee1de3          	bne	t3,a4,160 <search+0x72>
 22a:	00a60733          	add	a4,a2,a0
 22e:	9776                	add	a4,a4,t4
 230:	f3c718e3          	bne	a4,t3,160 <search+0x72>
 234:	95c2                	add	a1,a1,a6
 236:	95fa                	add	a1,a1,t5
 238:	f2e594e3          	bne	a1,a4,160 <search+0x72>
 23c:	00668733          	add	a4,a3,t1
 240:	973e                	add	a4,a4,a5
 242:	f0b71fe3          	bne	a4,a1,160 <search+0x72>
 246:	9642                	add	a2,a2,a6
 248:	97b2                	add	a5,a5,a2
 24a:	f0e79be3          	bne	a5,a4,160 <search+0x72>
 24e:	9876                	add	a6,a6,t4
 250:	f10898e3          	bne	a7,a6,160 <search+0x72>
 254:	4e802703          	lw	a4,1256(zero) # 4e8 <count>
 258:	ca26                	sw	s1,20(sp)
 25a:	0705                	addi	a4,a4,1
 25c:	c84a                	sw	s2,16(sp)
 25e:	c64e                	sw	s3,12(sp)
 260:	4ee02423          	sw	a4,1256(zero) # 4e8 <count>
 264:	02440a13          	addi	s4,s0,36
 268:	49000493          	li	s1,1168
 26c:	00030937          	lui	s2,0x30
 270:	02000993          	li	s3,32
 274:	4008                	lw	a0,0(s0)
 276:	3345                	jal	16 <outl>
 278:	01390023          	sb	s3,0(s2) # 30000 <__heap_start+0x2f000>
 27c:	4048                	lw	a0,4(s0)
 27e:	3b61                	jal	16 <outl>
 280:	01390023          	sb	s3,0(s2)
 284:	4408                	lw	a0,8(s0)
 286:	3b41                	jal	16 <outl>
 288:	87a6                	mv	a5,s1
 28a:	01390023          	sb	s3,0(s2)
 28e:	a019                	j	294 <search+0x1a6>
 290:	00e90023          	sb	a4,0(s2)
 294:	0007c703          	lbu	a4,0(a5)
 298:	0785                	addi	a5,a5,1
 29a:	fb7d                	bnez	a4,290 <search+0x1a2>
 29c:	0431                	addi	s0,s0,12
 29e:	fc8a1be3          	bne	s4,s0,274 <search+0x186>
 2a2:	87a6                	mv	a5,s1
 2a4:	000306b7          	lui	a3,0x30
 2a8:	a019                	j	2ae <search+0x1c0>
 2aa:	00e68023          	sb	a4,0(a3) # 30000 <__heap_start+0x2f000>
 2ae:	0007c703          	lbu	a4,0(a5)
 2b2:	0785                	addi	a5,a5,1
 2b4:	fb7d                	bnez	a4,2aa <search+0x1bc>
 2b6:	44d2                	lw	s1,20(sp)
 2b8:	4942                	lw	s2,16(sp)
 2ba:	49b2                	lw	s3,12(sp)
 2bc:	b555                	j	160 <search+0x72>
 2be:	4705                	li	a4,1
 2c0:	9656                	add	a2,a2,s5
 2c2:	0505                	addi	a0,a0,1
 2c4:	4581                	li	a1,0
 2c6:	d3d8                	sw	a4,36(a5)
 2c8:	351d                	jal	ee <search>
 2ca:	441c                	lw	a5,8(s0)
 2cc:	078a                	slli	a5,a5,0x2
 2ce:	94be                	add	s1,s1,a5
 2d0:	0204a223          	sw	zero,36(s1)
 2d4:	44d2                	lw	s1,20(sp)
 2d6:	b569                	j	160 <search+0x72>

000002d8 <memset>:
 2d8:	00f00313          	li	t1,15
 2dc:	00050713          	mv	a4,a0
 2e0:	02c37e63          	bgeu	t1,a2,31c <memset+0x44>
 2e4:	00f77793          	andi	a5,a4,15
 2e8:	0a079063          	bnez	a5,388 <memset+0xb0>
 2ec:	08059263          	bnez	a1,370 <memset+0x98>
 2f0:	ff067693          	andi	a3,a2,-16
 2f4:	00f67613          	andi	a2,a2,15
 2f8:	00e686b3          	add	a3,a3,a4
 2fc:	00b72023          	sw	a1,0(a4)
 300:	00b72223          	sw	a1,4(a4)
 304:	00b72423          	sw	a1,8(a4)
 308:	00b72623          	sw	a1,12(a4)
 30c:	01070713          	addi	a4,a4,16
 310:	fed766e3          	bltu	a4,a3,2fc <memset+0x24>
 314:	00061463          	bnez	a2,31c <memset+0x44>
 318:	00008067          	ret
 31c:	40c306b3          	sub	a3,t1,a2
 320:	00269693          	slli	a3,a3,0x2
 324:	00000297          	auipc	t0,0x0
 328:	005686b3          	add	a3,a3,t0
 32c:	00c68067          	jr	12(a3)
 330:	00b70723          	sb	a1,14(a4)
 334:	00b706a3          	sb	a1,13(a4)
 338:	00b70623          	sb	a1,12(a4)
 33c:	00b705a3          	sb	a1,11(a4)
 340:	00b70523          	sb	a1,10(a4)
 344:	00b704a3          	sb	a1,9(a4)
 348:	00b70423          	sb	a1,8(a4)
 34c:	00b703a3          	sb	a1,7(a4)
 350:	00b70323          	sb	a1,6(a4)
 354:	00b702a3          	sb	a1,5(a4)
 358:	00b70223          	sb	a1,4(a4)
 35c:	00b701a3          	sb	a1,3(a4)
 360:	00b70123          	sb	a1,2(a4)
 364:	00b700a3          	sb	a1,1(a4)
 368:	00b70023          	sb	a1,0(a4)
 36c:	00008067          	ret
 370:	0ff5f593          	zext.b	a1,a1
 374:	00859693          	slli	a3,a1,0x8
 378:	00d5e5b3          	or	a1,a1,a3
 37c:	01059693          	slli	a3,a1,0x10
 380:	00d5e5b3          	or	a1,a1,a3
 384:	f6dff06f          	j	2f0 <memset+0x18>
 388:	00279693          	slli	a3,a5,0x2
 38c:	00000297          	auipc	t0,0x0
 390:	005686b3          	add	a3,a3,t0
 394:	00008293          	mv	t0,ra
 398:	fa0680e7          	jalr	-96(a3)
 39c:	00028093          	mv	ra,t0
 3a0:	ff078793          	addi	a5,a5,-16
 3a4:	40f70733          	sub	a4,a4,a5
 3a8:	00f60633          	add	a2,a2,a5
 3ac:	f6c378e3          	bgeu	t1,a2,31c <memset+0x44>
 3b0:	f3dff06f          	j	2ec <memset+0x14>

000003b4 <__divsi3>:
 3b4:	06054063          	bltz	a0,414 <__umodsi3+0x10>
 3b8:	0605c663          	bltz	a1,424 <__umodsi3+0x20>

000003bc <__hidden___udivsi3>:
 3bc:	00058613          	mv	a2,a1
 3c0:	00050593          	mv	a1,a0
 3c4:	fff00513          	li	a0,-1
 3c8:	02060c63          	beqz	a2,400 <__hidden___udivsi3+0x44>
 3cc:	00100693          	li	a3,1
 3d0:	00b67a63          	bgeu	a2,a1,3e4 <__hidden___udivsi3+0x28>
 3d4:	00c05863          	blez	a2,3e4 <__hidden___udivsi3+0x28>
 3d8:	00161613          	slli	a2,a2,0x1
 3dc:	00169693          	slli	a3,a3,0x1
 3e0:	feb66ae3          	bltu	a2,a1,3d4 <__hidden___udivsi3+0x18>
 3e4:	00000513          	li	a0,0
 3e8:	00c5e663          	bltu	a1,a2,3f4 <__hidden___udivsi3+0x38>
 3ec:	40c585b3          	sub	a1,a1,a2
 3f0:	00d56533          	or	a0,a0,a3
 3f4:	0016d693          	srli	a3,a3,0x1
 3f8:	00165613          	srli	a2,a2,0x1
 3fc:	fe0696e3          	bnez	a3,3e8 <__hidden___udivsi3+0x2c>
 400:	00008067          	ret

00000404 <__umodsi3>:
 404:	00008293          	mv	t0,ra
 408:	fb5ff0ef          	jal	3bc <__hidden___udivsi3>
 40c:	00058513          	mv	a0,a1
 410:	00028067          	jr	t0 # 38c <memset+0xb4>
 414:	40a00533          	neg	a0,a0
 418:	00b04863          	bgtz	a1,428 <__umodsi3+0x24>
 41c:	40b005b3          	neg	a1,a1
 420:	f9dff06f          	j	3bc <__hidden___udivsi3>
 424:	40b005b3          	neg	a1,a1
 428:	00008293          	mv	t0,ra
 42c:	f91ff0ef          	jal	3bc <__hidden___udivsi3>
 430:	40a00533          	neg	a0,a0
 434:	00028067          	jr	t0

00000438 <__modsi3>:
 438:	00008293          	mv	t0,ra
 43c:	0005ca63          	bltz	a1,450 <__modsi3+0x18>
 440:	00054c63          	bltz	a0,458 <__modsi3+0x20>
 444:	f79ff0ef          	jal	3bc <__hidden___udivsi3>
 448:	00058513          	mv	a0,a1
 44c:	00028067          	jr	t0
 450:	40b005b3          	neg	a1,a1
 454:	fe0558e3          	bgez	a0,444 <__modsi3+0xc>
 458:	40a00533          	neg	a0,a0
 45c:	f61ff0ef          	jal	3bc <__hidden___udivsi3>
 460:	40b00533          	neg	a0,a1
 464:	00028067          	jr	t0

Disassembly of section .text.startup:

00000468 <main>:
 468:	1141                	addi	sp,sp,-16
 46a:	450d                	li	a0,3
 46c:	c606                	sw	ra,12(sp)
 46e:	390d                	jal	a0 <origin>
 470:	4601                	li	a2,0
 472:	4581                	li	a1,0
 474:	4501                	li	a0,0
 476:	39a5                	jal	ee <search>
 478:	4e802503          	lw	a0,1256(zero) # 4e8 <count>
 47c:	3e69                	jal	16 <outl>
 47e:	000307b7          	lui	a5,0x30
 482:	4729                	li	a4,10
 484:	00e78023          	sb	a4,0(a5) # 30000 <__heap_start+0x2f000>
 488:	40b2                	lw	ra,12(sp)
 48a:	4501                	li	a0,0
 48c:	0141                	addi	sp,sp,16
 48e:	8082                	ret
