
/app/testcase/sim/103_bulgarian.elf:     file format elf32-littleriscv


Disassembly of section .text:

00000000 <_start>:
   0:	00020137          	lui	sp,0x20
   4:	474000ef          	jal	478 <main>
   8:	0ff00513          	li	a0,255
   c:	000306b7          	lui	a3,0x30
  10:	00a68223          	sb	a0,4(a3) # 30004 <__heap_start+0x2f004>
  14:	bfe5                	j	c <_start+0xc>

00000016 <outl>:
  16:	7179                	addi	sp,sp,-48
  18:	d422                	sw	s0,40(sp)
  1a:	c85a                	sw	s6,16(sp)
  1c:	d606                	sw	ra,44(sp)
  1e:	d226                	sw	s1,36(sp)
  20:	d04a                	sw	s2,32(sp)
  22:	ce4e                	sw	s3,28(sp)
  24:	cc52                	sw	s4,24(sp)
  26:	ca56                	sw	s5,20(sp)
  28:	842a                	mv	s0,a0
  2a:	4b01                	li	s6,0
  2c:	00055563          	bgez	a0,36 <outl+0x20>
  30:	40a00433          	neg	s0,a0
  34:	4b05                	li	s6,1
  36:	4901                	li	s2,0
  38:	00410993          	addi	s3,sp,4 # 20004 <__heap_start+0x1f004>
  3c:	4aa5                	li	s5,9
  3e:	45a9                	li	a1,10
  40:	8522                	mv	a0,s0
  42:	2119                	jal	448 <__modsi3>
  44:	84ca                	mv	s1,s2
  46:	0905                	addi	s2,s2,1
  48:	01298a33          	add	s4,s3,s2
  4c:	03050513          	addi	a0,a0,48
  50:	feaa0fa3          	sb	a0,-1(s4)
  54:	45a9                	li	a1,10
  56:	8522                	mv	a0,s0
  58:	8a22                	mv	s4,s0
  5a:	26ad                	jal	3c4 <__divsi3>
  5c:	842a                	mv	s0,a0
  5e:	ff4ac0e3          	blt	s5,s4,3e <outl+0x28>
  62:	000b0963          	beqz	s6,74 <outl+0x5e>
  66:	002907b3          	add	a5,s2,sp
  6a:	02d00713          	li	a4,45
  6e:	84ca                	mv	s1,s2
  70:	00e78223          	sb	a4,4(a5)
  74:	009987b3          	add	a5,s3,s1
  78:	00030637          	lui	a2,0x30
  7c:	0007c683          	lbu	a3,0(a5)
  80:	873e                	mv	a4,a5
  82:	17fd                	addi	a5,a5,-1
  84:	00d60023          	sb	a3,0(a2) # 30000 <__heap_start+0x2f000>
  88:	fee99ae3          	bne	s3,a4,7c <outl+0x66>
  8c:	50b2                	lw	ra,44(sp)
  8e:	5422                	lw	s0,40(sp)
  90:	5492                	lw	s1,36(sp)
  92:	5902                	lw	s2,32(sp)
  94:	49f2                	lw	s3,28(sp)
  96:	4a62                	lw	s4,24(sp)
  98:	4ad2                	lw	s5,20(sp)
  9a:	4b42                	lw	s6,16(sp)
  9c:	6145                	addi	sp,sp,48
  9e:	8082                	ret

000000a0 <random>:
  a0:	1101                	addi	sp,sp,-32
  a2:	6785                	lui	a5,0x1
  a4:	ca26                	sw	s1,20(sp)
  a6:	6485                	lui	s1,0x1
  a8:	c84a                	sw	s2,16(sp)
  aa:	c64e                	sw	s3,12(sp)
  ac:	8d44a903          	lw	s2,-1836(s1) # 8d4 <seed>
  b0:	a747a983          	lw	s3,-1420(a5) # a74 <Q>
  b4:	ce06                	sw	ra,28(sp)
  b6:	854a                	mv	a0,s2
  b8:	85ce                	mv	a1,s3
  ba:	cc22                	sw	s0,24(sp)
  bc:	2671                	jal	448 <__modsi3>
  be:	6785                	lui	a5,0x1
  c0:	8dc7a583          	lw	a1,-1828(a5) # 8dc <A>
  c4:	2cf1                	jal	3a0 <__mulsi3>
  c6:	842a                	mv	s0,a0
  c8:	85ce                	mv	a1,s3
  ca:	854a                	mv	a0,s2
  cc:	2ce5                	jal	3c4 <__divsi3>
  ce:	6785                	lui	a5,0x1
  d0:	a707a583          	lw	a1,-1424(a5) # a70 <R>
  d4:	24f1                	jal	3a0 <__mulsi3>
  d6:	40a40533          	sub	a0,s0,a0
  da:	00055663          	bgez	a0,e6 <random+0x46>
  de:	6785                	lui	a5,0x1
  e0:	8d87a783          	lw	a5,-1832(a5) # 8d8 <M>
  e4:	953e                	add	a0,a0,a5
  e6:	40f2                	lw	ra,28(sp)
  e8:	4462                	lw	s0,24(sp)
  ea:	8ca4aa23          	sw	a0,-1836(s1)
  ee:	4942                	lw	s2,16(sp)
  f0:	44d2                	lw	s1,20(sp)
  f2:	49b2                	lw	s3,12(sp)
  f4:	6105                	addi	sp,sp,32
  f6:	8082                	ret

000000f8 <initialize>:
  f8:	6785                	lui	a5,0x1
  fa:	8ca7aa23          	sw	a0,-1836(a5) # 8d4 <seed>
  fe:	8082                	ret

00000100 <swap>:
 100:	6785                	lui	a5,0x1
 102:	8e078793          	addi	a5,a5,-1824 # 8e0 <a>
 106:	058a                	slli	a1,a1,0x2
 108:	95be                	add	a1,a1,a5
 10a:	050a                	slli	a0,a0,0x2
 10c:	4194                	lw	a3,0(a1)
 10e:	97aa                	add	a5,a5,a0
 110:	4398                	lw	a4,0(a5)
 112:	c394                	sw	a3,0(a5)
 114:	c198                	sw	a4,0(a1)
 116:	8082                	ret

00000118 <pd>:
 118:	1101                	addi	sp,sp,-32
 11a:	c452                	sw	s4,8(sp)
 11c:	6a05                	lui	s4,0x1
 11e:	cc22                	sw	s0,24(sp)
 120:	a7ca2403          	lw	s0,-1412(s4) # a7c <h>
 124:	ce06                	sw	ra,28(sp)
 126:	04854863          	blt	a0,s0,176 <pd+0x5e>
 12a:	ca26                	sw	s1,20(sp)
 12c:	c84a                	sw	s2,16(sp)
 12e:	c64e                	sw	s3,12(sp)
 130:	84aa                	mv	s1,a0
 132:	4901                	li	s2,0
 134:	a029                	j	13e <pd+0x26>
 136:	4905                	li	s2,1
 138:	0284ca63          	blt	s1,s0,16c <pd+0x54>
 13c:	89a2                	mv	s3,s0
 13e:	85a2                	mv	a1,s0
 140:	0405                	addi	s0,s0,1
 142:	8522                	mv	a0,s0
 144:	2cb1                	jal	3a0 <__mulsi3>
 146:	01f55793          	srli	a5,a0,0x1f
 14a:	97aa                	add	a5,a5,a0
 14c:	8785                	srai	a5,a5,0x1
 14e:	fe9794e3          	bne	a5,s1,136 <pd+0x1e>
 152:	00090463          	beqz	s2,15a <pd+0x42>
 156:	a73a2e23          	sw	s3,-1412(s4)
 15a:	44d2                	lw	s1,20(sp)
 15c:	4942                	lw	s2,16(sp)
 15e:	49b2                	lw	s3,12(sp)
 160:	4505                	li	a0,1
 162:	40f2                	lw	ra,28(sp)
 164:	4462                	lw	s0,24(sp)
 166:	4a22                	lw	s4,8(sp)
 168:	6105                	addi	sp,sp,32
 16a:	8082                	ret
 16c:	44d2                	lw	s1,20(sp)
 16e:	4942                	lw	s2,16(sp)
 170:	49b2                	lw	s3,12(sp)
 172:	a68a2e23          	sw	s0,-1412(s4)
 176:	4501                	li	a0,0
 178:	b7ed                	j	162 <pd+0x4a>

0000017a <show>:
 17a:	715d                	addi	sp,sp,-80
 17c:	d85a                	sw	s6,48(sp)
 17e:	6b05                	lui	s6,0x1
 180:	a78b2783          	lw	a5,-1416(s6) # a78 <now>
 184:	c686                	sw	ra,76(sp)
 186:	0af05663          	blez	a5,232 <show+0xb8>
 18a:	dc52                	sw	s4,56(sp)
 18c:	6a05                	lui	s4,0x1
 18e:	c0ca                	sw	s2,64(sp)
 190:	de4e                	sw	s3,60(sp)
 192:	da56                	sw	s5,52(sp)
 194:	d65e                	sw	s7,44(sp)
 196:	ce6e                	sw	s11,28(sp)
 198:	c4a2                	sw	s0,72(sp)
 19a:	c2a6                	sw	s1,68(sp)
 19c:	d462                	sw	s8,40(sp)
 19e:	d266                	sw	s9,36(sp)
 1a0:	d06a                	sw	s10,32(sp)
 1a2:	8e0a0a13          	addi	s4,s4,-1824 # 8e0 <a>
 1a6:	4a81                	li	s5,0
 1a8:	00410d93          	addi	s11,sp,4
 1ac:	49a5                	li	s3,9
 1ae:	00030937          	lui	s2,0x30
 1b2:	02000b93          	li	s7,32
 1b6:	000a2403          	lw	s0,0(s4)
 1ba:	4c81                	li	s9,0
 1bc:	08044463          	bltz	s0,244 <show+0xca>
 1c0:	4d01                	li	s10,0
 1c2:	45a9                	li	a1,10
 1c4:	8522                	mv	a0,s0
 1c6:	2449                	jal	448 <__modsi3>
 1c8:	84ea                	mv	s1,s10
 1ca:	0d05                	addi	s10,s10,1
 1cc:	01ad8c33          	add	s8,s11,s10
 1d0:	03050513          	addi	a0,a0,48
 1d4:	feac0fa3          	sb	a0,-1(s8)
 1d8:	45a9                	li	a1,10
 1da:	8522                	mv	a0,s0
 1dc:	8c22                	mv	s8,s0
 1de:	22dd                	jal	3c4 <__divsi3>
 1e0:	842a                	mv	s0,a0
 1e2:	ff89c0e3          	blt	s3,s8,1c2 <show+0x48>
 1e6:	000c8963          	beqz	s9,1f8 <show+0x7e>
 1ea:	002d07b3          	add	a5,s10,sp
 1ee:	02d00713          	li	a4,45
 1f2:	00e78223          	sb	a4,4(a5)
 1f6:	84ea                	mv	s1,s10
 1f8:	009d87b3          	add	a5,s11,s1
 1fc:	0007c683          	lbu	a3,0(a5)
 200:	873e                	mv	a4,a5
 202:	17fd                	addi	a5,a5,-1
 204:	00d90023          	sb	a3,0(s2) # 30000 <__heap_start+0x2f000>
 208:	feed9ae3          	bne	s11,a4,1fc <show+0x82>
 20c:	01790023          	sb	s7,0(s2)
 210:	a78b2783          	lw	a5,-1416(s6)
 214:	0a85                	addi	s5,s5,1
 216:	0a11                	addi	s4,s4,4
 218:	f8facfe3          	blt	s5,a5,1b6 <show+0x3c>
 21c:	4426                	lw	s0,72(sp)
 21e:	4496                	lw	s1,68(sp)
 220:	4906                	lw	s2,64(sp)
 222:	59f2                	lw	s3,60(sp)
 224:	5a62                	lw	s4,56(sp)
 226:	5ad2                	lw	s5,52(sp)
 228:	5bb2                	lw	s7,44(sp)
 22a:	5c22                	lw	s8,40(sp)
 22c:	5c92                	lw	s9,36(sp)
 22e:	5d02                	lw	s10,32(sp)
 230:	4df2                	lw	s11,28(sp)
 232:	000307b7          	lui	a5,0x30
 236:	4729                	li	a4,10
 238:	00e78023          	sb	a4,0(a5) # 30000 <__heap_start+0x2f000>
 23c:	40b6                	lw	ra,76(sp)
 23e:	5b42                	lw	s6,48(sp)
 240:	6161                	addi	sp,sp,80
 242:	8082                	ret
 244:	40800433          	neg	s0,s0
 248:	4c85                	li	s9,1
 24a:	bf9d                	j	1c0 <show+0x46>

0000024c <win>:
 24c:	7125                	addi	sp,sp,-416
 24e:	6705                	lui	a4,0x1
 250:	6785                	lui	a5,0x1
 252:	18912a23          	sw	s1,404(sp)
 256:	a7c7a783          	lw	a5,-1412(a5) # a7c <h>
 25a:	a7872483          	lw	s1,-1416(a4) # a78 <now>
 25e:	18112e23          	sw	ra,412(sp)
 262:	06f49663          	bne	s1,a5,2ce <win+0x82>
 266:	880a                	mv	a6,sp
 268:	04905a63          	blez	s1,2bc <win+0x70>
 26c:	18812c23          	sw	s0,408(sp)
 270:	6585                	lui	a1,0x1
 272:	00249413          	slli	s0,s1,0x2
 276:	8622                	mv	a2,s0
 278:	850a                	mv	a0,sp
 27a:	8e058593          	addi	a1,a1,-1824 # 8e0 <a>
 27e:	294d                	jal	730 <memcpy>
 280:	4785                	li	a5,1
 282:	882a                	mv	a6,a0
 284:	02f48a63          	beq	s1,a5,2b8 <win+0x6c>
 288:	008505b3          	add	a1,a0,s0
 28c:	0050                	addi	a2,sp,4
 28e:	fff48893          	addi	a7,s1,-1
 292:	4501                	li	a0,0
 294:	0505                	addi	a0,a0,1
 296:	00955e63          	bge	a0,s1,2b2 <win+0x66>
 29a:	87b2                	mv	a5,a2
 29c:	ffc62703          	lw	a4,-4(a2)
 2a0:	4394                	lw	a3,0(a5)
 2a2:	00e6d563          	bge	a3,a4,2ac <win+0x60>
 2a6:	fed62e23          	sw	a3,-4(a2)
 2aa:	c398                	sw	a4,0(a5)
 2ac:	0791                	addi	a5,a5,4
 2ae:	feb797e3          	bne	a5,a1,29c <win+0x50>
 2b2:	0611                	addi	a2,a2,4
 2b4:	ff1510e3          	bne	a0,a7,294 <win+0x48>
 2b8:	19812403          	lw	s0,408(sp)
 2bc:	8542                	mv	a0,a6
 2be:	4781                	li	a5,0
 2c0:	0097de63          	bge	a5,s1,2dc <win+0x90>
 2c4:	4118                	lw	a4,0(a0)
 2c6:	0785                	addi	a5,a5,1
 2c8:	0511                	addi	a0,a0,4
 2ca:	fef70be3          	beq	a4,a5,2c0 <win+0x74>
 2ce:	19c12083          	lw	ra,412(sp)
 2d2:	19412483          	lw	s1,404(sp)
 2d6:	4501                	li	a0,0
 2d8:	611d                	addi	sp,sp,416
 2da:	8082                	ret
 2dc:	19c12083          	lw	ra,412(sp)
 2e0:	19412483          	lw	s1,404(sp)
 2e4:	4505                	li	a0,1
 2e6:	611d                	addi	sp,sp,416
 2e8:	8082                	ret

000002ea <merge>:
 2ea:	6885                	lui	a7,0x1
 2ec:	a788a603          	lw	a2,-1416(a7) # a78 <now>
 2f0:	04c05e63          	blez	a2,34c <merge+0x62>
 2f4:	6785                	lui	a5,0x1
 2f6:	8e078593          	addi	a1,a5,-1824 # 8e0 <a>
 2fa:	00458513          	addi	a0,a1,4
 2fe:	4801                	li	a6,0
 300:	ffc52783          	lw	a5,-4(a0)
 304:	0805                	addi	a6,a6,1
 306:	c385                	beqz	a5,326 <merge+0x3c>
 308:	0511                	addi	a0,a0,4
 30a:	fec81be3          	bne	a6,a2,300 <merge+0x16>
 30e:	87ae                	mv	a5,a1
 310:	4701                	li	a4,0
 312:	a021                	j	31a <merge+0x30>
 314:	0705                	addi	a4,a4,1
 316:	02c70c63          	beq	a4,a2,34e <merge+0x64>
 31a:	4394                	lw	a3,0(a5)
 31c:	0791                	addi	a5,a5,4
 31e:	fafd                	bnez	a3,314 <merge+0x2a>
 320:	a6e8ac23          	sw	a4,-1416(a7)
 324:	8082                	ret
 326:	fec851e3          	bge	a6,a2,308 <merge+0x1e>
 32a:	872a                	mv	a4,a0
 32c:	87c2                	mv	a5,a6
 32e:	a021                	j	336 <merge+0x4c>
 330:	0785                	addi	a5,a5,1
 332:	00c78b63          	beq	a5,a2,348 <merge+0x5e>
 336:	4314                	lw	a3,0(a4)
 338:	0711                	addi	a4,a4,4
 33a:	dafd                	beqz	a3,330 <merge+0x46>
 33c:	078a                	slli	a5,a5,0x2
 33e:	97ae                	add	a5,a5,a1
 340:	fed52e23          	sw	a3,-4(a0)
 344:	0007a023          	sw	zero,0(a5)
 348:	0511                	addi	a0,a0,4
 34a:	bf5d                	j	300 <merge+0x16>
 34c:	8082                	ret
 34e:	8082                	ret

00000350 <move>:
 350:	6505                	lui	a0,0x1
 352:	a7852583          	lw	a1,-1416(a0) # a78 <now>
 356:	02b05963          	blez	a1,388 <move+0x38>
 35a:	6785                	lui	a5,0x1
 35c:	8e078613          	addi	a2,a5,-1824 # 8e0 <a>
 360:	00259813          	slli	a6,a1,0x2
 364:	8e078793          	addi	a5,a5,-1824
 368:	010606b3          	add	a3,a2,a6
 36c:	4398                	lw	a4,0(a5)
 36e:	0791                	addi	a5,a5,4
 370:	177d                	addi	a4,a4,-1
 372:	fee7ae23          	sw	a4,-4(a5)
 376:	fed79be3          	bne	a5,a3,36c <move+0x1c>
 37a:	9642                	add	a2,a2,a6
 37c:	00158793          	addi	a5,a1,1
 380:	c20c                	sw	a1,0(a2)
 382:	a6f52c23          	sw	a5,-1416(a0)
 386:	8082                	ret
 388:	6605                	lui	a2,0x1
 38a:	8e060613          	addi	a2,a2,-1824 # 8e0 <a>
 38e:	00259813          	slli	a6,a1,0x2
 392:	9642                	add	a2,a2,a6
 394:	00158793          	addi	a5,a1,1
 398:	c20c                	sw	a1,0(a2)
 39a:	a6f52c23          	sw	a5,-1416(a0)
 39e:	8082                	ret

000003a0 <__mulsi3>:
 3a0:	00050613          	mv	a2,a0
 3a4:	00000513          	li	a0,0
 3a8:	0015f693          	andi	a3,a1,1
 3ac:	00068463          	beqz	a3,3b4 <__mulsi3+0x14>
 3b0:	00c50533          	add	a0,a0,a2
 3b4:	0015d593          	srli	a1,a1,0x1
 3b8:	00161613          	slli	a2,a2,0x1
 3bc:	fe0596e3          	bnez	a1,3a8 <__mulsi3+0x8>
 3c0:	00008067          	ret

000003c4 <__divsi3>:
 3c4:	06054063          	bltz	a0,424 <__umodsi3+0x10>
 3c8:	0605c663          	bltz	a1,434 <__umodsi3+0x20>

000003cc <__hidden___udivsi3>:
 3cc:	00058613          	mv	a2,a1
 3d0:	00050593          	mv	a1,a0
 3d4:	fff00513          	li	a0,-1
 3d8:	02060c63          	beqz	a2,410 <__hidden___udivsi3+0x44>
 3dc:	00100693          	li	a3,1
 3e0:	00b67a63          	bgeu	a2,a1,3f4 <__hidden___udivsi3+0x28>
 3e4:	00c05863          	blez	a2,3f4 <__hidden___udivsi3+0x28>
 3e8:	00161613          	slli	a2,a2,0x1
 3ec:	00169693          	slli	a3,a3,0x1
 3f0:	feb66ae3          	bltu	a2,a1,3e4 <__hidden___udivsi3+0x18>
 3f4:	00000513          	li	a0,0
 3f8:	00c5e663          	bltu	a1,a2,404 <__hidden___udivsi3+0x38>
 3fc:	40c585b3          	sub	a1,a1,a2
 400:	00d56533          	or	a0,a0,a3
 404:	0016d693          	srli	a3,a3,0x1
 408:	00165613          	srli	a2,a2,0x1
 40c:	fe0696e3          	bnez	a3,3f8 <__hidden___udivsi3+0x2c>
 410:	00008067          	ret

00000414 <__umodsi3>:
 414:	00008293          	mv	t0,ra
 418:	fb5ff0ef          	jal	3cc <__hidden___udivsi3>
 41c:	00058513          	mv	a0,a1
 420:	00028067          	jr	t0
 424:	40a00533          	neg	a0,a0
 428:	00b04863          	bgtz	a1,438 <__umodsi3+0x24>
 42c:	40b005b3          	neg	a1,a1
 430:	f9dff06f          	j	3cc <__hidden___udivsi3>
 434:	40b005b3          	neg	a1,a1
 438:	00008293          	mv	t0,ra
 43c:	f91ff0ef          	jal	3cc <__hidden___udivsi3>
 440:	40a00533          	neg	a0,a0
 444:	00028067          	jr	t0

00000448 <__modsi3>:
 448:	00008293          	mv	t0,ra
 44c:	0005ca63          	bltz	a1,460 <__modsi3+0x18>
 450:	00054c63          	bltz	a0,468 <__modsi3+0x20>
 454:	f79ff0ef          	jal	3cc <__hidden___udivsi3>
 458:	00058513          	mv	a0,a1
 45c:	00028067          	jr	t0
 460:	40b005b3          	neg	a1,a1
 464:	fe0558e3          	bgez	a0,454 <__modsi3+0xc>
 468:	40a00533          	neg	a0,a0
 46c:	f61ff0ef          	jal	3cc <__hidden___udivsi3>
 470:	40b00533          	neg	a0,a1
 474:	00028067          	jr	t0

Disassembly of section .text.startup:

00000478 <main>:
 478:	711d                	addi	sp,sp,-96
 47a:	c4d2                	sw	s4,72(sp)
 47c:	c0da                	sw	s6,64(sp)
 47e:	6a05                	lui	s4,0x1
 480:	6b05                	lui	s6,0x1
 482:	cca2                	sw	s0,88(sp)
 484:	caa6                	sw	s1,84(sp)
 486:	8d8b2403          	lw	s0,-1832(s6) # 8d8 <M>
 48a:	8dca2483          	lw	s1,-1828(s4) # 8dc <A>
 48e:	0d200793          	li	a5,210
 492:	da66                	sw	s9,52(sp)
 494:	85a6                	mv	a1,s1
 496:	d86a                	sw	s10,48(sp)
 498:	8522                	mv	a0,s0
 49a:	6c85                	lui	s9,0x1
 49c:	6d05                	lui	s10,0x1
 49e:	ce86                	sw	ra,92(sp)
 4a0:	c8ca                	sw	s2,80(sp)
 4a2:	c6ce                	sw	s3,76(sp)
 4a4:	c2d6                	sw	s5,68(sp)
 4a6:	de5e                	sw	s7,60(sp)
 4a8:	a8fca023          	sw	a5,-1408(s9) # a80 <n>
 4ac:	dc62                	sw	s8,56(sp)
 4ae:	a60d2e23          	sw	zero,-1412(s10) # a7c <h>
 4b2:	3f09                	jal	3c4 <__divsi3>
 4b4:	87aa                	mv	a5,a0
 4b6:	85a6                	mv	a1,s1
 4b8:	8522                	mv	a0,s0
 4ba:	6b85                	lui	s7,0x1
 4bc:	a6fbaa23          	sw	a5,-1420(s7) # a74 <Q>
 4c0:	6985                	lui	s3,0x1
 4c2:	3759                	jal	448 <__modsi3>
 4c4:	a6a9a823          	sw	a0,-1424(s3) # a70 <R>
 4c8:	4481                	li	s1,0
 4ca:	4401                	li	s0,0
 4cc:	4905                	li	s2,1
 4ce:	0d300a93          	li	s5,211
 4d2:	a029                	j	4dc <main+0x64>
 4d4:	4485                	li	s1,1
 4d6:	23540463          	beq	s0,s5,6fe <main+0x286>
 4da:	8c22                	mv	s8,s0
 4dc:	85a2                	mv	a1,s0
 4de:	0405                	addi	s0,s0,1
 4e0:	8522                	mv	a0,s0
 4e2:	3d7d                	jal	3a0 <__mulsi3>
 4e4:	e5c50513          	addi	a0,a0,-420
 4e8:	fea966e3          	bltu	s2,a0,4d4 <main+0x5c>
 4ec:	d66e                	sw	s11,44(sp)
 4ee:	c099                	beqz	s1,4f4 <main+0x7c>
 4f0:	a78d2e23          	sw	s8,-1412(s10)
 4f4:	6785                	lui	a5,0x1
 4f6:	8a878793          	addi	a5,a5,-1880 # 8a8 <memcpy+0x178>
 4fa:	04c00713          	li	a4,76
 4fe:	00030437          	lui	s0,0x30
 502:	00e40023          	sb	a4,0(s0) # 30000 <__heap_start+0x2f000>
 506:	0017c703          	lbu	a4,1(a5)
 50a:	0785                	addi	a5,a5,1
 50c:	fb7d                	bnez	a4,502 <main+0x8a>
 50e:	44a9                	li	s1,10
 510:	0037c7b7          	lui	a5,0x37c
 514:	4f278793          	addi	a5,a5,1266 # 37c4f2 <__heap_start+0x37b4f2>
 518:	00940023          	sb	s1,0(s0)
 51c:	6d85                	lui	s11,0x1
 51e:	8cfdaa23          	sw	a5,-1836(s11) # 8d4 <seed>
 522:	3ebd                	jal	a0 <random>
 524:	85a6                	mv	a1,s1
 526:	370d                	jal	448 <__modsi3>
 528:	0505                	addi	a0,a0,1
 52a:	6c05                	lui	s8,0x1
 52c:	a6ac2c23          	sw	a0,-1416(s8) # a78 <now>
 530:	34dd                	jal	16 <outl>
 532:	00940023          	sb	s1,0(s0)
 536:	a78c2703          	lw	a4,-1416(s8)
 53a:	a80ca903          	lw	s2,-1408(s9)
 53e:	6a85                	lui	s5,0x1
 540:	fff70793          	addi	a5,a4,-1
 544:	c63e                	sw	a5,12(sp)
 546:	1ef05063          	blez	a5,726 <main+0x2ae>
 54a:	a74ba403          	lw	s0,-1420(s7)
 54e:	8dca2a03          	lw	s4,-1828(s4)
 552:	8e0a8b93          	addi	s7,s5,-1824 # 8e0 <a>
 556:	a709a983          	lw	s3,-1424(s3)
 55a:	8d8b2b03          	lw	s6,-1832(s6)
 55e:	8d4dad03          	lw	s10,-1836(s11)
 562:	070a                	slli	a4,a4,0x2
 564:	ffcb8c93          	addi	s9,s7,-4
 568:	8e0a8a93          	addi	s5,s5,-1824
 56c:	9cba                	add	s9,s9,a4
 56e:	4481                	li	s1,0
 570:	85a2                	mv	a1,s0
 572:	856a                	mv	a0,s10
 574:	3dd1                	jal	448 <__modsi3>
 576:	85d2                	mv	a1,s4
 578:	3525                	jal	3a0 <__mulsi3>
 57a:	872a                	mv	a4,a0
 57c:	85a2                	mv	a1,s0
 57e:	856a                	mv	a0,s10
 580:	8d3a                	mv	s10,a4
 582:	3589                	jal	3c4 <__divsi3>
 584:	85ce                	mv	a1,s3
 586:	3d29                	jal	3a0 <__mulsi3>
 588:	40ad0d33          	sub	s10,s10,a0
 58c:	160d4763          	bltz	s10,6fa <main+0x282>
 590:	45a9                	li	a1,10
 592:	856a                	mv	a0,s10
 594:	3d55                	jal	448 <__modsi3>
 596:	0505                	addi	a0,a0,1
 598:	00950733          	add	a4,a0,s1
 59c:	02e95b63          	bge	s2,a4,5d2 <main+0x15a>
 5a0:	85a2                	mv	a1,s0
 5a2:	856a                	mv	a0,s10
 5a4:	3555                	jal	448 <__modsi3>
 5a6:	85d2                	mv	a1,s4
 5a8:	3be5                	jal	3a0 <__mulsi3>
 5aa:	872a                	mv	a4,a0
 5ac:	85a2                	mv	a1,s0
 5ae:	856a                	mv	a0,s10
 5b0:	8d3a                	mv	s10,a4
 5b2:	3d09                	jal	3c4 <__divsi3>
 5b4:	85ce                	mv	a1,s3
 5b6:	33ed                	jal	3a0 <__mulsi3>
 5b8:	40ad0d33          	sub	s10,s10,a0
 5bc:	45a9                	li	a1,10
 5be:	fc0d5ae3          	bgez	s10,592 <main+0x11a>
 5c2:	9d5a                	add	s10,s10,s6
 5c4:	856a                	mv	a0,s10
 5c6:	3549                	jal	448 <__modsi3>
 5c8:	0505                	addi	a0,a0,1
 5ca:	00950733          	add	a4,a0,s1
 5ce:	fce949e3          	blt	s2,a4,5a0 <main+0x128>
 5d2:	00aaa023          	sw	a0,0(s5)
 5d6:	0a91                	addi	s5,s5,4
 5d8:	84ba                	mv	s1,a4
 5da:	f99a9be3          	bne	s5,s9,570 <main+0xf8>
 5de:	8dadaa23          	sw	s10,-1836(s11)
 5e2:	47b2                	lw	a5,12(sp)
 5e4:	40990933          	sub	s2,s2,s1
 5e8:	4a01                	li	s4,0
 5ea:	078a                	slli	a5,a5,0x2
 5ec:	97de                	add	a5,a5,s7
 5ee:	0127a023          	sw	s2,0(a5)
 5f2:	3661                	jal	17a <show>
 5f4:	39dd                	jal	2ea <merge>
 5f6:	3999                	jal	24c <win>
 5f8:	01410913          	addi	s2,sp,20
 5fc:	6c85                	lui	s9,0x1
 5fe:	000304b7          	lui	s1,0x30
 602:	4b29                	li	s6,10
 604:	49a5                	li	s3,9
 606:	8daa                	mv	s11,a0
 608:	e951                	bnez	a0,69c <main+0x224>
 60a:	8b8c8713          	addi	a4,s9,-1864 # 8b8 <memcpy+0x188>
 60e:	07300793          	li	a5,115
 612:	00f48023          	sb	a5,0(s1) # 30000 <__heap_start+0x2f000>
 616:	00174783          	lbu	a5,1(a4)
 61a:	0705                	addi	a4,a4,1
 61c:	fbfd                	bnez	a5,612 <main+0x19a>
 61e:	0a05                	addi	s4,s4,1
 620:	8452                	mv	s0,s4
 622:	45a9                	li	a1,10
 624:	8522                	mv	a0,s0
 626:	350d                	jal	448 <__modsi3>
 628:	8d6e                	mv	s10,s11
 62a:	0d85                	addi	s11,s11,1
 62c:	01b90ab3          	add	s5,s2,s11
 630:	03050513          	addi	a0,a0,48
 634:	feaa8fa3          	sb	a0,-1(s5)
 638:	45a9                	li	a1,10
 63a:	8522                	mv	a0,s0
 63c:	8aa2                	mv	s5,s0
 63e:	3359                	jal	3c4 <__divsi3>
 640:	842a                	mv	s0,a0
 642:	ff59c0e3          	blt	s3,s5,622 <main+0x1aa>
 646:	01a907b3          	add	a5,s2,s10
 64a:	0007c683          	lbu	a3,0(a5)
 64e:	873e                	mv	a4,a5
 650:	17fd                	addi	a5,a5,-1
 652:	00d48023          	sb	a3,0(s1)
 656:	fee91ae3          	bne	s2,a4,64a <main+0x1d2>
 65a:	03a00793          	li	a5,58
 65e:	00f48023          	sb	a5,0(s1)
 662:	01648023          	sb	s6,0(s1)
 666:	a78c2603          	lw	a2,-1416(s8)
 66a:	87de                	mv	a5,s7
 66c:	00261593          	slli	a1,a2,0x2
 670:	017586b3          	add	a3,a1,s7
 674:	00c05963          	blez	a2,686 <main+0x20e>
 678:	4398                	lw	a4,0(a5)
 67a:	0791                	addi	a5,a5,4
 67c:	177d                	addi	a4,a4,-1
 67e:	fee7ae23          	sw	a4,-4(a5)
 682:	fef69be3          	bne	a3,a5,678 <main+0x200>
 686:	95de                	add	a1,a1,s7
 688:	00160793          	addi	a5,a2,1
 68c:	c190                	sw	a2,0(a1)
 68e:	a6fc2c23          	sw	a5,-1416(s8)
 692:	39a1                	jal	2ea <merge>
 694:	34dd                	jal	17a <show>
 696:	3e5d                	jal	24c <win>
 698:	8daa                	mv	s11,a0
 69a:	d925                	beqz	a0,60a <main+0x192>
 69c:	6785                	lui	a5,0x1
 69e:	8c078793          	addi	a5,a5,-1856 # 8c0 <memcpy+0x190>
 6a2:	05400713          	li	a4,84
 6a6:	000306b7          	lui	a3,0x30
 6aa:	00e68023          	sb	a4,0(a3) # 30000 <__heap_start+0x2f000>
 6ae:	0017c703          	lbu	a4,1(a5)
 6b2:	0785                	addi	a5,a5,1
 6b4:	fb7d                	bnez	a4,6aa <main+0x232>
 6b6:	8552                	mv	a0,s4
 6b8:	3ab9                	jal	16 <outl>
 6ba:	6785                	lui	a5,0x1
 6bc:	8c878793          	addi	a5,a5,-1848 # 8c8 <memcpy+0x198>
 6c0:	02000713          	li	a4,32
 6c4:	000306b7          	lui	a3,0x30
 6c8:	00e68023          	sb	a4,0(a3) # 30000 <__heap_start+0x2f000>
 6cc:	0017c703          	lbu	a4,1(a5)
 6d0:	0785                	addi	a5,a5,1
 6d2:	fb7d                	bnez	a4,6c8 <main+0x250>
 6d4:	47a9                	li	a5,10
 6d6:	00f68023          	sb	a5,0(a3)
 6da:	5db2                	lw	s11,44(sp)
 6dc:	4501                	li	a0,0
 6de:	40f6                	lw	ra,92(sp)
 6e0:	4466                	lw	s0,88(sp)
 6e2:	44d6                	lw	s1,84(sp)
 6e4:	4946                	lw	s2,80(sp)
 6e6:	49b6                	lw	s3,76(sp)
 6e8:	4a26                	lw	s4,72(sp)
 6ea:	4a96                	lw	s5,68(sp)
 6ec:	4b06                	lw	s6,64(sp)
 6ee:	5bf2                	lw	s7,60(sp)
 6f0:	5c62                	lw	s8,56(sp)
 6f2:	5cd2                	lw	s9,52(sp)
 6f4:	5d42                	lw	s10,48(sp)
 6f6:	6125                	addi	sp,sp,96
 6f8:	8082                	ret
 6fa:	9d5a                	add	s10,s10,s6
 6fc:	bd51                	j	590 <main+0x118>
 6fe:	6785                	lui	a5,0x1
 700:	a68d2e23          	sw	s0,-1412(s10)
 704:	85878793          	addi	a5,a5,-1960 # 858 <memcpy+0x128>
 708:	05300713          	li	a4,83
 70c:	000306b7          	lui	a3,0x30
 710:	00e68023          	sb	a4,0(a3) # 30000 <__heap_start+0x2f000>
 714:	0017c703          	lbu	a4,1(a5)
 718:	0785                	addi	a5,a5,1
 71a:	fb7d                	bnez	a4,710 <main+0x298>
 71c:	47a9                	li	a5,10
 71e:	00f68023          	sb	a5,0(a3)
 722:	4505                	li	a0,1
 724:	bf6d                	j	6de <main+0x266>
 726:	8e0a8b93          	addi	s7,s5,-1824
 72a:	4481                	li	s1,0
 72c:	bd5d                	j	5e2 <main+0x16a>

Disassembly of section .text.memcpy:

00000730 <memcpy>:
 730:	00a5c7b3          	xor	a5,a1,a0
 734:	0037f793          	andi	a5,a5,3
 738:	00c508b3          	add	a7,a0,a2
 73c:	06079663          	bnez	a5,7a8 <memcpy+0x78>
 740:	00300793          	li	a5,3
 744:	06c7f263          	bgeu	a5,a2,7a8 <memcpy+0x78>
 748:	00357793          	andi	a5,a0,3
 74c:	00050713          	mv	a4,a0
 750:	0c079a63          	bnez	a5,824 <memcpy+0xf4>
 754:	ffc8f613          	andi	a2,a7,-4
 758:	40e606b3          	sub	a3,a2,a4
 75c:	02000793          	li	a5,32
 760:	06d7c463          	blt	a5,a3,7c8 <memcpy+0x98>
 764:	00058693          	mv	a3,a1
 768:	00070793          	mv	a5,a4
 76c:	02c77a63          	bgeu	a4,a2,7a0 <memcpy+0x70>
 770:	0006a803          	lw	a6,0(a3)
 774:	00478793          	addi	a5,a5,4
 778:	00468693          	addi	a3,a3,4
 77c:	ff07ae23          	sw	a6,-4(a5)
 780:	fec7e8e3          	bltu	a5,a2,770 <memcpy+0x40>
 784:	fff60613          	addi	a2,a2,-1
 788:	40e60633          	sub	a2,a2,a4
 78c:	ffc67613          	andi	a2,a2,-4
 790:	00458593          	addi	a1,a1,4
 794:	00470713          	addi	a4,a4,4
 798:	00c585b3          	add	a1,a1,a2
 79c:	00c70733          	add	a4,a4,a2
 7a0:	01176863          	bltu	a4,a7,7b0 <memcpy+0x80>
 7a4:	00008067          	ret
 7a8:	00050713          	mv	a4,a0
 7ac:	ff157ce3          	bgeu	a0,a7,7a4 <memcpy+0x74>
 7b0:	0005c783          	lbu	a5,0(a1)
 7b4:	00170713          	addi	a4,a4,1
 7b8:	00158593          	addi	a1,a1,1
 7bc:	fef70fa3          	sb	a5,-1(a4)
 7c0:	fee898e3          	bne	a7,a4,7b0 <memcpy+0x80>
 7c4:	00008067          	ret
 7c8:	0205a683          	lw	a3,32(a1)
 7cc:	0005a383          	lw	t2,0(a1)
 7d0:	0045a283          	lw	t0,4(a1)
 7d4:	0085af83          	lw	t6,8(a1)
 7d8:	00c5af03          	lw	t5,12(a1)
 7dc:	0105ae83          	lw	t4,16(a1)
 7e0:	0145ae03          	lw	t3,20(a1)
 7e4:	0185a303          	lw	t1,24(a1)
 7e8:	01c5a803          	lw	a6,28(a1)
 7ec:	02470713          	addi	a4,a4,36
 7f0:	fed72e23          	sw	a3,-4(a4)
 7f4:	fc772e23          	sw	t2,-36(a4)
 7f8:	40e606b3          	sub	a3,a2,a4
 7fc:	fe572023          	sw	t0,-32(a4)
 800:	fff72223          	sw	t6,-28(a4)
 804:	ffe72423          	sw	t5,-24(a4)
 808:	ffd72623          	sw	t4,-20(a4)
 80c:	ffc72823          	sw	t3,-16(a4)
 810:	fe672a23          	sw	t1,-12(a4)
 814:	ff072c23          	sw	a6,-8(a4)
 818:	02458593          	addi	a1,a1,36
 81c:	fad7c6e3          	blt	a5,a3,7c8 <memcpy+0x98>
 820:	f45ff06f          	j	764 <memcpy+0x34>
 824:	0005c683          	lbu	a3,0(a1)
 828:	00170713          	addi	a4,a4,1
 82c:	00377793          	andi	a5,a4,3
 830:	fed70fa3          	sb	a3,-1(a4)
 834:	00158593          	addi	a1,a1,1
 838:	f0078ee3          	beqz	a5,754 <memcpy+0x24>
 83c:	0005c683          	lbu	a3,0(a1)
 840:	00170713          	addi	a4,a4,1
 844:	00377793          	andi	a5,a4,3
 848:	fed70fa3          	sb	a3,-1(a4)
 84c:	00158593          	addi	a1,a1,1
 850:	fc079ae3          	bnez	a5,824 <memcpy+0xf4>
 854:	f01ff06f          	j	754 <memcpy+0x24>
