
/app/sim/_tmp.elf:     file format elf32-littleriscv


Disassembly of section .text:

00000000 <_start>:
   0:	00020137          	lui	sp,0x20
   4:	0fc000ef          	jal	100 <main>
   8:	0ff00513          	li	a0,255
   c:	000306b7          	lui	a3,0x30
  10:	00a68223          	sb	a0,4(a3) # 30004 <__heap_start+0x2f004>
  14:	bfe5                	j	c <_start+0xc>
	...

00000018 <outl>:
  18:	fc010113          	addi	sp,sp,-64 # 1ffc0 <__heap_start+0x1efc0>
  1c:	02112e23          	sw	ra,60(sp)
  20:	02812c23          	sw	s0,56(sp)
  24:	02912a23          	sw	s1,52(sp)
  28:	03212823          	sw	s2,48(sp)
  2c:	03312623          	sw	s3,44(sp)
  30:	03412423          	sw	s4,40(sp)
  34:	03512223          	sw	s5,36(sp)
  38:	03612023          	sw	s6,32(sp)
  3c:	01712e23          	sw	s7,28(sp)
  40:	00050493          	mv	s1,a0
  44:	00000b93          	li	s7,0
  48:	0a054663          	bltz	a0,f4 <outl+0xdc>
  4c:	00000413          	li	s0,0
  50:	00410a93          	addi	s5,sp,4
  54:	00a00913          	li	s2,10
  58:	00900a13          	li	s4,9
  5c:	00040b13          	mv	s6,s0
  60:	00140413          	addi	s0,s0,1
  64:	008a89b3          	add	s3,s5,s0
  68:	00090593          	mv	a1,s2
  6c:	00048513          	mv	a0,s1
  70:	18c000ef          	jal	1fc <__modsi3>
  74:	03050513          	addi	a0,a0,48
  78:	fea98fa3          	sb	a0,-1(s3)
  7c:	00048993          	mv	s3,s1
  80:	00090593          	mv	a1,s2
  84:	00048513          	mv	a0,s1
  88:	0f0000ef          	jal	178 <__divsi3>
  8c:	00050493          	mv	s1,a0
  90:	fd3a46e3          	blt	s4,s3,5c <outl+0x44>
  94:	000b8c63          	beqz	s7,ac <outl+0x94>
  98:	01040793          	addi	a5,s0,16
  9c:	00278433          	add	s0,a5,sp
  a0:	02d00793          	li	a5,45
  a4:	fef40a23          	sb	a5,-12(s0)
  a8:	002b0413          	addi	s0,s6,2
  ac:	00410713          	addi	a4,sp,4
  b0:	00e40433          	add	s0,s0,a4
  b4:	000306b7          	lui	a3,0x30
  b8:	fff44783          	lbu	a5,-1(s0)
  bc:	00f68023          	sb	a5,0(a3) # 30000 <__heap_start+0x2f000>
  c0:	fff40413          	addi	s0,s0,-1
  c4:	fee41ae3          	bne	s0,a4,b8 <outl+0xa0>
  c8:	03c12083          	lw	ra,60(sp)
  cc:	03812403          	lw	s0,56(sp)
  d0:	03412483          	lw	s1,52(sp)
  d4:	03012903          	lw	s2,48(sp)
  d8:	02c12983          	lw	s3,44(sp)
  dc:	02812a03          	lw	s4,40(sp)
  e0:	02412a83          	lw	s5,36(sp)
  e4:	02012b03          	lw	s6,32(sp)
  e8:	01c12b83          	lw	s7,28(sp)
  ec:	04010113          	addi	sp,sp,64
  f0:	00008067          	ret
  f4:	40a004b3          	neg	s1,a0
  f8:	00100b93          	li	s7,1
  fc:	f51ff06f          	j	4c <outl+0x34>

00000100 <main>:
 100:	ff010113          	addi	sp,sp,-16
 104:	00112623          	sw	ra,12(sp)
 108:	22c00713          	li	a4,556
 10c:	19070613          	addi	a2,a4,400
 110:	00060593          	mv	a1,a2
 114:	22c00693          	li	a3,556
 118:	00000793          	li	a5,0
 11c:	06400513          	li	a0,100
 120:	00f6a023          	sw	a5,0(a3)
 124:	00f5a023          	sw	a5,0(a1)
 128:	00178793          	addi	a5,a5,1
 12c:	00468693          	addi	a3,a3,4
 130:	00458593          	addi	a1,a1,4
 134:	fea796e3          	bne	a5,a0,120 <main+0x20>
 138:	19070593          	addi	a1,a4,400
 13c:	00900513          	li	a0,9
 140:	00072783          	lw	a5,0(a4)
 144:	00062683          	lw	a3,0(a2)
 148:	00d787b3          	add	a5,a5,a3
 14c:	00f50533          	add	a0,a0,a5
 150:	00470713          	addi	a4,a4,4
 154:	00460613          	addi	a2,a2,4
 158:	feb714e3          	bne	a4,a1,140 <main+0x40>
 15c:	ebdff0ef          	jal	18 <outl>
 160:	06900513          	li	a0,105
 164:	eb5ff0ef          	jal	18 <outl>
 168:	00000513          	li	a0,0
 16c:	00c12083          	lw	ra,12(sp)
 170:	01010113          	addi	sp,sp,16
 174:	00008067          	ret

00000178 <__divsi3>:
 178:	06054063          	bltz	a0,1d8 <__umodsi3+0x10>
 17c:	0605c663          	bltz	a1,1e8 <__umodsi3+0x20>

00000180 <__hidden___udivsi3>:
 180:	00058613          	mv	a2,a1
 184:	00050593          	mv	a1,a0
 188:	fff00513          	li	a0,-1
 18c:	02060c63          	beqz	a2,1c4 <__hidden___udivsi3+0x44>
 190:	00100693          	li	a3,1
 194:	00b67a63          	bgeu	a2,a1,1a8 <__hidden___udivsi3+0x28>
 198:	00c05863          	blez	a2,1a8 <__hidden___udivsi3+0x28>
 19c:	00161613          	slli	a2,a2,0x1
 1a0:	00169693          	slli	a3,a3,0x1
 1a4:	feb66ae3          	bltu	a2,a1,198 <__hidden___udivsi3+0x18>
 1a8:	00000513          	li	a0,0
 1ac:	00c5e663          	bltu	a1,a2,1b8 <__hidden___udivsi3+0x38>
 1b0:	40c585b3          	sub	a1,a1,a2
 1b4:	00d56533          	or	a0,a0,a3
 1b8:	0016d693          	srli	a3,a3,0x1
 1bc:	00165613          	srli	a2,a2,0x1
 1c0:	fe0696e3          	bnez	a3,1ac <__hidden___udivsi3+0x2c>
 1c4:	00008067          	ret

000001c8 <__umodsi3>:
 1c8:	00008293          	mv	t0,ra
 1cc:	fb5ff0ef          	jal	180 <__hidden___udivsi3>
 1d0:	00058513          	mv	a0,a1
 1d4:	00028067          	jr	t0
 1d8:	40a00533          	neg	a0,a0
 1dc:	00b04863          	bgtz	a1,1ec <__umodsi3+0x24>
 1e0:	40b005b3          	neg	a1,a1
 1e4:	f9dff06f          	j	180 <__hidden___udivsi3>
 1e8:	40b005b3          	neg	a1,a1
 1ec:	00008293          	mv	t0,ra
 1f0:	f91ff0ef          	jal	180 <__hidden___udivsi3>
 1f4:	40a00533          	neg	a0,a0
 1f8:	00028067          	jr	t0

000001fc <__modsi3>:
 1fc:	00008293          	mv	t0,ra
 200:	0005ca63          	bltz	a1,214 <__modsi3+0x18>
 204:	00054c63          	bltz	a0,21c <__modsi3+0x20>
 208:	f79ff0ef          	jal	180 <__hidden___udivsi3>
 20c:	00058513          	mv	a0,a1
 210:	00028067          	jr	t0
 214:	40b005b3          	neg	a1,a1
 218:	fe0558e3          	bgez	a0,208 <__modsi3+0xc>
 21c:	40a00533          	neg	a0,a0
 220:	f61ff0ef          	jal	180 <__hidden___udivsi3>
 224:	40b00533          	neg	a0,a1
 228:	00028067          	jr	t0
