
/app/testcase/sim/basicopt1.elf:     file format elf32-littleriscv


Disassembly of section .text:

00000000 <_start>:
   0:	00020137          	lui	sp,0x20
   4:	1a4000ef          	jal	1a8 <main>
   8:	0ff00513          	li	a0,255
   c:	000306b7          	lui	a3,0x30
  10:	00a68223          	sb	a0,4(a3) # 30004 <__heap_start+0x2f004>
  14:	bfe5                	j	c <_start+0xc>
	...

00000018 <memset>:
  18:	00f00313          	li	t1,15
  1c:	00050713          	mv	a4,a0
  20:	02c37e63          	bgeu	t1,a2,5c <memset+0x44>
  24:	00f77793          	andi	a5,a4,15
  28:	0a079063          	bnez	a5,c8 <memset+0xb0>
  2c:	08059263          	bnez	a1,b0 <memset+0x98>
  30:	ff067693          	andi	a3,a2,-16
  34:	00f67613          	andi	a2,a2,15
  38:	00e686b3          	add	a3,a3,a4
  3c:	00b72023          	sw	a1,0(a4)
  40:	00b72223          	sw	a1,4(a4)
  44:	00b72423          	sw	a1,8(a4)
  48:	00b72623          	sw	a1,12(a4)
  4c:	01070713          	addi	a4,a4,16
  50:	fed766e3          	bltu	a4,a3,3c <memset+0x24>
  54:	00061463          	bnez	a2,5c <memset+0x44>
  58:	00008067          	ret
  5c:	40c306b3          	sub	a3,t1,a2
  60:	00269693          	slli	a3,a3,0x2
  64:	00000297          	auipc	t0,0x0
  68:	005686b3          	add	a3,a3,t0
  6c:	00c68067          	jr	12(a3)
  70:	00b70723          	sb	a1,14(a4)
  74:	00b706a3          	sb	a1,13(a4)
  78:	00b70623          	sb	a1,12(a4)
  7c:	00b705a3          	sb	a1,11(a4)
  80:	00b70523          	sb	a1,10(a4)
  84:	00b704a3          	sb	a1,9(a4)
  88:	00b70423          	sb	a1,8(a4)
  8c:	00b703a3          	sb	a1,7(a4)
  90:	00b70323          	sb	a1,6(a4)
  94:	00b702a3          	sb	a1,5(a4)
  98:	00b70223          	sb	a1,4(a4)
  9c:	00b701a3          	sb	a1,3(a4)
  a0:	00b70123          	sb	a1,2(a4)
  a4:	00b700a3          	sb	a1,1(a4)
  a8:	00b70023          	sb	a1,0(a4)
  ac:	00008067          	ret
  b0:	0ff5f593          	zext.b	a1,a1
  b4:	00859693          	slli	a3,a1,0x8
  b8:	00d5e5b3          	or	a1,a1,a3
  bc:	01059693          	slli	a3,a1,0x10
  c0:	00d5e5b3          	or	a1,a1,a3
  c4:	f6dff06f          	j	30 <memset+0x18>
  c8:	00279693          	slli	a3,a5,0x2
  cc:	00000297          	auipc	t0,0x0
  d0:	005686b3          	add	a3,a3,t0
  d4:	00008293          	mv	t0,ra
  d8:	fa0680e7          	jalr	-96(a3)
  dc:	00028093          	mv	ra,t0
  e0:	ff078793          	addi	a5,a5,-16
  e4:	40f70733          	sub	a4,a4,a5
  e8:	00f60633          	add	a2,a2,a5
  ec:	f6c378e3          	bgeu	t1,a2,5c <memset+0x44>
  f0:	f3dff06f          	j	2c <memset+0x14>

000000f4 <__divsi3>:
  f4:	06054063          	bltz	a0,154 <__umodsi3+0x10>
  f8:	0605c663          	bltz	a1,164 <__umodsi3+0x20>

000000fc <__hidden___udivsi3>:
  fc:	00058613          	mv	a2,a1
 100:	00050593          	mv	a1,a0
 104:	fff00513          	li	a0,-1
 108:	02060c63          	beqz	a2,140 <__hidden___udivsi3+0x44>
 10c:	00100693          	li	a3,1
 110:	00b67a63          	bgeu	a2,a1,124 <__hidden___udivsi3+0x28>
 114:	00c05863          	blez	a2,124 <__hidden___udivsi3+0x28>
 118:	00161613          	slli	a2,a2,0x1
 11c:	00169693          	slli	a3,a3,0x1
 120:	feb66ae3          	bltu	a2,a1,114 <__hidden___udivsi3+0x18>
 124:	00000513          	li	a0,0
 128:	00c5e663          	bltu	a1,a2,134 <__hidden___udivsi3+0x38>
 12c:	40c585b3          	sub	a1,a1,a2
 130:	00d56533          	or	a0,a0,a3
 134:	0016d693          	srli	a3,a3,0x1
 138:	00165613          	srli	a2,a2,0x1
 13c:	fe0696e3          	bnez	a3,128 <__hidden___udivsi3+0x2c>
 140:	00008067          	ret

00000144 <__umodsi3>:
 144:	00008293          	mv	t0,ra
 148:	fb5ff0ef          	jal	fc <__hidden___udivsi3>
 14c:	00058513          	mv	a0,a1
 150:	00028067          	jr	t0 # cc <memset+0xb4>
 154:	40a00533          	neg	a0,a0
 158:	00b04863          	bgtz	a1,168 <__umodsi3+0x24>
 15c:	40b005b3          	neg	a1,a1
 160:	f9dff06f          	j	fc <__hidden___udivsi3>
 164:	40b005b3          	neg	a1,a1
 168:	00008293          	mv	t0,ra
 16c:	f91ff0ef          	jal	fc <__hidden___udivsi3>
 170:	40a00533          	neg	a0,a0
 174:	00028067          	jr	t0

00000178 <__modsi3>:
 178:	00008293          	mv	t0,ra
 17c:	0005ca63          	bltz	a1,190 <__modsi3+0x18>
 180:	00054c63          	bltz	a0,198 <__modsi3+0x20>
 184:	f79ff0ef          	jal	fc <__hidden___udivsi3>
 188:	00058513          	mv	a0,a1
 18c:	00028067          	jr	t0
 190:	40b005b3          	neg	a1,a1
 194:	fe0558e3          	bgez	a0,184 <__modsi3+0xc>
 198:	40a00533          	neg	a0,a0
 19c:	f61ff0ef          	jal	fc <__hidden___udivsi3>
 1a0:	40b00533          	neg	a0,a1
 1a4:	00028067          	jr	t0

Disassembly of section .text.startup:

000001a8 <main>:
 1a8:	72d9                	lui	t0,0xffff6
 1aa:	7179                	addi	sp,sp,-48
 1ac:	3b028293          	addi	t0,t0,944 # ffff63b0 <__heap_start+0xffff53b0>
 1b0:	d422                	sw	s0,40(sp)
 1b2:	d226                	sw	s1,36(sp)
 1b4:	d04a                	sw	s2,32(sp)
 1b6:	d606                	sw	ra,44(sp)
 1b8:	ce4e                	sw	s3,28(sp)
 1ba:	cc52                	sw	s4,24(sp)
 1bc:	ca56                	sw	s5,20(sp)
 1be:	c85a                	sw	s6,16(sp)
 1c0:	c65e                	sw	s7,12(sp)
 1c2:	6629                	lui	a2,0xa
 1c4:	9116                	add	sp,sp,t0
 1c6:	0808                	addi	a0,sp,16
 1c8:	c4060613          	addi	a2,a2,-960 # 9c40 <__heap_start+0x8c40>
 1cc:	4581                	li	a1,0
 1ce:	35a9                	jal	18 <memset>
 1d0:	4401                	li	s0,0
 1d2:	03a00913          	li	s2,58
 1d6:	06400493          	li	s1,100
 1da:	feb40793          	addi	a5,s0,-21
 1de:	0af97d63          	bgeu	s2,a5,298 <main+0xf0>
 1e2:	0405                	addi	s0,s0,1
 1e4:	fe941be3          	bne	s0,s1,1da <main+0x32>
 1e8:	67a9                	lui	a5,0xa
 1ea:	de078793          	addi	a5,a5,-544 # 9de0 <__heap_start+0x8de0>
 1ee:	1314                	addi	a3,sp,416
 1f0:	00f10633          	add	a2,sp,a5
 1f4:	4401                	li	s0,0
 1f6:	e7068793          	addi	a5,a3,-400
 1fa:	4398                	lw	a4,0(a5)
 1fc:	0791                	addi	a5,a5,4
 1fe:	943a                	add	s0,s0,a4
 200:	fef69de3          	bne	a3,a5,1fa <main+0x52>
 204:	19068693          	addi	a3,a3,400
 208:	fec697e3          	bne	a3,a2,1f6 <main+0x4e>
 20c:	4a81                	li	s5,0
 20e:	00045563          	bgez	s0,218 <main+0x70>
 212:	40800433          	neg	s0,s0
 216:	4a85                	li	s5,1
 218:	00410a13          	addi	s4,sp,4 # 20004 <__heap_start+0x1f004>
 21c:	4981                	li	s3,0
 21e:	4b25                	li	s6,9
 220:	45a9                	li	a1,10
 222:	8522                	mv	a0,s0
 224:	3f91                	jal	178 <__modsi3>
 226:	84ce                	mv	s1,s3
 228:	0985                	addi	s3,s3,1
 22a:	03050793          	addi	a5,a0,48
 22e:	013a0bb3          	add	s7,s4,s3
 232:	fefb8fa3          	sb	a5,-1(s7)
 236:	8522                	mv	a0,s0
 238:	45a9                	li	a1,10
 23a:	8ba2                	mv	s7,s0
 23c:	3d65                	jal	f4 <__divsi3>
 23e:	842a                	mv	s0,a0
 240:	ff7b40e3          	blt	s6,s7,220 <main+0x78>
 244:	000a8a63          	beqz	s5,258 <main+0xb0>
 248:	c5010793          	addi	a5,sp,-944
 24c:	97ce                	add	a5,a5,s3
 24e:	02d00713          	li	a4,45
 252:	84ce                	mv	s1,s3
 254:	3ae78a23          	sb	a4,948(a5)
 258:	0058                	addi	a4,sp,4
 25a:	009707b3          	add	a5,a4,s1
 25e:	000306b7          	lui	a3,0x30
 262:	0007c583          	lbu	a1,0(a5)
 266:	863e                	mv	a2,a5
 268:	17fd                	addi	a5,a5,-1
 26a:	00b68023          	sb	a1,0(a3) # 30000 <__heap_start+0x2f000>
 26e:	fec71ae3          	bne	a4,a2,262 <main+0xba>
 272:	47a9                	li	a5,10
 274:	62a9                	lui	t0,0xa
 276:	00f68023          	sb	a5,0(a3)
 27a:	c5028293          	addi	t0,t0,-944 # 9c50 <__heap_start+0x8c50>
 27e:	9116                	add	sp,sp,t0
 280:	50b2                	lw	ra,44(sp)
 282:	5422                	lw	s0,40(sp)
 284:	5492                	lw	s1,36(sp)
 286:	5902                	lw	s2,32(sp)
 288:	49f2                	lw	s3,28(sp)
 28a:	4a62                	lw	s4,24(sp)
 28c:	4ad2                	lw	s5,20(sp)
 28e:	4b42                	lw	s6,16(sp)
 290:	4bb2                	lw	s7,12(sp)
 292:	4501                	li	a0,0
 294:	6145                	addi	sp,sp,48
 296:	8082                	ret
 298:	c5010a93          	addi	s5,sp,-944
 29c:	4981                	li	s3,0
 29e:	06400b13          	li	s6,100
 2a2:	45e5                	li	a1,25
 2a4:	854e                	mv	a0,s3
 2a6:	35b9                	jal	f4 <__divsi3>
 2a8:	8a2a                	mv	s4,a0
 2aa:	06400593          	li	a1,100
 2ae:	00299513          	slli	a0,s3,0x2
 2b2:	35d9                	jal	178 <__modsi3>
 2b4:	9a22                	add	s4,s4,s0
 2b6:	001a1793          	slli	a5,s4,0x1
 2ba:	97d2                	add	a5,a5,s4
 2bc:	078e                	slli	a5,a5,0x3
 2be:	97d2                	add	a5,a5,s4
 2c0:	078a                	slli	a5,a5,0x2
 2c2:	97aa                	add	a5,a5,a0
 2c4:	078a                	slli	a5,a5,0x2
 2c6:	03298713          	addi	a4,s3,50
 2ca:	97d6                	add	a5,a5,s5
 2cc:	3ce7a023          	sw	a4,960(a5)
 2d0:	0985                	addi	s3,s3,1
 2d2:	fd6998e3          	bne	s3,s6,2a2 <main+0xfa>
 2d6:	0405                	addi	s0,s0,1
 2d8:	b709                	j	1da <main+0x32>
