
/app/testcase/sim/basicopt1.elf:     file format elf32-littleriscv


Disassembly of section .text:

00000000 <_start>:
   0:	00020137          	lui	sp,0x20
   4:	1a4000ef          	jal	1a8 <main>
   8:	0ff00513          	li	a0,255
   c:	000306b7          	lui	a3,0x30
  10:	00a68223          	sb	a0,4(a3) # 30004 <__heap_start+0x2f004>
  14:	bfe5                	j	c <_start+0xc>
	...

00000018 <memset>:
  18:	00f00313          	li	t1,15
  1c:	00050713          	mv	a4,a0
  20:	02c37e63          	bgeu	t1,a2,5c <memset+0x44>
  24:	00f77793          	andi	a5,a4,15
  28:	0a079063          	bnez	a5,c8 <memset+0xb0>
  2c:	08059263          	bnez	a1,b0 <memset+0x98>
  30:	ff067693          	andi	a3,a2,-16
  34:	00f67613          	andi	a2,a2,15
  38:	00e686b3          	add	a3,a3,a4
  3c:	00b72023          	sw	a1,0(a4)
  40:	00b72223          	sw	a1,4(a4)
  44:	00b72423          	sw	a1,8(a4)
  48:	00b72623          	sw	a1,12(a4)
  4c:	01070713          	addi	a4,a4,16
  50:	fed766e3          	bltu	a4,a3,3c <memset+0x24>
  54:	00061463          	bnez	a2,5c <memset+0x44>
  58:	00008067          	ret
  5c:	40c306b3          	sub	a3,t1,a2
  60:	00269693          	slli	a3,a3,0x2
  64:	00000297          	auipc	t0,0x0
  68:	005686b3          	add	a3,a3,t0
  6c:	00c68067          	jr	12(a3)
  70:	00b70723          	sb	a1,14(a4)
  74:	00b706a3          	sb	a1,13(a4)
  78:	00b70623          	sb	a1,12(a4)
  7c:	00b705a3          	sb	a1,11(a4)
  80:	00b70523          	sb	a1,10(a4)
  84:	00b704a3          	sb	a1,9(a4)
  88:	00b70423          	sb	a1,8(a4)
  8c:	00b703a3          	sb	a1,7(a4)
  90:	00b70323          	sb	a1,6(a4)
  94:	00b702a3          	sb	a1,5(a4)
  98:	00b70223          	sb	a1,4(a4)
  9c:	00b701a3          	sb	a1,3(a4)
  a0:	00b70123          	sb	a1,2(a4)
  a4:	00b700a3          	sb	a1,1(a4)
  a8:	00b70023          	sb	a1,0(a4)
  ac:	00008067          	ret
  b0:	0ff5f593          	zext.b	a1,a1
  b4:	00859693          	slli	a3,a1,0x8
  b8:	00d5e5b3          	or	a1,a1,a3
  bc:	01059693          	slli	a3,a1,0x10
  c0:	00d5e5b3          	or	a1,a1,a3
  c4:	f6dff06f          	j	30 <memset+0x18>
  c8:	00279693          	slli	a3,a5,0x2
  cc:	00000297          	auipc	t0,0x0
  d0:	005686b3          	add	a3,a3,t0
  d4:	00008293          	mv	t0,ra
  d8:	fa0680e7          	jalr	-96(a3)
  dc:	00028093          	mv	ra,t0
  e0:	ff078793          	addi	a5,a5,-16
  e4:	40f70733          	sub	a4,a4,a5
  e8:	00f60633          	add	a2,a2,a5
  ec:	f6c378e3          	bgeu	t1,a2,5c <memset+0x44>
  f0:	f3dff06f          	j	2c <memset+0x14>

000000f4 <__divsi3>:
  f4:	06054063          	bltz	a0,154 <__umodsi3+0x10>
  f8:	0605c663          	bltz	a1,164 <__umodsi3+0x20>

000000fc <__hidden___udivsi3>:
  fc:	00058613          	mv	a2,a1
 100:	00050593          	mv	a1,a0
 104:	fff00513          	li	a0,-1
 108:	02060c63          	beqz	a2,140 <__hidden___udivsi3+0x44>
 10c:	00100693          	li	a3,1
 110:	00b67a63          	bgeu	a2,a1,124 <__hidden___udivsi3+0x28>
 114:	00c05863          	blez	a2,124 <__hidden___udivsi3+0x28>
 118:	00161613          	slli	a2,a2,0x1
 11c:	00169693          	slli	a3,a3,0x1
 120:	feb66ae3          	bltu	a2,a1,114 <__hidden___udivsi3+0x18>
 124:	00000513          	li	a0,0
 128:	00c5e663          	bltu	a1,a2,134 <__hidden___udivsi3+0x38>
 12c:	40c585b3          	sub	a1,a1,a2
 130:	00d56533          	or	a0,a0,a3
 134:	0016d693          	srli	a3,a3,0x1
 138:	00165613          	srli	a2,a2,0x1
 13c:	fe0696e3          	bnez	a3,128 <__hidden___udivsi3+0x2c>
 140:	00008067          	ret

00000144 <__umodsi3>:
 144:	00008293          	mv	t0,ra
 148:	fb5ff0ef          	jal	fc <__hidden___udivsi3>
 14c:	00058513          	mv	a0,a1
 150:	00028067          	jr	t0 # cc <memset+0xb4>
 154:	40a00533          	neg	a0,a0
 158:	00b04863          	bgtz	a1,168 <__umodsi3+0x24>
 15c:	40b005b3          	neg	a1,a1
 160:	f9dff06f          	j	fc <__hidden___udivsi3>
 164:	40b005b3          	neg	a1,a1
 168:	00008293          	mv	t0,ra
 16c:	f91ff0ef          	jal	fc <__hidden___udivsi3>
 170:	40a00533          	neg	a0,a0
 174:	00028067          	jr	t0

00000178 <__modsi3>:
 178:	00008293          	mv	t0,ra
 17c:	0005ca63          	bltz	a1,190 <__modsi3+0x18>
 180:	00054c63          	bltz	a0,198 <__modsi3+0x20>
 184:	f79ff0ef          	jal	fc <__hidden___udivsi3>
 188:	00058513          	mv	a0,a1
 18c:	00028067          	jr	t0
 190:	40b005b3          	neg	a1,a1
 194:	fe0558e3          	bgez	a0,184 <__modsi3+0xc>
 198:	40a00533          	neg	a0,a0
 19c:	f61ff0ef          	jal	fc <__hidden___udivsi3>
 1a0:	40b00533          	neg	a0,a1
 1a4:	00028067          	jr	t0

Disassembly of section .text.startup:

000001a8 <main>:
 1a8:	72d9                	lui	t0,0xffff6
 1aa:	7179                	addi	sp,sp,-48
 1ac:	3b028293          	addi	t0,t0,944 # ffff63b0 <__heap_start+0xffff53b0>
 1b0:	d422                	sw	s0,40(sp)
 1b2:	d226                	sw	s1,36(sp)
 1b4:	d04a                	sw	s2,32(sp)
 1b6:	d606                	sw	ra,44(sp)
 1b8:	ce4e                	sw	s3,28(sp)
 1ba:	cc52                	sw	s4,24(sp)
 1bc:	ca56                	sw	s5,20(sp)
 1be:	c85a                	sw	s6,16(sp)
 1c0:	c65e                	sw	s7,12(sp)
 1c2:	6629                	lui	a2,0xa
 1c4:	9116                	add	sp,sp,t0
 1c6:	0808                	addi	a0,sp,16
 1c8:	c4060613          	addi	a2,a2,-960 # 9c40 <__heap_start+0x8c40>
 1cc:	4581                	li	a1,0
 1ce:	35a9                	jal	18 <memset>
 1d0:	4401                	li	s0,0
 1d2:	03a00913          	li	s2,58
 1d6:	06400493          	li	s1,100
 1da:	feb40793          	addi	a5,s0,-21
 1de:	0af97d63          	bgeu	s2,a5,298 <main+0xf0>
 1e2:	0405                	addi	s0,s0,1
 1e4:	fe941be3          	bne	s0,s1,1da <main+0x32>
 1e8:	67a9                	lui	a5,0xa
 1ea:	de078793          	addi	a5,a5,-544 # 9de0 <__heap_start+0x8de0>
 1ee:	1314                	addi	a3,sp,416
 1f0:	00f10633          	add	a2,sp,a5
 1f4:	4401                	li	s0,0
 1f6:	e7068793          	addi	a5,a3,-400
 1fa:	4398                	lw	a4,0(a5)
 1fc:	0791                	addi	a5,a5,4
 1fe:	943a                	add	s0,s0,a4
 200:	fef69de3          	bne	a3,a5,1fa <main+0x52>
 204:	19068693          	addi	a3,a3,400
 208:	fec697e3          	bne	a3,a2,1f6 <main+0x4e>
 20c:	4a81                	li	s5,0
 20e:	00045563          	bgez	s0,218 <main+0x70>
 212:	40800433          	neg	s0,s0
 216:	4a85                	li	s5,1
 218:	00410a13          	addi	s4,sp,4 # 20004 <__heap_start+0x1f004>
 21c:	4981                	li	s3,0
 21e:	4b25                	li	s6,9
 220:	45a9                	li	a1,10
 222:	8522                	mv	a0,s0
 224:	3f91                	jal	178 <__modsi3>
 226:	84ce                	mv	s1,s3
 228:	0985                	addi	s3,s3,1
 22a:	03050793          	addi	a5,a0,48
 22e:	013a0bb3          	add	s7,s4,s3
 232:	fefb8fa3          	sb	a5,-1(s7)
 236:	8522                	mv	a0,s0
 238:	45a9                	li	a1,10
 23a:	8ba2                	mv	s7,s0
 23c:	3d65                	jal	f4 <__divsi3>
 23e:	842a                	mv	s0,a0
 240:	ff7b40e3          	blt	s6,s7,220 <main+0x78>
 244:	000a8a63          	beqz	s5,258 <main+0xb0>
 248:	c5010793          	addi	a5,sp,-944
 24c:	97ce                	add	a5,a5,s3
 24e:	02d00713          	li	a4,45
 252:	84ce                	mv	s1,s3
 254:	3ae78a23          	sb	a4,948(a5)
 258:	0058                	addi	a4,sp,4
 25a:	009707b3          	add	a5,a4,s1
 25e:	000306b7          	lui	a3,0x30
 262:	0007c583          	lbu	a1,0(a5)
 266:	863e                	mv	a2,a5
 268:	17fd                	addi	a5,a5,-1
 26a:	00b68023          	sb	a1,0(a3) # 30000 <__heap_start+0x2f000>
 26e:	fec71ae3          	bne	a4,a2,262 <main+0xba>
 272:	47a9                	li	a5,10
 274:	62a9                	lui	t0,0xa
 276:	00f68023          	sb	a5,0(a3)
 27a:	c5028293          	addi	t0,t0,-944 # 9c50 <__heap_start+0x8c50>
 27e:	9116                	add	sp,sp,t0
 280:	50b2                	lw	ra,44(sp)
 282:	5422                	lw	s0,40(sp)
 284:	5492                	lw	s1,36(sp)
 286:	5902                	lw	s2,32(sp)
 288:	49f2                	lw	s3,28(sp)
 28a:	4a62                	lw	s4,24(sp)
 28c:	4ad2                	lw	s5,20(sp)
 28e:	4b42                	lw	s6,16(sp)
 290:	4bb2                	lw	s7,12(sp)
 292:	4501                	li	a0,0
 294:	6145                	addi	sp,sp,48
 296:	8082                	ret
 298:	c5010a93          	addi	s5,sp,-944
 29c:	4981                	li	s3,0
 29e:	06400b13          	li	s6,100
 2a2:	45e5                	li	a1,25
 2a4:	854e                	mv	a0,s3
 2a6:	35b9                	jal	f4 <__divsi3>
 2a8:	8a2a                	mv	s4,a0
 2aa:	06400593          	li	a1,100
 2ae:	00299513          	slli	a0,s3,0x2
 2b2:	35d9                	jal	178 <__modsi3>
 2b4:	9a22                	add	s4,s4,s0
 2b6:	001a1793          	slli	a5,s4,0x1
 2ba:	97d2                	add	a5,a5,s4
 2bc:	078e                	slli	a5,a5,0x3
 2be:	97d2                	add	a5,a5,s4
 2c0:	078a                	slli	a5,a5,0x2
 2c2:	97aa                	add	a5,a5,a0
 2c4:	078a                	slli	a5,a5,0x2
 2c6:	03298713          	addi	a4,s3,50
 2ca:	97d6                	add	a5,a5,s5
 2cc:	3ce7a023          	sw	a4,960(a5)
 2d0:	0985                	addi	s3,s3,1
 2d2:	fd6998e3          	bne	s3,s6,2a2 <main+0xfa>
 2d6:	0405                	addi	s0,s0,1
 2d8:	b709                	j	1da <main+0x32>

Disassembly of section .riscv.attributes:

00000000 <.riscv.attributes>:
   0:	2041                	jal	80 <memset+0x68>
   2:	0000                	unimp
   4:	7200                	.insn	2, 0x7200
   6:	7369                	lui	t1,0xffffa
   8:	01007663          	bgeu	zero,a6,14 <_start+0x14>
   c:	0016                	c.slli	zero,0x5
   e:	0000                	unimp
  10:	1004                	addi	s1,sp,32
  12:	7205                	lui	tp,0xfffe1
  14:	3376                	.insn	2, 0x3376
  16:	6932                	.insn	2, 0x6932
  18:	7032                	.insn	2, 0x7032
  1a:	5f31                	li	t5,-20
  1c:	30703263          	.insn	4, 0x30703263
	...

Disassembly of section .comment:

00000000 <.comment>:
   0:	3a434347          	.insn	4, 0x3a434347
   4:	2820                	.insn	2, 0x2820
   6:	7241                	lui	tp,0xffff0
   8:	4c206863          	bltu	zero,sp,4d8 <__bss_end+0x1fe>
   c:	6e69                	lui	t3,0x1a
   e:	7875                	lui	a6,0xffffd
  10:	5220                	lw	s0,96(a2)
  12:	7065                	c.lui	zero,0xffff9
  14:	7469736f          	jal	t1,9775a <__heap_start+0x9675a>
  18:	6569726f          	jal	tp,9766e <__heap_start+0x9666e>
  1c:	31202973          	.insn	4, 0x31202973
  20:	2e34                	.insn	2, 0x2e34
  22:	2e31                	jal	33e <__bss_end+0x64>
  24:	0030                	addi	a2,sp,8

Disassembly of section .debug_info:

00000000 <.debug_info>:
   0:	0242                	slli	tp,tp,0x10
   2:	0000                	unimp
   4:	0005                	c.nop	1
   6:	0401                	addi	s0,s0,0
   8:	0000                	unimp
   a:	0000                	unimp
   c:	4f10                	lw	a2,24(a4)
   e:	0000                	unimp
  10:	1d00                	addi	s0,sp,688
  12:	000e                	c.slli	zero,0x3
  14:	0000                	unimp
  16:	0000                	unimp
  18:	0000                	unimp
  1a:	004e                	c.slli	zero,0x13
	...
  24:	0000                	unimp
  26:	9c11                	.insn	2, 0x9c11
  28:	0000                	unimp
  2a:	0100                	addi	s0,sp,128
  2c:	0502                	c.slli64	a0
  2e:	0174                	addi	a3,sp,140
  30:	0000                	unimp
  32:	01a8                	addi	a0,sp,200
  34:	0000                	unimp
  36:	0132                	slli	sp,sp,0xc
  38:	0000                	unimp
  3a:	9c01                	.insn	2, 0x9c01
  3c:	0174                	addi	a3,sp,140
  3e:	0000                	unimp
  40:	6112                	.insn	2, 0x6112
  42:	0100                	addi	s0,sp,128
  44:	0904                	addi	s1,sp,144
  46:	0180                	addi	s0,sp,192
  48:	0000                	unimp
  4a:	9104                	.insn	2, 0x9104
  4c:	c790                	sw	a2,8(a5)
  4e:	047d                	addi	s0,s0,31
  50:	0069                	c.nop	26
  52:	0905                	addi	s2,s2,1
  54:	0174                	addi	a3,sp,140
  56:	0000                	unimp
  58:	000c                	.insn	2, 0x000c
  5a:	0000                	unimp
  5c:	6a04                	.insn	2, 0x6a04
  5e:	0600                	addi	s0,sp,768
  60:	7406                	.insn	2, 0x7406
  62:	0001                	nop
  64:	2f00                	.insn	2, 0x2f00
  66:	0000                	unimp
  68:	0400                	addi	s0,sp,512
  6a:	006d7573          	.insn	4, 0x006d7573
  6e:	01740907          	.insn	4, 0x01740907
  72:	0000                	unimp
  74:	00000047          	.insn	4, 0x0047
  78:	0000b00b          	.insn	4, 0xb00b
  7c:	0c00                	addi	s0,sp,528
  7e:	0174                	addi	a3,sp,140
  80:	0000                	unimp
  82:	0079                	c.nop	30
  84:	0000                	unimp
  86:	0000240b          	.insn	4, 0x240b
  8a:	0d00                	addi	s0,sp,656
  8c:	0174                	addi	a3,sp,140
  8e:	0000                	unimp
  90:	0098                	addi	a4,sp,64
  92:	0000                	unimp
  94:	a20c                	.insn	2, 0xa20c
  96:	0001                	nop
  98:	0c00                	addi	s0,sp,528
  9a:	0002                	c.slli64	zero
  9c:	0c00                	addi	s0,sp,528
  9e:	0000                	unimp
  a0:	0100                	addi	s0,sp,128
  a2:	013f051b          	.insn	4, 0x013f051b
  a6:	0000                	unimp
  a8:	ac01                	j	2b8 <main+0x110>
  aa:	0001                	nop
  ac:	c500                	sw	s0,8(a0)
  ae:	0000                	unimp
  b0:	1300                	addi	s0,sp,416
  b2:	01b8                	addi	a4,sp,200
  b4:	0000                	unimp
  b6:	020c                	addi	a1,sp,256
  b8:	0000                	unimp
  ba:	0066                	c.slli	zero,0x19
  bc:	0000                	unimp
  be:	5302                	lw	t1,32(sp)
  c0:	2405                	jal	2e0 <__bss_end+0x6>
  c2:	0001                	nop
  c4:	0100                	addi	s0,sp,128
  c6:	01c2                	slli	gp,gp,0x10
  c8:	0000                	unimp
  ca:	00c5                	addi	ra,ra,17
  cc:	0000                	unimp
  ce:	cd14                	sw	a3,24(a0)
  d0:	0001                	nop
  d2:	0400                	addi	s0,sp,512
  d4:	8491                	srai	s1,s1,0x4
  d6:	d8057dc7          	.insn	4, 0xd8057dc7
  da:	0001                	nop
  dc:	df00                	sw	s0,56(a4)
  de:	0000                	unimp
  e0:	0500                	addi	s0,sp,640
  e2:	000001e3          	beqz	zero,8e4 <__bss_end+0x60a>
  e6:	000000eb          	.insn	4, 0x00eb
  ea:	ec05                	bnez	s0,122 <__hidden___udivsi3+0x26>
  ec:	0001                	nop
  ee:	4500                	lw	s0,8(a0)
  f0:	0001                	nop
  f2:	0c00                	addi	s0,sp,528
  f4:	0212                	slli	tp,tp,0x4
  f6:	0000                	unimp
  f8:	025e                	slli	tp,tp,0x17
  fa:	0000                	unimp
  fc:	001f 0000 4102      	.insn	6, 0x41020000001f
 102:	1109                	addi	sp,sp,-30
 104:	0001                	nop
 106:	0100                	addi	s0,sp,128
 108:	021c                	addi	a5,sp,256
 10a:	0000                	unimp
 10c:	0169                	addi	sp,sp,26
 10e:	0000                	unimp
 110:	0200                	addi	s0,sp,256
 112:	0226                	slli	tp,tp,0x9
 114:	0000                	unimp
 116:	0228                	addi	a0,sp,264
 118:	0000                	unimp
 11a:	3e02                	.insn	2, 0x3e02
 11c:	0002                	c.slli64	zero
 11e:	3100                	.insn	2, 0x3100
 120:	0002                	c.slli64	zero
 122:	0000                	unimp
 124:	1215                	addi	tp,tp,-27 # fffeffe5 <__heap_start+0xfffeefe5>
 126:	0002                	c.slli64	zero
 128:	7200                	.insn	2, 0x7200
 12a:	0002                	c.slli64	zero
 12c:	3b00                	.insn	2, 0x3b00
 12e:	0000                	unimp
 130:	0200                	addi	s0,sp,256
 132:	0254                	addi	a3,sp,260
 134:	1c01                	addi	s8,s8,-32
 136:	0002                	c.slli64	zero
 138:	8200                	.insn	2, 0x8200
 13a:	0001                	nop
 13c:	0000                	unimp
 13e:	1600                	addi	s0,sp,800
 140:	01d0                	addi	a2,sp,196
 142:	0000                	unimp
 144:	023a                	slli	tp,tp,0xe
 146:	0000                	unimp
 148:	0161                	addi	sp,sp,24
 14a:	0000                	unimp
 14c:	0106                	slli	sp,sp,0x1
 14e:	045a                	slli	s0,s0,0x16
 150:	9091                	srli	s1,s1,0x24
 152:	01067dc7          	.insn	4, 0x01067dc7
 156:	0630015b          	.insn	4, 0x0630015b
 15a:	5c01                	li	s8,-32
 15c:	9c400a03          	lb	s4,-1596(zero) # fffff9c4 <__heap_start+0xffffe9c4>
 160:	0200                	addi	s0,sp,256
 162:	02a8                	addi	a0,sp,328
 164:	0000                	unimp
 166:	0231                	addi	tp,tp,12 # c <_start+0xc>
 168:	0000                	unimp
 16a:	b402                	.insn	2, 0xb402
 16c:	0002                	c.slli64	zero
 16e:	2800                	.insn	2, 0x2800
 170:	0002                	c.slli64	zero
 172:	0000                	unimp
 174:	69050417          	auipc	s0,0x69050
 178:	746e                	.insn	2, 0x746e
 17a:	0700                	addi	s0,sp,896
 17c:	0174                	addi	a3,sp,140
 17e:	0000                	unimp
 180:	740d                	lui	s0,0xfffe3
 182:	0001                	nop
 184:	9600                	.insn	2, 0x9600
 186:	0001                	nop
 188:	0800                	addi	s0,sp,16
 18a:	0196                	slli	gp,gp,0x5
 18c:	0000                	unimp
 18e:	01960863          	beq	a2,s9,19e <__modsi3+0x26>
 192:	0000                	unimp
 194:	040e0063          	beqz	t3,1d4 <main+0x2c>
 198:	00000007          	.insn	4, 0x0007
 19c:	0700                	addi	s0,sp,896
 19e:	0196                	slli	gp,gp,0x5
 1a0:	0000                	unimp
 1a2:	3f09                	jal	b4 <memset+0x9c>
 1a4:	0000                	unimp
 1a6:	5100                	lw	s0,32(a0)
 1a8:	01b8                	addi	a4,sp,200
 1aa:	0000                	unimp
 1ac:	a10a                	.insn	2, 0xa10a
 1ae:	0000                	unimp
 1b0:	5100                	lw	s0,32(a0)
 1b2:	9d2e                	add	s10,s10,a1
 1b4:	0001                	nop
 1b6:	0000                	unimp
 1b8:	ab09                	j	6ca <__bss_end+0x3f0>
 1ba:	0000                	unimp
 1bc:	3200                	.insn	2, 0x3200
 1be:	01f6                	slli	gp,gp,0x1d
 1c0:	0000                	unimp
 1c2:	a10a                	.insn	2, 0xa10a
 1c4:	0000                	unimp
 1c6:	3200                	.insn	2, 0x3200
 1c8:	00017b23          	.insn	4, 0x00017b23
 1cc:	0300                	addi	s0,sp,384
 1ce:	00727473          	.insn	4, 0x00727473
 1d2:	1334                	addi	a3,sp,424
 1d4:	01f6                	slli	gp,gp,0x1d
 1d6:	0000                	unimp
 1d8:	706d7403          	.insn	4, 0x706d7403
 1dc:	3500                	.insn	2, 0x3500
 1de:	7409                	lui	s0,0xfffe2
 1e0:	0001                	nop
 1e2:	0300                	addi	s0,sp,384
 1e4:	0069                	c.nop	26
 1e6:	0936                	slli	s2,s2,0xd
 1e8:	0174                	addi	a3,sp,140
 1ea:	0000                	unimp
 1ec:	36007303          	.insn	4, 0x36007303
 1f0:	740e                	.insn	2, 0x740e
 1f2:	0001                	nop
 1f4:	0000                	unimp
 1f6:	060d                	addi	a2,a2,3
 1f8:	0002                	c.slli64	zero
 1fa:	0600                	addi	s0,sp,768
 1fc:	0002                	c.slli64	zero
 1fe:	0800                	addi	s0,sp,16
 200:	0196                	slli	gp,gp,0x5
 202:	0000                	unimp
 204:	010e000b          	.insn	4, 0x010e000b
 208:	0d08                	addi	a0,sp,656
 20a:	0000                	unimp
 20c:	0700                	addi	s0,sp,896
 20e:	0206                	slli	tp,tp,0x1
 210:	0000                	unimp
 212:	a609                	j	514 <__bss_end+0x23a>
 214:	0000                	unimp
 216:	1200                	addi	s0,sp,288
 218:	0228                	addi	a0,sp,264
 21a:	0000                	unimp
 21c:	a10a                	.insn	2, 0xa10a
 21e:	0000                	unimp
 220:	1200                	addi	s0,sp,288
 222:	0d2d                	addi	s10,s10,11
 224:	0002                	c.slli64	zero
 226:	0000                	unimp
 228:	0000460f          	.insn	4, 0x460f
 22c:	4600                	lw	s0,8(a2)
 22e:	0000                	unimp
 230:	0f00                	addi	s0,sp,912
 232:	0000001b          	.insn	4, 0x001b
 236:	0000001b          	.insn	4, 0x001b
 23a:	3818                	.insn	2, 0x3818
 23c:	0000                	unimp
 23e:	2e00                	.insn	2, 0x2e00
 240:	0000                	unimp
 242:	0300                	addi	s0,sp,384
 244:	0000                	unimp
 246:	0000002f          	.insn	4, 0x002f
 24a:	0005                	c.nop	1
 24c:	0401                	addi	s0,s0,0 # fffe2000 <__heap_start+0xfffe1000>
 24e:	00000157          	.insn	4, 0x0157
 252:	5401                	li	s0,-32
 254:	18000003          	lb	zero,384(zero) # 180 <__modsi3+0x8>
 258:	0000                	unimp
 25a:	dc00                	sw	s0,56(s0)
 25c:	b901                	j	fffffe6c <__heap_start+0xffffee6c>
 25e:	0000                	unimp
 260:	0100                	addi	s0,sp,128
 262:	0001                	nop
 264:	4b00                	lw	s0,16(a4)
 266:	0001                	nop
 268:	0100                	addi	s0,sp,128
 26a:	0280                	addi	s0,sp,320
 26c:	0038                	addi	a4,sp,8
 26e:	0000                	unimp
 270:	1831                	addi	a6,a6,-20 # ffffcfec <__heap_start+0xffffbfec>
 272:	0000                	unimp
 274:	dc00                	sw	s0,56(s0)
 276:	0301                	addi	t1,t1,0 # ffffa000 <__heap_start+0xffff9000>
 278:	5500                	lw	s0,40(a0)
 27a:	0000                	unimp
 27c:	0500                	addi	s0,sp,640
 27e:	0100                	addi	s0,sp,128
 280:	7f04                	.insn	2, 0x7f04
 282:	0001                	nop
 284:	0100                	addi	s0,sp,128
 286:	04e2                	slli	s1,s1,0x18
 288:	0000                	unimp
 28a:	00f4                	addi	a3,sp,76
 28c:	0000                	unimp
 28e:	01b4                	addi	a3,sp,200
 290:	00000157          	.insn	4, 0x0157
 294:	00000197          	auipc	gp,0x0
 298:	000001db          	.insn	4, 0x01db
 29c:	8001                	c.srli64	s0
 29e:	1b02                	slli	s6,s6,0x20
 2a0:	0000                	unimp
 2a2:	f400                	.insn	2, 0xf400
 2a4:	0000                	unimp
 2a6:	8400                	.insn	2, 0x8400
 2a8:	0201                	addi	tp,tp,0 # 0 <_start>
 2aa:	01f0                	addi	a2,sp,204
 2ac:	0000                	unimp
 2ae:	00fc                	addi	a5,sp,76
 2b0:	0000                	unimp
 2b2:	0248                	addi	a0,sp,260
 2b4:	000001e7          	jalr	gp,zero # 0 <_start>
 2b8:	00fc                	addi	a5,sp,76
 2ba:	0000                	unimp
 2bc:	0248                	addi	a0,sp,260
 2be:	01fa                	slli	gp,gp,0x1e
 2c0:	0000                	unimp
 2c2:	0144                	addi	s1,sp,132
 2c4:	0000                	unimp
 2c6:	0210                	addi	a2,sp,256
 2c8:	0046                	c.slli	zero,0x11
 2ca:	0000                	unimp
 2cc:	0178                	addi	a4,sp,140
 2ce:	0000                	unimp
 2d0:	0030                	addi	a2,sp,8

Disassembly of section .debug_abbrev:

00000000 <.debug_abbrev>:
   0:	0501                	addi	a0,a0,0
   2:	3100                	.insn	2, 0x3100
   4:	00170213          	addi	tp,a4,1
   8:	0200                	addi	s0,sp,256
   a:	0048                	addi	a0,sp,4
   c:	017d                	addi	sp,sp,31
   e:	0000137f 03003403 	.insn	12, 0x02213a08030034030000137f
  16:	02213a08 
  1a:	0b390b3b          	.insn	4, 0x0b390b3b
  1e:	1349                	addi	t1,t1,-14
  20:	0000                	unimp
  22:	3404                	.insn	2, 0x3404
  24:	0300                	addi	s0,sp,384
  26:	3a08                	.insn	2, 0x3a08
  28:	0121                	addi	sp,sp,8
  2a:	0b390b3b          	.insn	4, 0x0b390b3b
  2e:	1349                	addi	t1,t1,-14
  30:	1702                	slli	a4,a4,0x20
  32:	0000                	unimp
  34:	3405                	jal	fffffa54 <__heap_start+0xffffea54>
  36:	3100                	.insn	2, 0x3100
  38:	00170213          	addi	tp,a4,1
  3c:	0600                	addi	s0,sp,768
  3e:	0049                	c.nop	18
  40:	1802                	slli	a6,a6,0x20
  42:	187e                	slli	a6,a6,0x3f
  44:	0000                	unimp
  46:	49002607          	.insn	4, 0x49002607
  4a:	08000013          	li	zero,128
  4e:	0021                	c.nop	8
  50:	1349                	addi	t1,t1,-14
  52:	00000b2f          	.insn	4, 0x0b2f
  56:	2e09                	jal	368 <__bss_end+0x8e>
  58:	0301                	addi	t1,t1,0
  5a:	3a0e                	.insn	2, 0x3a0e
  5c:	0221                	addi	tp,tp,8 # 8 <_start+0x8>
  5e:	21390b3b          	.insn	4, 0x21390b3b
  62:	2714                	.insn	2, 0x2714
  64:	2019                	jal	6a <memset+0x52>
  66:	0321                	addi	t1,t1,8
  68:	1301                	addi	t1,t1,-32
  6a:	0000                	unimp
  6c:	050a                	slli	a0,a0,0x2
  6e:	0300                	addi	s0,sp,384
  70:	3a0e                	.insn	2, 0x3a0e
  72:	0221                	addi	tp,tp,8 # 8 <_start+0x8>
  74:	0b390b3b          	.insn	4, 0x0b390b3b
  78:	1349                	addi	t1,t1,-14
  7a:	0000                	unimp
  7c:	0300340b          	.insn	4, 0x0300340b
  80:	3a0e                	.insn	2, 0x3a0e
  82:	0121                	addi	sp,sp,8
  84:	21390b3b          	.insn	4, 0x21390b3b
  88:	4909                	li	s2,2
  8a:	00170213          	addi	tp,a4,1
  8e:	0c00                	addi	s0,sp,528
  90:	011d                	addi	sp,sp,7
  92:	1331                	addi	t1,t1,-20
  94:	0152                	slli	sp,sp,0x14
  96:	1755                	addi	a4,a4,-11
  98:	0b58                	addi	a4,sp,404
  9a:	0b59                	addi	s6,s6,22
  9c:	13010b57          	.insn	4, 0x13010b57
  a0:	0000                	unimp
  a2:	010d                	addi	sp,sp,3
  a4:	4901                	li	s2,0
  a6:	00130113          	addi	sp,t1,1
  aa:	0e00                	addi	s0,sp,784
  ac:	0024                	addi	s1,sp,8
  ae:	0b3e0b0b          	.insn	4, 0x0b3e0b0b
  b2:	00000e03          	lb	t3,0(zero) # 0 <_start>
  b6:	3f002e0f          	.insn	4, 0x3f002e0f
  ba:	3c19                	jal	fffffad0 <__heap_start+0xffffead0>
  bc:	6e19                	lui	t3,0x6
  be:	030e                	slli	t1,t1,0x3
  c0:	000e                	c.slli	zero,0x3
  c2:	1000                	addi	s0,sp,32
  c4:	0111                	addi	sp,sp,4
  c6:	0e25                	addi	t3,t3,9 # 6009 <__heap_start+0x5009>
  c8:	1f030b13          	addi	s6,t1,496
  cc:	17551f1b          	.insn	4, 0x17551f1b
  d0:	0111                	addi	sp,sp,4
  d2:	1710                	addi	a2,sp,928
  d4:	0000                	unimp
  d6:	2e11                	jal	3ea <__bss_end+0x110>
  d8:	3f01                	jal	ffffffe8 <__heap_start+0xffffefe8>
  da:	0319                	addi	t1,t1,6
  dc:	3a0e                	.insn	2, 0x3a0e
  de:	390b3b0b          	.insn	4, 0x390b3b0b
  e2:	1113490b          	.insn	4, 0x1113490b
  e6:	1201                	addi	tp,tp,-32 # ffffffe0 <__heap_start+0xffffefe0>
  e8:	4006                	.insn	2, 0x4006
  ea:	7a18                	.insn	2, 0x7a18
  ec:	0119                	addi	sp,sp,6
  ee:	12000013          	li	zero,288
  f2:	0034                	addi	a3,sp,8
  f4:	0b3a0803          	lb	a6,179(s4)
  f8:	0b390b3b          	.insn	4, 0x0b390b3b
  fc:	1349                	addi	t1,t1,-14
  fe:	1802                	slli	a6,a6,0x20
 100:	0000                	unimp
 102:	31011d13          	.insn	4, 0x31011d13
 106:	12011113          	.insn	4, 0x12011113
 10a:	5806                	lw	a6,96(sp)
 10c:	570b590b          	.insn	4, 0x570b590b
 110:	0013010b          	.insn	4, 0x0013010b
 114:	1400                	addi	s0,sp,544
 116:	0034                	addi	a3,sp,8
 118:	1331                	addi	t1,t1,-20
 11a:	1802                	slli	a6,a6,0x20
 11c:	0000                	unimp
 11e:	1d15                	addi	s10,s10,-27
 120:	3101                	jal	fffffd20 <__heap_start+0xffffed20>
 122:	55015213          	.insn	4, 0x55015213
 126:	590b5817          	auipc	a6,0x590b5
 12a:	000b570b          	.insn	4, 0x000b570b
 12e:	1600                	addi	s0,sp,800
 130:	0148                	addi	a0,sp,132
 132:	017d                	addi	sp,sp,31
 134:	1301137f 24170000 	.insn	12, 0x3e0b0b00241700001301137f
 13c:	3e0b0b00 
 140:	0008030b          	.insn	4, 0x0008030b
 144:	1800                	addi	s0,sp,48
 146:	002e                	c.slli	zero,0xb
 148:	193c193f 0e030e6e 	.insn	8, 0x0e030e6e193c193f
 150:	0b3a                	slli	s6,s6,0xe
 152:	00000b3b          	.insn	4, 0x0b3b
 156:	0100                	addi	s0,sp,128
 158:	0111                	addi	sp,sp,4
 15a:	1710                	addi	a2,sp,928
 15c:	0111                	addi	sp,sp,4
 15e:	0f12                	slli	t5,t5,0x4
 160:	0e1b0e03          	lb	t3,225(s6)
 164:	0e25                	addi	t3,t3,9
 166:	00000513          	li	a0,0
 16a:	2e02                	.insn	2, 0x2e02
 16c:	0300                	addi	s0,sp,384
 16e:	3f0e                	.insn	2, 0x3f0e
 170:	4919                	li	s2,6
 172:	1115                	addi	sp,sp,-27
 174:	1201                	addi	tp,tp,-32 # ffffffe0 <__heap_start+0xffffefe0>
 176:	0300000f          	fence	rw,unknown
 17a:	0000003b          	.insn	4, 0x003b
 17e:	0100                	addi	s0,sp,128
 180:	0111                	addi	sp,sp,4
 182:	1710                	addi	a2,sp,928
 184:	0111                	addi	sp,sp,4
 186:	0f12                	slli	t5,t5,0x4
 188:	0e1b0e03          	lb	t3,225(s6)
 18c:	0e25                	addi	t3,t3,9
 18e:	00000513          	li	a0,0
 192:	2e02                	.insn	2, 0x2e02
 194:	0300                	addi	s0,sp,384
 196:	3f0e                	.insn	2, 0x3f0e
 198:	1119                	addi	sp,sp,-26
 19a:	1201                	addi	tp,tp,-32 # ffffffe0 <__heap_start+0xffffefe0>
 19c:	0000000f          	fence	unknown,unknown

Disassembly of section .debug_loclists:

00000000 <.debug_loclists>:
   0:	0000018b          	.insn	4, 0x018b
   4:	0005                	c.nop	1
   6:	0004                	.insn	2, 0x0004
   8:	0000                	unimp
   a:	0000                	unimp
   c:	0001a807          	.insn	4, 0x0001a807
  10:	d000                	sw	s0,32(s0)
  12:	0001                	nop
  14:	0200                	addi	s0,sp,256
  16:	9f30                	.insn	2, 0x9f30
  18:	0001da07          	.insn	4, 0x0001da07
  1c:	f600                	.insn	2, 0xf600
  1e:	0001                	nop
  20:	0100                	addi	s0,sp,128
  22:	0758                	addi	a4,sp,900
  24:	0298                	addi	a4,sp,320
  26:	0000                	unimp
  28:	02da                	slli	t0,t0,0x16
  2a:	0000                	unimp
  2c:	5801                	li	a6,-32
  2e:	0700                	addi	s0,sp,896
  30:	01f6                	slli	gp,gp,0x1d
  32:	0000                	unimp
  34:	01fa                	slli	gp,gp,0x1e
  36:	0000                	unimp
  38:	3002                	.insn	2, 0x3002
  3a:	079f 02a2 0000      	.insn	6, 0x02a2079f
  40:	02da                	slli	t0,t0,0x16
  42:	0000                	unimp
  44:	6301                	.insn	2, 0x6301
  46:	0700                	addi	s0,sp,896
  48:	01a8                	addi	a0,sp,200
  4a:	0000                	unimp
  4c:	01f6                	slli	gp,gp,0x1d
  4e:	0000                	unimp
  50:	3002                	.insn	2, 0x3002
  52:	079f 01f6 0000      	.insn	6, 0x01f6079f
  58:	0216                	slli	tp,tp,0x5
  5a:	0000                	unimp
  5c:	5801                	li	a6,-32
  5e:	00021607          	.insn	4, 0x00021607
  62:	1800                	addi	s0,sp,48
  64:	0002                	c.slli64	zero
  66:	0400                	addi	s0,sp,512
  68:	0078                	addi	a4,sp,12
  6a:	9f1f 9807 0002      	.insn	6, 0x000298079f1f
  70:	da00                	sw	s0,48(a2)
  72:	0002                	c.slli64	zero
  74:	0200                	addi	s0,sp,256
  76:	9f30                	.insn	2, 0x9f30
  78:	0700                	addi	s0,sp,896
  7a:	02a2                	slli	t0,t0,0x8
  7c:	0000                	unimp
  7e:	02d2                	slli	t0,t0,0x14
  80:	0000                	unimp
  82:	8305                	srli	a4,a4,0x1
  84:	4900                	lw	s0,16(a0)
  86:	d2079f1b          	.insn	4, 0xd2079f1b
  8a:	0002                	c.slli64	zero
  8c:	da00                	sw	s0,48(a2)
  8e:	0002                	c.slli64	zero
  90:	0500                	addi	s0,sp,640
  92:	1b497f83          	.insn	4, 0x1b497f83
  96:	009f a207 0002      	.insn	6, 0x0002a207009f
  9c:	d200                	sw	s0,32(a2)
  9e:	0002                	c.slli64	zero
  a0:	0c00                	addi	s0,sp,528
  a2:	24320083          	lb	ra,579(tp) # 243 <main+0x9b>
  a6:	6408                	.insn	2, 0x6408
  a8:	1414                	addi	a3,sp,544
  aa:	9f1c1e1b          	.insn	4, 0x9f1c1e1b
  ae:	0002d207          	.insn	4, 0x0002d207
  b2:	da00                	sw	s0,48(a2)
  b4:	0002                	c.slli64	zero
  b6:	0c00                	addi	s0,sp,528
  b8:	24327f83          	.insn	4, 0x24327f83
  bc:	6408                	.insn	2, 0x6408
  be:	1414                	addi	a3,sp,544
  c0:	9f1c1e1b          	.insn	4, 0x9f1c1e1b
  c4:	0700                	addi	s0,sp,896
  c6:	020c                	addi	a1,sp,256
  c8:	0000                	unimp
  ca:	0216                	slli	tp,tp,0x5
  cc:	0000                	unimp
  ce:	5801                	li	a6,-32
  d0:	00021607          	.insn	4, 0x00021607
  d4:	1800                	addi	s0,sp,48
  d6:	0002                	c.slli64	zero
  d8:	0400                	addi	s0,sp,512
  da:	0078                	addi	a4,sp,12
  dc:	9f1f 0700 020c      	.insn	6, 0x020c07009f1f
  e2:	0000                	unimp
  e4:	0272                	slli	tp,tp,0x1c
  e6:	0000                	unimp
  e8:	5801                	li	a6,-32
  ea:	0700                	addi	s0,sp,896
  ec:	020c                	addi	a1,sp,256
  ee:	0000                	unimp
  f0:	0220                	addi	s0,sp,264
  f2:	0000                	unimp
  f4:	3002                	.insn	2, 0x3002
  f6:	079f 0220 0000      	.insn	6, 0x0220079f
  fc:	0248                	addi	a0,sp,260
  fe:	0000                	unimp
 100:	6301                	.insn	2, 0x6301
 102:	00024807          	.insn	4, 0x00024807
 106:	5400                	lw	s0,40(s0)
 108:	0002                	c.slli64	zero
 10a:	0300                	addi	s0,sp,384
 10c:	0279                	addi	tp,tp,30 # 1e <memset+0x6>
 10e:	079f 0254 0000      	.insn	6, 0x0254079f
 114:	0258                	addi	a4,sp,260
 116:	0000                	unimp
 118:	9f018303          	lb	t1,-1552(gp) # fffffc84 <__heap_start+0xffffec84>
 11c:	00026207          	.insn	4, 0x00026207
 120:	6a00                	.insn	2, 0x6a00
 122:	0002                	c.slli64	zero
 124:	0a00                	addi	s0,sp,272
 126:	007f 0091 231c b8fc 	.insn	10, 0x9f02b8fc231c0091007f
 12e:	9f02 
 130:	00026a07          	.insn	4, 0x00026a07
 134:	6e00                	.insn	2, 0x6e00
 136:	0002                	c.slli64	zero
 138:	0a00                	addi	s0,sp,272
 13a:	007c                	addi	a5,sp,12
 13c:	0091                	addi	ra,ra,4
 13e:	231c                	.insn	2, 0x231c
 140:	b8fc                	.insn	2, 0xb8fc
 142:	9f02                	jalr	t5
 144:	0700                	addi	s0,sp,896
 146:	020c                	addi	a1,sp,256
 148:	0000                	unimp
 14a:	0212                	slli	tp,tp,0x4
 14c:	0000                	unimp
 14e:	3002                	.insn	2, 0x3002
 150:	079f 0212 0000      	.insn	6, 0x0212079f
 156:	0218                	addi	a4,sp,256
 158:	0000                	unimp
 15a:	3102                	.insn	2, 0x3102
 15c:	079f 0220 0000      	.insn	6, 0x0220079f
 162:	0272                	slli	tp,tp,0x1c
 164:	0000                	unimp
 166:	6501                	.insn	2, 0x6501
 168:	0700                	addi	s0,sp,896
 16a:	0266                	slli	tp,tp,0x19
 16c:	0000                	unimp
 16e:	026a                	slli	tp,tp,0x1a
 170:	0000                	unimp
 172:	7f02                	.insn	2, 0x7f02
 174:	0700                	addi	s0,sp,896
 176:	026a                	slli	tp,tp,0x1a
 178:	0000                	unimp
 17a:	026e                	slli	tp,tp,0x1b
 17c:	0000                	unimp
 17e:	7c02                	.insn	2, 0x7c02
 180:	0000                	unimp
 182:	00027207          	.insn	4, 0x00027207
 186:	7a00                	.insn	2, 0x7a00
 188:	0002                	c.slli64	zero
 18a:	0200                	addi	s0,sp,256
 18c:	9f3a                	add	t5,t5,a4
	...

Disassembly of section .debug_aranges:

00000000 <.debug_aranges>:
   0:	001c                	.insn	2, 0x001c
   2:	0000                	unimp
   4:	0002                	c.slli64	zero
   6:	0000                	unimp
   8:	0000                	unimp
   a:	0004                	.insn	2, 0x0004
   c:	0000                	unimp
   e:	0000                	unimp
  10:	01a8                	addi	a0,sp,200
  12:	0000                	unimp
  14:	0132                	slli	sp,sp,0xc
	...
  1e:	0000                	unimp
  20:	001c                	.insn	2, 0x001c
  22:	0000                	unimp
  24:	0002                	c.slli64	zero
  26:	0246                	slli	tp,tp,0x11
  28:	0000                	unimp
  2a:	0004                	.insn	2, 0x0004
  2c:	0000                	unimp
  2e:	0000                	unimp
  30:	0018                	.insn	2, 0x0018
  32:	0000                	unimp
  34:	00dc                	addi	a5,sp,68
	...
  3e:	0000                	unimp
  40:	001c                	.insn	2, 0x001c
  42:	0000                	unimp
  44:	0002                	c.slli64	zero
  46:	0279                	addi	tp,tp,30 # 1e <memset+0x6>
  48:	0000                	unimp
  4a:	0004                	.insn	2, 0x0004
  4c:	0000                	unimp
  4e:	0000                	unimp
  50:	00f4                	addi	a3,sp,76
  52:	0000                	unimp
  54:	00b4                	addi	a3,sp,72
	...

Disassembly of section .debug_rnglists:

00000000 <.debug_rnglists>:
   0:	0054                	addi	a3,sp,4
   2:	0000                	unimp
   4:	0005                	c.nop	1
   6:	0004                	.insn	2, 0x0004
   8:	0000                	unimp
   a:	0000                	unimp
   c:	0c06                	slli	s8,s8,0x1
   e:	0002                	c.slli64	zero
  10:	7400                	.insn	2, 0x7400
  12:	0002                	c.slli64	zero
  14:	0600                	addi	s0,sp,768
  16:	0276                	slli	tp,tp,0x1d
  18:	0000                	unimp
  1a:	027a                	slli	tp,tp,0x1e
  1c:	0000                	unimp
  1e:	0600                	addi	s0,sp,768
  20:	025e                	slli	tp,tp,0x17
  22:	0000                	unimp
  24:	0262                	slli	tp,tp,0x18
  26:	0000                	unimp
  28:	6606                	.insn	2, 0x6606
  2a:	0002                	c.slli64	zero
  2c:	6800                	.insn	2, 0x6800
  2e:	0002                	c.slli64	zero
  30:	0600                	addi	s0,sp,768
  32:	026a                	slli	tp,tp,0x1a
  34:	0000                	unimp
  36:	026e                	slli	tp,tp,0x1b
  38:	0000                	unimp
  3a:	0600                	addi	s0,sp,768
  3c:	0272                	slli	tp,tp,0x1c
  3e:	0000                	unimp
  40:	0274                	addi	a3,sp,268
  42:	0000                	unimp
  44:	7606                	.insn	2, 0x7606
  46:	0002                	c.slli64	zero
  48:	7a00                	.insn	2, 0x7a00
  4a:	0002                	c.slli64	zero
  4c:	0000                	unimp
  4e:	a806                	.insn	2, 0xa806
  50:	0001                	nop
  52:	da00                	sw	s0,48(a2)
  54:	0002                	c.slli64	zero
	...

Disassembly of section .debug_line:

00000000 <.debug_line>:
   0:	0350                	addi	a2,sp,388
   2:	0000                	unimp
   4:	0005                	c.nop	1
   6:	0004                	.insn	2, 0x0004
   8:	0038                	addi	a4,sp,8
   a:	0000                	unimp
   c:	0101                	addi	sp,sp,0
   e:	fb01                	bnez	a4,ffffff1e <__heap_start+0xffffef1e>
  10:	0d0e                	slli	s10,s10,0x3
  12:	0100                	addi	s0,sp,128
  14:	0101                	addi	sp,sp,0
  16:	0001                	nop
  18:	0000                	unimp
  1a:	0001                	nop
  1c:	0100                	addi	s0,sp,128
  1e:	0101                	addi	sp,sp,0
  20:	021f 0000 0000      	.insn	6, 0x021f
  26:	002c                	addi	a1,sp,8
  28:	0000                	unimp
  2a:	0102                	c.slli64	sp
  2c:	021f 040f 0020      	.insn	6, 0x0020040f021f
  32:	0000                	unimp
  34:	2001                	jal	34 <memset+0x1c>
  36:	0000                	unimp
  38:	0100                	addi	s0,sp,128
  3a:	003e                	c.slli	zero,0xf
  3c:	0000                	unimp
  3e:	4300                	lw	s0,0(a4)
  40:	0000                	unimp
  42:	0000                	unimp
  44:	0105                	addi	sp,sp,1
  46:	0500                	addi	s0,sp,640
  48:	a802                	.insn	2, 0xa802
  4a:	0001                	nop
  4c:	1400                	addi	s0,sp,544
  4e:	0505                	addi	a0,a0,1
  50:	00090103          	lb	sp,0(s2)
  54:	0100                	addi	s0,sp,128
  56:	00090103          	lb	sp,0(s2)
  5a:	0100                	addi	s0,sp,128
  5c:	0205                	addi	tp,tp,1 # 1 <_start+0x1>
  5e:	00090103          	lb	sp,0(s2)
  62:	0100                	addi	s0,sp,128
  64:	0505                	addi	a0,a0,1
  66:	00090103          	lb	sp,0(s2)
  6a:	0100                	addi	s0,sp,128
  6c:	00090203          	lb	tp,0(s2)
  70:	0100                	addi	s0,sp,128
  72:	1205                	addi	tp,tp,-31 # ffffffe1 <__heap_start+0xffffefe1>
  74:	0200                	addi	s0,sp,256
  76:	0104                	addi	s1,sp,128
  78:	00090003          	lb	zero,0(s2)
  7c:	0100                	addi	s0,sp,128
  7e:	0105                	addi	sp,sp,1
  80:	0306                	slli	t1,t1,0x1
  82:	097a                	slli	s2,s2,0x1e
  84:	0000                	unimp
  86:	0501                	addi	a0,a0,0
  88:	0315                	addi	t1,t1,5
  8a:	0908                	addi	a0,sp,144
  8c:	001a                	c.slli	zero,0x6
  8e:	0501                	addi	a0,a0,0
  90:	0301                	addi	t1,t1,0
  92:	0978                	addi	a4,sp,156
  94:	0002                	c.slli64	zero
  96:	0501                	addi	a0,a0,0
  98:	0315                	addi	t1,t1,5
  9a:	0908                	addi	a0,sp,144
  9c:	0002                	c.slli64	zero
  9e:	0501                	addi	a0,a0,0
  a0:	030c                	addi	a1,sp,384
  a2:	000a0903          	lb	s2,0(s4)
  a6:	0501                	addi	a0,a0,0
  a8:	0309                	addi	t1,t1,2
  aa:	0901                	addi	s2,s2,0
  ac:	0002                	c.slli64	zero
  ae:	0501                	addi	a0,a0,0
  b0:	0012                	c.slli	zero,0x4
  b2:	0402                	c.slli64	s0
  b4:	0301                	addi	t1,t1,0
  b6:	097f 0004 0501 0606 	.insn	10, 0x0103060605010004097f
  be:	0103 
  c0:	0409                	addi	s0,s0,2
  c2:	0100                	addi	s0,sp,128
  c4:	0905                	addi	s2,s2,1
  c6:	0306                	slli	t1,t1,0x1
  c8:	0900                	addi	s0,sp,144
  ca:	0000                	unimp
  cc:	0501                	addi	a0,a0,0
  ce:	0019                	c.nop	6
  d0:	0402                	c.slli64	s0
  d2:	0602                	c.slli64	a2
  d4:	08097f03          	.insn	4, 0x08097f03
  d8:	0100                	addi	s0,sp,128
  da:	1205                	addi	tp,tp,-31 # ffffffe1 <__heap_start+0xffffefe1>
  dc:	0200                	addi	s0,sp,256
  de:	0104                	addi	s1,sp,128
  e0:	02090003          	lb	zero,32(s2)
  e4:	0100                	addi	s0,sp,128
  e6:	0905                	addi	s2,s2,1
  e8:	0306                	slli	t1,t1,0x1
  ea:	0979                	addi	s2,s2,30
  ec:	0010                	.insn	2, 0x0010
  ee:	0501                	addi	a0,a0,0
  f0:	0016                	c.slli	zero,0x5
  f2:	0402                	c.slli64	s0
  f4:	0601                	addi	a2,a2,0
  f6:	02091203          	lh	tp,32(s2)
  fa:	0100                	addi	s0,sp,128
  fc:	0d05                	addi	s10,s10,1
  fe:	04090103          	lb	sp,64(s2)
 102:	0100                	addi	s0,sp,128
 104:	1105                	addi	sp,sp,-31
 106:	0306                	slli	t1,t1,0x1
 108:	0900                	addi	s0,sp,144
 10a:	0000                	unimp
 10c:	0501                	addi	a0,a0,0
 10e:	0016                	c.slli	zero,0x5
 110:	0402                	c.slli64	s0
 112:	0301                	addi	t1,t1,0
 114:	097f 0002 0501 0311 	.insn	10, 0x0901031105010002097f
 11c:	0901 
 11e:	0002                	c.slli64	zero
 120:	0501                	addi	a0,a0,0
 122:	001d                	c.nop	7
 124:	0402                	c.slli64	s0
 126:	7f030603          	lb	a2,2032(t1)
 12a:	0209                	addi	tp,tp,2 # 2 <_start+0x2>
 12c:	0100                	addi	s0,sp,128
 12e:	1605                	addi	a2,a2,-31
 130:	0200                	addi	s0,sp,256
 132:	0104                	addi	s1,sp,128
 134:	00090003          	lb	zero,0(s2)
 138:	0100                	addi	s0,sp,128
 13a:	1905                	addi	s2,s2,-31
 13c:	0200                	addi	s0,sp,256
 13e:	0204                	addi	s1,sp,256
 140:	04097f03          	.insn	4, 0x04097f03
 144:	0100                	addi	s0,sp,128
 146:	1205                	addi	tp,tp,-31 # ffffffe1 <__heap_start+0xffffefe1>
 148:	0200                	addi	s0,sp,256
 14a:	0104                	addi	s1,sp,128
 14c:	00090003          	lb	zero,0(s2)
 150:	0100                	addi	s0,sp,128
 152:	0505                	addi	a0,a0,1
 154:	08090303          	lb	t1,128(s2)
 158:	0100                	addi	s0,sp,128
 15a:	0204                	addi	s1,sp,256
 15c:	00093803          	.insn	4, 0x00093803
 160:	0100                	addi	s0,sp,128
 162:	00096103          	.insn	4, 0x00096103
 166:	0100                	addi	s0,sp,128
 168:	00090103          	lb	sp,0(s2)
 16c:	0100                	addi	s0,sp,128
 16e:	00090103          	lb	sp,0(s2)
 172:	0100                	addi	s0,sp,128
 174:	00090103          	lb	sp,0(s2)
 178:	0100                	addi	s0,sp,128
 17a:	0e05                	addi	t3,t3,1
 17c:	0306                	slli	t1,t1,0x1
 17e:	097f 0000 0501 0308 	.insn	10, 0x0901030805010000097f
 186:	0901 
 188:	0002                	c.slli64	zero
 18a:	0501                	addi	a0,a0,0
 18c:	0609                	addi	a2,a2,2
 18e:	04090103          	lb	sp,64(s2)
 192:	0100                	addi	s0,sp,128
 194:	00090103          	lb	sp,0(s2)
 198:	0100                	addi	s0,sp,128
 19a:	0c05                	addi	s8,s8,1
 19c:	0306                	slli	t1,t1,0x1
 19e:	0900                	addi	s0,sp,144
 1a0:	0000                	unimp
 1a2:	0501                	addi	a0,a0,0
 1a4:	030a                	slli	t1,t1,0x2
 1a6:	097f 0004 0501 0312 	.insn	10, 0x0904031205010004097f
 1ae:	0904 
 1b0:	0002                	c.slli64	zero
 1b2:	0501                	addi	a0,a0,0
 1b4:	030a                	slli	t1,t1,0x2
 1b6:	097c                	addi	a5,sp,156
 1b8:	0004                	.insn	2, 0x0004
 1ba:	0501                	addi	a0,a0,0
 1bc:	0015                	c.nop	5
 1be:	0402                	c.slli64	s0
 1c0:	0301                	addi	t1,t1,0
 1c2:	0906                	slli	s2,s2,0x1
 1c4:	0002                	c.slli64	zero
 1c6:	0501                	addi	a0,a0,0
 1c8:	0605                	addi	a2,a2,1
 1ca:	02097d03          	.insn	4, 0x02097d03
 1ce:	0100                	addi	s0,sp,128
 1d0:	0905                	addi	s2,s2,1
 1d2:	00090103          	lb	sp,0(s2)
 1d6:	0100                	addi	s0,sp,128
 1d8:	1805                	addi	a6,a6,-31 # 590b5107 <__heap_start+0x590b4107>
 1da:	0306                	slli	t1,t1,0x1
 1dc:	0900                	addi	s0,sp,144
 1de:	0000                	unimp
 1e0:	0501                	addi	a0,a0,0
 1e2:	030e                	slli	t1,t1,0x3
 1e4:	0900                	addi	s0,sp,144
 1e6:	0008                	.insn	2, 0x0008
 1e8:	0501                	addi	a0,a0,0
 1ea:	031d                	addi	t1,t1,7
 1ec:	0900                	addi	s0,sp,144
 1ee:	0002                	c.slli64	zero
 1f0:	0501                	addi	a0,a0,0
 1f2:	0312                	slli	t1,t1,0x4
 1f4:	0900                	addi	s0,sp,144
 1f6:	0004                	.insn	2, 0x0004
 1f8:	0501                	addi	a0,a0,0
 1fa:	0015                	c.nop	5
 1fc:	0402                	c.slli64	s0
 1fe:	0601                	addi	a2,a2,0
 200:	08090203          	lb	tp,128(s2)
 204:	0100                	addi	s0,sp,128
 206:	1005                	c.nop	-31
 208:	0200                	addi	s0,sp,256
 20a:	0104                	addi	s1,sp,128
 20c:	0306                	slli	t1,t1,0x1
 20e:	0900                	addi	s0,sp,144
 210:	0000                	unimp
 212:	0501                	addi	a0,a0,0
 214:	0015                	c.nop	5
 216:	0402                	c.slli64	s0
 218:	0301                	addi	t1,t1,0
 21a:	0900                	addi	s0,sp,144
 21c:	000a                	c.slli	zero,0x2
 21e:	0501                	addi	a0,a0,0
 220:	0605                	addi	a2,a2,1
 222:	04090103          	lb	sp,64(s2)
 226:	0100                	addi	s0,sp,128
 228:	0705                	addi	a4,a4,1
 22a:	0306                	slli	t1,t1,0x1
 22c:	0900                	addi	s0,sp,144
 22e:	0000                	unimp
 230:	0501                	addi	a0,a0,0
 232:	0402000b          	.insn	4, 0x0402000b
 236:	0601                	addi	a2,a2,0
 238:	04090003          	lb	zero,64(s2)
 23c:	0100                	addi	s0,sp,128
 23e:	1305                	addi	t1,t1,-31
 240:	0200                	addi	s0,sp,256
 242:	0104                	addi	s1,sp,128
 244:	0306                	slli	t1,t1,0x1
 246:	0900                	addi	s0,sp,144
 248:	0000                	unimp
 24a:	0501                	addi	a0,a0,0
 24c:	060c                	addi	a1,sp,768
 24e:	10090103          	lb	sp,256(s2)
 252:	0100                	addi	s0,sp,128
 254:	2d05                	jal	884 <__bss_end+0x5aa>
 256:	0306                	slli	t1,t1,0x1
 258:	0954                	addi	a3,sp,148
 25a:	0006                	c.slli	zero,0x1
 25c:	0501                	addi	a0,a0,0
 25e:	0609                	addi	a2,a2,2
 260:	04092d03          	lw	s10,64(s2)
 264:	0100                	addi	s0,sp,128
 266:	0205                	addi	tp,tp,1 # 1 <_start+0x1>
 268:	04095303          	lhu	t1,64(s2)
 26c:	0100                	addi	s0,sp,128
 26e:	0c05                	addi	s8,s8,1
 270:	0306                	slli	t1,t1,0x1
 272:	092c                	addi	a1,sp,152
 274:	0002                	c.slli64	zero
 276:	0501                	addi	a0,a0,0
 278:	032d                	addi	t1,t1,11
 27a:	0954                	addi	a3,sp,148
 27c:	0002                	c.slli64	zero
 27e:	0501                	addi	a0,a0,0
 280:	060c                	addi	a1,sp,768
 282:	04092c03          	lw	s8,64(s2)
 286:	0100                	addi	s0,sp,128
 288:	0205                	addi	tp,tp,1 # 1 <_start+0x1>
 28a:	04091403          	lh	s0,64(s2)
 28e:	0100                	addi	s0,sp,128
 290:	00094003          	lbu	zero,0(s2)
 294:	0100                	addi	s0,sp,128
 296:	2d05                	jal	8c6 <__bss_end+0x5ec>
 298:	0306                	slli	t1,t1,0x1
 29a:	0900                	addi	s0,sp,144
 29c:	0000                	unimp
 29e:	0401                	addi	s0,s0,0
 2a0:	0501                	addi	a0,a0,0
 2a2:	0301                	addi	t1,t1,0
 2a4:	0908                	addi	a0,sp,144
 2a6:	0002                	c.slli64	zero
 2a8:	0401                	addi	s0,s0,0
 2aa:	0502                	c.slli64	a0
 2ac:	032d                	addi	t1,t1,11
 2ae:	0978                	addi	a4,sp,156
 2b0:	0002                	c.slli64	zero
 2b2:	0401                	addi	s0,s0,0
 2b4:	0501                	addi	a0,a0,0
 2b6:	0301                	addi	t1,t1,0
 2b8:	0908                	addi	a0,sp,144
 2ba:	0004                	.insn	2, 0x0004
 2bc:	0501                	addi	a0,a0,0
 2be:	032d                	addi	t1,t1,11
 2c0:	0978                	addi	a4,sp,156
 2c2:	001e                	c.slli	zero,0x7
 2c4:	0501                	addi	a0,a0,0
 2c6:	0311                	addi	t1,t1,4
 2c8:	097c                	addi	a5,sp,156
 2ca:	0004                	.insn	2, 0x0004
 2cc:	0501                	addi	a0,a0,0
 2ce:	031f 0903 0002      	.insn	6, 0x00020903031f
 2d4:	0501                	addi	a0,a0,0
 2d6:	060e                	slli	a2,a2,0x3
 2d8:	04097e03          	.insn	4, 0x04097e03
 2dc:	0100                	addi	s0,sp,128
 2de:	1505                	addi	a0,a0,-31
 2e0:	00090103          	lb	sp,0(s2)
 2e4:	0100                	addi	s0,sp,128
 2e6:	00090103          	lb	sp,0(s2)
 2ea:	0100                	addi	s0,sp,128
 2ec:	1205                	addi	tp,tp,-31 # ffffffe1 <__heap_start+0xffffefe1>
 2ee:	00090103          	lb	sp,0(s2)
 2f2:	0100                	addi	s0,sp,128
 2f4:	1e05                	addi	t3,t3,-31
 2f6:	0306                	slli	t1,t1,0x1
 2f8:	097e                	slli	s2,s2,0x1f
 2fa:	0000                	unimp
 2fc:	0501                	addi	a0,a0,0
 2fe:	031f 0901 0008      	.insn	6, 0x00080901031f
 304:	0501                	addi	a0,a0,0
 306:	032d                	addi	t1,t1,11
 308:	0901                	addi	s2,s2,0
 30a:	000a                	c.slli	zero,0x2
 30c:	0501                	addi	a0,a0,0
 30e:	0331                	addi	t1,t1,12
 310:	0900                	addi	s0,sp,144
 312:	0012                	c.slli	zero,0x4
 314:	0501                	addi	a0,a0,0
 316:	032d                	addi	t1,t1,11
 318:	0900                	addi	s0,sp,144
 31a:	0004                	.insn	2, 0x0004
 31c:	0501                	addi	a0,a0,0
 31e:	001e                	c.slli	zero,0x7
 320:	0402                	c.slli64	s0
 322:	0602                	c.slli64	a2
 324:	06097c03          	.insn	4, 0x06097c03
 328:	0100                	addi	s0,sp,128
 32a:	1705                	addi	a4,a4,-31
 32c:	0200                	addi	s0,sp,256
 32e:	0104                	addi	s1,sp,128
 330:	02090003          	lb	zero,32(s2)
 334:	0100                	addi	s0,sp,128
 336:	1905                	addi	s2,s2,-31
 338:	0200                	addi	s0,sp,256
 33a:	0204                	addi	s1,sp,256
 33c:	04097e03          	.insn	4, 0x04097e03
 340:	0100                	addi	s0,sp,128
 342:	1205                	addi	tp,tp,-31 # ffffffe1 <__heap_start+0xffffefe1>
 344:	0200                	addi	s0,sp,256
 346:	0104                	addi	s1,sp,128
 348:	02090003          	lb	zero,32(s2)
 34c:	0100                	addi	s0,sp,128
 34e:	0209                	addi	tp,tp,2 # 2 <_start+0x2>
 350:	0000                	unimp
 352:	0101                	addi	sp,sp,0
 354:	018a                	slli	gp,gp,0x2
 356:	0000                	unimp
 358:	0005                	c.nop	1
 35a:	0004                	.insn	2, 0x0004
 35c:	002e                	c.slli	zero,0xb
 35e:	0000                	unimp
 360:	0101                	addi	sp,sp,0
 362:	fb01                	bnez	a4,272 <main+0xca>
 364:	0d0e                	slli	s10,s10,0x3
 366:	0100                	addi	s0,sp,128
 368:	0101                	addi	sp,sp,0
 36a:	0001                	nop
 36c:	0000                	unimp
 36e:	0001                	nop
 370:	0100                	addi	s0,sp,128
 372:	0101                	addi	sp,sp,0
 374:	021f 004e 0000      	.insn	6, 0x004e021f
 37a:	0098                	addi	a4,sp,64
 37c:	0000                	unimp
 37e:	0102                	c.slli64	sp
 380:	021f 020f 00d7      	.insn	6, 0x00d7020f021f
 386:	0000                	unimp
 388:	d701                	beqz	a4,290 <main+0xe8>
 38a:	0000                	unimp
 38c:	0100                	addi	s0,sp,128
 38e:	0500                	addi	s0,sp,640
 390:	1802                	slli	a6,a6,0x20
 392:	0000                	unimp
 394:	0300                	addi	s0,sp,384
 396:	011d                	addi	sp,sp,7
 398:	04090103          	lb	sp,64(s2)
 39c:	0100                	addi	s0,sp,128
 39e:	04090103          	lb	sp,64(s2)
 3a2:	0100                	addi	s0,sp,128
 3a4:	04090103          	lb	sp,64(s2)
 3a8:	0100                	addi	s0,sp,128
 3aa:	04090103          	lb	sp,64(s2)
 3ae:	0100                	addi	s0,sp,128
 3b0:	04090303          	lb	t1,64(s2)
 3b4:	0100                	addi	s0,sp,128
 3b6:	04090303          	lb	t1,64(s2)
 3ba:	0100                	addi	s0,sp,128
 3bc:	04090103          	lb	sp,64(s2)
 3c0:	0100                	addi	s0,sp,128
 3c2:	04090103          	lb	sp,64(s2)
 3c6:	0100                	addi	s0,sp,128
 3c8:	04090603          	lb	a2,64(s2)
 3cc:	0100                	addi	s0,sp,128
 3ce:	04090103          	lb	sp,64(s2)
 3d2:	0100                	addi	s0,sp,128
 3d4:	04090103          	lb	sp,64(s2)
 3d8:	0100                	addi	s0,sp,128
 3da:	04090103          	lb	sp,64(s2)
 3de:	0100                	addi	s0,sp,128
 3e0:	04090203          	lb	tp,64(s2)
 3e4:	0100                	addi	s0,sp,128
 3e6:	04090103          	lb	sp,64(s2)
 3ea:	0100                	addi	s0,sp,128
 3ec:	04090203          	lb	tp,64(s2)
 3f0:	0100                	addi	s0,sp,128
 3f2:	04090103          	lb	sp,64(s2)
 3f6:	0100                	addi	s0,sp,128
 3f8:	04090303          	lb	t1,64(s2)
 3fc:	0100                	addi	s0,sp,128
 3fe:	04090103          	lb	sp,64(s2)
 402:	0100                	addi	s0,sp,128
 404:	04090103          	lb	sp,64(s2)
 408:	0100                	addi	s0,sp,128
 40a:	04090103          	lb	sp,64(s2)
 40e:	0100                	addi	s0,sp,128
 410:	04090403          	lb	s0,64(s2)
 414:	0100                	addi	s0,sp,128
 416:	04090203          	lb	tp,64(s2)
 41a:	0100                	addi	s0,sp,128
 41c:	04090103          	lb	sp,64(s2)
 420:	0100                	addi	s0,sp,128
 422:	04090103          	lb	sp,64(s2)
 426:	0100                	addi	s0,sp,128
 428:	04090103          	lb	sp,64(s2)
 42c:	0100                	addi	s0,sp,128
 42e:	04090103          	lb	sp,64(s2)
 432:	0100                	addi	s0,sp,128
 434:	04090103          	lb	sp,64(s2)
 438:	0100                	addi	s0,sp,128
 43a:	04090103          	lb	sp,64(s2)
 43e:	0100                	addi	s0,sp,128
 440:	04090103          	lb	sp,64(s2)
 444:	0100                	addi	s0,sp,128
 446:	04090103          	lb	sp,64(s2)
 44a:	0100                	addi	s0,sp,128
 44c:	04090103          	lb	sp,64(s2)
 450:	0100                	addi	s0,sp,128
 452:	04090103          	lb	sp,64(s2)
 456:	0100                	addi	s0,sp,128
 458:	04090103          	lb	sp,64(s2)
 45c:	0100                	addi	s0,sp,128
 45e:	04090103          	lb	sp,64(s2)
 462:	0100                	addi	s0,sp,128
 464:	04090103          	lb	sp,64(s2)
 468:	0100                	addi	s0,sp,128
 46a:	04090103          	lb	sp,64(s2)
 46e:	0100                	addi	s0,sp,128
 470:	04090203          	lb	tp,64(s2)
 474:	0100                	addi	s0,sp,128
 476:	04090303          	lb	t1,64(s2)
 47a:	0100                	addi	s0,sp,128
 47c:	04090103          	lb	sp,64(s2)
 480:	0100                	addi	s0,sp,128
 482:	04090103          	lb	sp,64(s2)
 486:	0100                	addi	s0,sp,128
 488:	04090103          	lb	sp,64(s2)
 48c:	0100                	addi	s0,sp,128
 48e:	04090103          	lb	sp,64(s2)
 492:	0100                	addi	s0,sp,128
 494:	04090503          	lb	a0,64(s2)
 498:	0100                	addi	s0,sp,128
 49a:	04090303          	lb	t1,64(s2)
 49e:	0100                	addi	s0,sp,128
 4a0:	04090103          	lb	sp,64(s2)
 4a4:	0100                	addi	s0,sp,128
 4a6:	04090103          	lb	sp,64(s2)
 4aa:	0100                	addi	s0,sp,128
 4ac:	04090103          	lb	sp,64(s2)
 4b0:	0100                	addi	s0,sp,128
 4b2:	04090103          	lb	sp,64(s2)
 4b6:	0100                	addi	s0,sp,128
 4b8:	04090103          	lb	sp,64(s2)
 4bc:	0100                	addi	s0,sp,128
 4be:	04090203          	lb	tp,64(s2)
 4c2:	0100                	addi	s0,sp,128
 4c4:	04090103          	lb	sp,64(s2)
 4c8:	0100                	addi	s0,sp,128
 4ca:	04090103          	lb	sp,64(s2)
 4ce:	0100                	addi	s0,sp,128
 4d0:	04090103          	lb	sp,64(s2)
 4d4:	0100                	addi	s0,sp,128
 4d6:	04090103          	lb	sp,64(s2)
 4da:	0100                	addi	s0,sp,128
 4dc:	0409                	addi	s0,s0,2
 4de:	0000                	unimp
 4e0:	0101                	addi	sp,sp,0
 4e2:	0000014f          	.insn	4, 0x014f
 4e6:	0005                	c.nop	1
 4e8:	0004                	.insn	2, 0x0004
 4ea:	002e                	c.slli	zero,0xb
 4ec:	0000                	unimp
 4ee:	0101                	addi	sp,sp,0
 4f0:	fb01                	bnez	a4,400 <__bss_end+0x126>
 4f2:	0d0e                	slli	s10,s10,0x3
 4f4:	0100                	addi	s0,sp,128
 4f6:	0101                	addi	sp,sp,0
 4f8:	0001                	nop
 4fa:	0000                	unimp
 4fc:	0001                	nop
 4fe:	0100                	addi	s0,sp,128
 500:	0101                	addi	sp,sp,0
 502:	021f 00e0 0000      	.insn	6, 0x00e0021f
 508:	0124                	addi	s1,sp,136
 50a:	0000                	unimp
 50c:	0102                	c.slli64	sp
 50e:	021f 020f 015e      	.insn	6, 0x015e020f021f
 514:	0000                	unimp
 516:	5e01                	li	t3,-32
 518:	0001                	nop
 51a:	0100                	addi	s0,sp,128
 51c:	0500                	addi	s0,sp,640
 51e:	f402                	.insn	2, 0xf402
 520:	0000                	unimp
 522:	0300                	addi	s0,sp,384
 524:	00c4                	addi	s1,sp,68
 526:	0301                	addi	t1,t1,0
 528:	0901                	addi	s2,s2,0
 52a:	0004                	.insn	2, 0x0004
 52c:	0301                	addi	t1,t1,0
 52e:	0904                	addi	s1,sp,144
 530:	0004                	.insn	2, 0x0004
 532:	0301                	addi	t1,t1,0
 534:	0901                	addi	s2,s2,0
 536:	0004                	.insn	2, 0x0004
 538:	0301                	addi	t1,t1,0
 53a:	0901                	addi	s2,s2,0
 53c:	0004                	.insn	2, 0x0004
 53e:	0301                	addi	t1,t1,0
 540:	0901                	addi	s2,s2,0
 542:	0004                	.insn	2, 0x0004
 544:	0301                	addi	t1,t1,0
 546:	0901                	addi	s2,s2,0
 548:	0004                	.insn	2, 0x0004
 54a:	0301                	addi	t1,t1,0
 54c:	0901                	addi	s2,s2,0
 54e:	0004                	.insn	2, 0x0004
 550:	0301                	addi	t1,t1,0
 552:	0902                	c.slli64	s2
 554:	0004                	.insn	2, 0x0004
 556:	0301                	addi	t1,t1,0
 558:	0901                	addi	s2,s2,0
 55a:	0004                	.insn	2, 0x0004
 55c:	0301                	addi	t1,t1,0
 55e:	0901                	addi	s2,s2,0
 560:	0004                	.insn	2, 0x0004
 562:	0301                	addi	t1,t1,0
 564:	0901                	addi	s2,s2,0
 566:	0004                	.insn	2, 0x0004
 568:	0301                	addi	t1,t1,0
 56a:	0902                	c.slli64	s2
 56c:	0004                	.insn	2, 0x0004
 56e:	0301                	addi	t1,t1,0
 570:	0902                	c.slli64	s2
 572:	0004                	.insn	2, 0x0004
 574:	0301                	addi	t1,t1,0
 576:	0901                	addi	s2,s2,0
 578:	0004                	.insn	2, 0x0004
 57a:	0301                	addi	t1,t1,0
 57c:	0901                	addi	s2,s2,0
 57e:	0004                	.insn	2, 0x0004
 580:	0301                	addi	t1,t1,0
 582:	0902                	c.slli64	s2
 584:	0004                	.insn	2, 0x0004
 586:	0301                	addi	t1,t1,0
 588:	0901                	addi	s2,s2,0
 58a:	0004                	.insn	2, 0x0004
 58c:	0301                	addi	t1,t1,0
 58e:	0901                	addi	s2,s2,0
 590:	0004                	.insn	2, 0x0004
 592:	0301                	addi	t1,t1,0
 594:	0902                	c.slli64	s2
 596:	0004                	.insn	2, 0x0004
 598:	0301                	addi	t1,t1,0
 59a:	0906                	slli	s2,s2,0x1
 59c:	0004                	.insn	2, 0x0004
 59e:	0301                	addi	t1,t1,0
 5a0:	0901                	addi	s2,s2,0
 5a2:	0004                	.insn	2, 0x0004
 5a4:	0301                	addi	t1,t1,0
 5a6:	0901                	addi	s2,s2,0
 5a8:	0004                	.insn	2, 0x0004
 5aa:	0301                	addi	t1,t1,0
 5ac:	0901                	addi	s2,s2,0
 5ae:	0004                	.insn	2, 0x0004
 5b0:	0301                	addi	t1,t1,0
 5b2:	0905                	addi	s2,s2,1
 5b4:	0004                	.insn	2, 0x0004
 5b6:	0301                	addi	t1,t1,0
 5b8:	0902                	c.slli64	s2
 5ba:	0004                	.insn	2, 0x0004
 5bc:	0301                	addi	t1,t1,0
 5be:	0902                	c.slli64	s2
 5c0:	0004                	.insn	2, 0x0004
 5c2:	0301                	addi	t1,t1,0
 5c4:	0901                	addi	s2,s2,0
 5c6:	0004                	.insn	2, 0x0004
 5c8:	0301                	addi	t1,t1,0
 5ca:	0902                	c.slli64	s2
 5cc:	0004                	.insn	2, 0x0004
 5ce:	0301                	addi	t1,t1,0
 5d0:	0902                	c.slli64	s2
 5d2:	0004                	.insn	2, 0x0004
 5d4:	0301                	addi	t1,t1,0
 5d6:	0901                	addi	s2,s2,0
 5d8:	0004                	.insn	2, 0x0004
 5da:	0301                	addi	t1,t1,0
 5dc:	0901                	addi	s2,s2,0
 5de:	0004                	.insn	2, 0x0004
 5e0:	0301                	addi	t1,t1,0
 5e2:	0901                	addi	s2,s2,0
 5e4:	0004                	.insn	2, 0x0004
 5e6:	0301                	addi	t1,t1,0
 5e8:	0904                	addi	s1,sp,144
 5ea:	0004                	.insn	2, 0x0004
 5ec:	0301                	addi	t1,t1,0
 5ee:	0901                	addi	s2,s2,0
 5f0:	0004                	.insn	2, 0x0004
 5f2:	0301                	addi	t1,t1,0
 5f4:	0901                	addi	s2,s2,0
 5f6:	0004                	.insn	2, 0x0004
 5f8:	0301                	addi	t1,t1,0
 5fa:	0902                	c.slli64	s2
 5fc:	0004                	.insn	2, 0x0004
 5fe:	0301                	addi	t1,t1,0
 600:	0901                	addi	s2,s2,0
 602:	0004                	.insn	2, 0x0004
 604:	0301                	addi	t1,t1,0
 606:	0901                	addi	s2,s2,0
 608:	0004                	.insn	2, 0x0004
 60a:	0301                	addi	t1,t1,0
 60c:	0902                	c.slli64	s2
 60e:	0004                	.insn	2, 0x0004
 610:	0301                	addi	t1,t1,0
 612:	0901                	addi	s2,s2,0
 614:	0004                	.insn	2, 0x0004
 616:	0301                	addi	t1,t1,0
 618:	0902                	c.slli64	s2
 61a:	0004                	.insn	2, 0x0004
 61c:	0301                	addi	t1,t1,0
 61e:	0901                	addi	s2,s2,0
 620:	0004                	.insn	2, 0x0004
 622:	0301                	addi	t1,t1,0
 624:	0901                	addi	s2,s2,0
 626:	0004                	.insn	2, 0x0004
 628:	0301                	addi	t1,t1,0
 62a:	0901                	addi	s2,s2,0
 62c:	0004                	.insn	2, 0x0004
 62e:	0901                	addi	s2,s2,0
 630:	0004                	.insn	2, 0x0004
 632:	0100                	addi	s0,sp,128
 634:	Address 0x634 is out of bounds.


Disassembly of section .debug_str:

00000000 <.debug_str>:
   0:	6e75                	lui	t3,0x1d
   2:	6e676973          	.insn	4, 0x6e676973
   6:	6465                	lui	s0,0x19
   8:	6920                	.insn	2, 0x6920
   a:	746e                	.insn	2, 0x746e
   c:	7500                	.insn	2, 0x7500
   e:	736e                	.insn	2, 0x736e
  10:	6769                	lui	a4,0x1a
  12:	656e                	.insn	2, 0x656e
  14:	2064                	.insn	2, 0x2064
  16:	72616863          	bltu	sp,t1,746 <__bss_end+0x46c>
  1a:	5f00                	lw	s0,56(a4)
  1c:	645f 7669 6973      	.insn	6, 0x69737669645f
  22:	65720033          	.insn	4, 0x65720033
  26:	616d                	addi	sp,sp,240
  28:	6e69                	lui	t3,0x1a
  2a:	6564                	.insn	2, 0x6564
  2c:	0072                	c.slli	zero,0x1c
  2e:	5f5f 7562 6c69      	.insn	6, 0x6c6975625f5f
  34:	6974                	.insn	2, 0x6974
  36:	5f6e                	lw	t5,248(sp)
  38:	656d                	lui	a0,0x1b
  3a:	736d                	lui	t1,0xffffb
  3c:	7465                	lui	s0,0xffff9
  3e:	6f00                	.insn	2, 0x6f00
  40:	7475                	lui	s0,0xffffd
  42:	6c6c                	.insn	2, 0x6c6c
  44:	006e                	c.slli	zero,0x1b
  46:	5f5f 6f6d 7364      	.insn	6, 0x73646f6d5f5f
  4c:	3369                	jal	fffffdd6 <__heap_start+0xffffedd6>
  4e:	4700                	lw	s0,8(a4)
  50:	554e                	lw	a0,240(sp)
  52:	4320                	lw	s0,64(a4)
  54:	3731                	jal	ffffff60 <__heap_start+0xffffef60>
  56:	3120                	.insn	2, 0x3120
  58:	2e34                	.insn	2, 0x2e34
  5a:	2e31                	jal	376 <__bss_end+0x9c>
  5c:	2030                	.insn	2, 0x2030
  5e:	6d2d                	lui	s10,0xb
  60:	6261                	lui	tp,0x18
  62:	3d69                	jal	fffffefc <__heap_start+0xffffeefc>
  64:	6c69                	lui	s8,0x1a
  66:	3370                	.insn	2, 0x3370
  68:	2032                	.insn	2, 0x2032
  6a:	6d2d                	lui	s10,0xb
  6c:	7369                	lui	t1,0xffffa
  6e:	2d61                	jal	706 <__bss_end+0x42c>
  70:	63657073          	.insn	4, 0x63657073
  74:	323d                	jal	fffff9a2 <__heap_start+0xffffe9a2>
  76:	3130                	.insn	2, 0x3130
  78:	3139                	jal	fffffc86 <__heap_start+0xffffec86>
  7a:	3132                	.insn	2, 0x3132
  7c:	6d2d2033          	.insn	4, 0x6d2d2033
  80:	7261                	lui	tp,0xffff8
  82:	723d6863          	bltu	s10,gp,7b2 <__bss_end+0x4d8>
  86:	3376                	.insn	2, 0x3376
  88:	6932                	.insn	2, 0x6932
  8a:	672d2063          	.insn	4, 0x672d2063
  8e:	2d20                	.insn	2, 0x2d20
  90:	2d20324f          	.insn	4, 0x2d20324f
  94:	3d647473          	.insn	4, 0x3d647473
  98:	00373163          	.insn	4, 0x00373163
  9c:	616d                	addi	sp,sp,240
  9e:	6e69                	lui	t3,0x1a
  a0:	6400                	.insn	2, 0x6400
  a2:	7461                	lui	s0,0xffff8
  a4:	0061                	c.nop	24
  a6:	6274756f          	jal	a0,47ecc <__heap_start+0x46ecc>
  aa:	6f00                	.insn	2, 0x6f00
  ac:	7475                	lui	s0,0xffffd
  ae:	006c                	addi	a1,sp,12
  b0:	7571                	lui	a0,0xffffc
  b2:	6569746f          	jal	s0,97708 <__heap_start+0x96708>
  b6:	746e                	.insn	2, 0x746e
  b8:	2e00                	.insn	2, 0x2e00
  ba:	2f2e                	.insn	2, 0x2f2e
  bc:	2e2e                	.insn	2, 0x2e2e
  be:	2f2e2e2f          	.insn	4, 0x2f2e2e2f
  c2:	2e2e                	.insn	2, 0x2e2e
  c4:	2f2e2e2f          	.insn	4, 0x2f2e2e2f
  c8:	656e                	.insn	2, 0x656e
  ca:	62696c77          	.insn	4, 0x62696c77
  ce:	342d                	jal	fffffaf8 <__heap_start+0xffffeaf8>
  d0:	342e                	.insn	2, 0x342e
  d2:	302e                	.insn	2, 0x302e
  d4:	322e                	.insn	2, 0x322e
  d6:	3230                	.insn	2, 0x3230
  d8:	33323133          	.insn	4, 0x33323133
  dc:	2f31                	jal	7f8 <__bss_end+0x51e>
  de:	656e                	.insn	2, 0x656e
  e0:	62696c77          	.insn	4, 0x62696c77
  e4:	62696c2f          	.insn	4, 0x62696c2f
  e8:	616d2f63          	.insn	4, 0x616d2f63
  ec:	6e696863          	bltu	s2,t1,7dc <__bss_end+0x502>
  f0:	2f65                	jal	8a8 <__bss_end+0x5ce>
  f2:	6972                	.insn	2, 0x6972
  f4:	2f766373          	.insn	4, 0x2f766373
  f8:	656d                	lui	a0,0x1b
  fa:	736d                	lui	t1,0xffffb
  fc:	7465                	lui	s0,0xffff9
  fe:	532e                	lw	t1,232(sp)
 100:	2f00                	.insn	2, 0x2f00
 102:	7562                	.insn	2, 0x7562
 104:	6c69                	lui	s8,0x1a
 106:	2f64                	.insn	2, 0x2f64
 108:	6972                	.insn	2, 0x6972
 10a:	36766373          	.insn	4, 0x36766373
 10e:	2d34                	.insn	2, 0x2d34
 110:	6c65                	lui	s8,0x19
 112:	2d66                	.insn	2, 0x2d66
 114:	656e                	.insn	2, 0x656e
 116:	62696c77          	.insn	4, 0x62696c77
 11a:	6372732f          	.insn	4, 0x6372732f
 11e:	6975622f          	.insn	4, 0x6975622f
 122:	646c                	.insn	2, 0x646c
 124:	6e2d                	lui	t3,0xb
 126:	7765                	lui	a4,0xffff9
 128:	696c                	.insn	2, 0x696c
 12a:	2f62                	.insn	2, 0x2f62
 12c:	6972                	.insn	2, 0x6972
 12e:	36766373          	.insn	4, 0x36766373
 132:	2d34                	.insn	2, 0x2d34
 134:	6c65                	lui	s8,0x19
 136:	2f66                	.insn	2, 0x2f66
 138:	7672                	.insn	2, 0x7672
 13a:	2f693233          	.insn	4, 0x2f693233
 13e:	6c69                	lui	s8,0x1a
 140:	3370                	.insn	2, 0x3370
 142:	2f32                	.insn	2, 0x2f32
 144:	656e                	.insn	2, 0x656e
 146:	62696c77          	.insn	4, 0x62696c77
 14a:	4700                	lw	s0,8(a4)
 14c:	554e                	lw	a0,240(sp)
 14e:	4120                	lw	s0,64(a0)
 150:	2e322053          	.insn	4, 0x2e322053
 154:	3234                	.insn	2, 0x3234
 156:	2f00                	.insn	2, 0x2f00
 158:	7562                	.insn	2, 0x7562
 15a:	6c69                	lui	s8,0x1a
 15c:	2f64                	.insn	2, 0x2f64
 15e:	6972                	.insn	2, 0x6972
 160:	36766373          	.insn	4, 0x36766373
 164:	2d34                	.insn	2, 0x2d34
 166:	6c65                	lui	s8,0x19
 168:	2d66                	.insn	2, 0x2d66
 16a:	2f636367          	.insn	4, 0x2f636367
 16e:	2f637273          	.insn	4, 0x2f637273
 172:	2d636367          	.insn	4, 0x2d636367
 176:	3431                	jal	fffffb82 <__heap_start+0xffffeb82>
 178:	312e                	.insn	2, 0x312e
 17a:	302e                	.insn	2, 0x302e
 17c:	62696c2f          	.insn	4, 0x62696c2f
 180:	2f636367          	.insn	4, 0x2f636367
 184:	666e6f63          	bltu	t3,t1,802 <__bss_end+0x528>
 188:	6769                	lui	a4,0x1a
 18a:	7369722f          	.insn	4, 0x7369722f
 18e:	642f7663          	bgeu	t5,sp,7da <__bss_end+0x500>
 192:	7669                	lui	a2,0xffffa
 194:	532e                	lw	t1,232(sp)
 196:	2f00                	.insn	2, 0x2f00
 198:	7562                	.insn	2, 0x7562
 19a:	6c69                	lui	s8,0x1a
 19c:	2f64                	.insn	2, 0x2f64
 19e:	6972                	.insn	2, 0x6972
 1a0:	36766373          	.insn	4, 0x36766373
 1a4:	2d34                	.insn	2, 0x2d34
 1a6:	6c65                	lui	s8,0x19
 1a8:	2d66                	.insn	2, 0x2d66
 1aa:	2f636367          	.insn	4, 0x2f636367
 1ae:	2f637273          	.insn	4, 0x2f637273
 1b2:	7562                	.insn	2, 0x7562
 1b4:	6c69                	lui	s8,0x1a
 1b6:	2d64                	.insn	2, 0x2d64
 1b8:	2f636367          	.insn	4, 0x2f636367
 1bc:	6972                	.insn	2, 0x6972
 1be:	36766373          	.insn	4, 0x36766373
 1c2:	2d34                	.insn	2, 0x2d34
 1c4:	6c65                	lui	s8,0x19
 1c6:	2f66                	.insn	2, 0x2f66
 1c8:	7672                	.insn	2, 0x7672
 1ca:	2f693233          	.insn	4, 0x2f693233
 1ce:	6c69                	lui	s8,0x1a
 1d0:	3370                	.insn	2, 0x3370
 1d2:	2f32                	.insn	2, 0x2f32
 1d4:	696c                	.insn	2, 0x696c
 1d6:	6762                	.insn	2, 0x6762
 1d8:	47006363          	bltu	zero,a6,63e <__bss_end+0x364>
 1dc:	554e                	lw	a0,240(sp)
 1de:	4120                	lw	s0,64(a0)
 1e0:	2e322053          	.insn	4, 0x2e322053
 1e4:	5f003933          	.insn	4, 0x5f003933
 1e8:	685f 6469 6564      	.insn	6, 0x65646469685f
 1ee:	5f6e                	lw	t5,248(sp)
 1f0:	5f5f 6475 7669      	.insn	6, 0x766964755f5f
 1f6:	00336973          	.insn	4, 0x00336973
 1fa:	5f5f 6d75 646f      	.insn	6, 0x646f6d755f5f
 200:	00336973          	.insn	4, 0x00336973

Disassembly of section .debug_line_str:

00000000 <.debug_line_str>:
   0:	7070612f          	.insn	4, 0x7070612f
   4:	7365742f          	.insn	4, 0x7365742f
   8:	6374                	.insn	2, 0x6374
   a:	7361                	lui	t1,0xffff8
   c:	0065                	c.nop	25
   e:	7070612f          	.insn	4, 0x7070612f
  12:	7365742f          	.insn	4, 0x7365742f
  16:	6374                	.insn	2, 0x6374
  18:	7361                	lui	t1,0xffff8
  1a:	2f65                	jal	7d2 <__bss_end+0x4f8>
  1c:	2f6d6973          	.insn	4, 0x2f6d6973
  20:	6162                	.insn	2, 0x6162
  22:	6f636973          	.insn	4, 0x6f636973
  26:	7470                	.insn	2, 0x7470
  28:	2e31                	jal	344 <__bss_end+0x6a>
  2a:	612f0063          	beq	t5,s2,62a <__bss_end+0x350>
  2e:	7070                	.insn	2, 0x7070
  30:	7365742f          	.insn	4, 0x7365742f
  34:	6374                	.insn	2, 0x6374
  36:	7361                	lui	t1,0xffff8
  38:	2f65                	jal	7f0 <__bss_end+0x516>
  3a:	006d6973          	.insn	4, 0x006d6973
  3e:	6f69                	lui	t5,0x1a
  40:	682e                	.insn	2, 0x682e
  42:	3c00                	.insn	2, 0x3c00
  44:	7562                	.insn	2, 0x7562
  46:	6c69                	lui	s8,0x1a
  48:	2d74                	.insn	2, 0x2d74
  4a:	6e69                	lui	t3,0x1a
  4c:	003e                	c.slli	zero,0xf
  4e:	6975622f          	.insn	4, 0x6975622f
  52:	646c                	.insn	2, 0x646c
  54:	7369722f          	.insn	4, 0x7369722f
  58:	34367663          	bgeu	a2,gp,3a4 <__bss_end+0xca>
  5c:	652d                	lui	a0,0xb
  5e:	666c                	.insn	2, 0x666c
  60:	6e2d                	lui	t3,0xb
  62:	7765                	lui	a4,0xffff9
  64:	696c                	.insn	2, 0x696c
  66:	2f62                	.insn	2, 0x2f62
  68:	2f637273          	.insn	4, 0x2f637273
  6c:	7562                	.insn	2, 0x7562
  6e:	6c69                	lui	s8,0x1a
  70:	2d64                	.insn	2, 0x2d64
  72:	656e                	.insn	2, 0x656e
  74:	62696c77          	.insn	4, 0x62696c77
  78:	7369722f          	.insn	4, 0x7369722f
  7c:	34367663          	bgeu	a2,gp,3c8 <__bss_end+0xee>
  80:	652d                	lui	a0,0xb
  82:	666c                	.insn	2, 0x666c
  84:	3376722f          	.insn	4, 0x3376722f
  88:	6932                	.insn	2, 0x6932
  8a:	706c692f          	.insn	4, 0x706c692f
  8e:	6e2f3233          	.insn	4, 0x6e2f3233
  92:	7765                	lui	a4,0xffff9
  94:	696c                	.insn	2, 0x696c
  96:	0062                	c.slli	zero,0x18
  98:	2e2e                	.insn	2, 0x2e2e
  9a:	2f2e2e2f          	.insn	4, 0x2f2e2e2f
  9e:	2e2e                	.insn	2, 0x2e2e
  a0:	2f2e2e2f          	.insn	4, 0x2f2e2e2f
  a4:	2e2e                	.insn	2, 0x2e2e
  a6:	77656e2f          	.insn	4, 0x77656e2f
  aa:	696c                	.insn	2, 0x696c
  ac:	2d62                	.insn	2, 0x2d62
  ae:	2e34                	.insn	2, 0x2e34
  b0:	2e34                	.insn	2, 0x2e34
  b2:	2e30                	.insn	2, 0x2e30
  b4:	3032                	.insn	2, 0x3032
  b6:	3332                	.insn	2, 0x3332
  b8:	3231                	jal	fffff9c4 <__heap_start+0xffffe9c4>
  ba:	6e2f3133          	.insn	4, 0x6e2f3133
  be:	7765                	lui	a4,0xffff9
  c0:	696c                	.insn	2, 0x696c
  c2:	2f62                	.insn	2, 0x2f62
  c4:	696c                	.insn	2, 0x696c
  c6:	6362                	.insn	2, 0x6362
  c8:	63616d2f          	.insn	4, 0x63616d2f
  cc:	6968                	.insn	2, 0x6968
  ce:	656e                	.insn	2, 0x656e
  d0:	7369722f          	.insn	4, 0x7369722f
  d4:	6d007663          	bgeu	zero,a6,7a0 <__bss_end+0x4c6>
  d8:	6d65                	lui	s10,0x19
  da:	2e746573          	.insn	4, 0x2e746573
  de:	622f0053          	.insn	4, 0x622f0053
  e2:	6975                	lui	s2,0x1d
  e4:	646c                	.insn	2, 0x646c
  e6:	7369722f          	.insn	4, 0x7369722f
  ea:	34367663          	bgeu	a2,gp,436 <__bss_end+0x15c>
  ee:	652d                	lui	a0,0xb
  f0:	666c                	.insn	2, 0x666c
  f2:	672d                	lui	a4,0xb
  f4:	732f6363          	bltu	t5,s2,81a <__bss_end+0x540>
  f8:	6372                	.insn	2, 0x6372
  fa:	6975622f          	.insn	4, 0x6975622f
  fe:	646c                	.insn	2, 0x646c
 100:	672d                	lui	a4,0xb
 102:	722f6363          	bltu	t5,sp,828 <__bss_end+0x54e>
 106:	7369                	lui	t1,0xffffa
 108:	34367663          	bgeu	a2,gp,454 <__bss_end+0x17a>
 10c:	652d                	lui	a0,0xb
 10e:	666c                	.insn	2, 0x666c
 110:	3376722f          	.insn	4, 0x3376722f
 114:	6932                	.insn	2, 0x6932
 116:	706c692f          	.insn	4, 0x706c692f
 11a:	6c2f3233          	.insn	4, 0x6c2f3233
 11e:	6269                	lui	tp,0x1a
 120:	00636367          	.insn	4, 0x00636367
 124:	6975622f          	.insn	4, 0x6975622f
 128:	646c                	.insn	2, 0x646c
 12a:	7369722f          	.insn	4, 0x7369722f
 12e:	34367663          	bgeu	a2,gp,47a <__bss_end+0x1a0>
 132:	652d                	lui	a0,0xb
 134:	666c                	.insn	2, 0x666c
 136:	672d                	lui	a4,0xb
 138:	732f6363          	bltu	t5,s2,85e <__bss_end+0x584>
 13c:	6372                	.insn	2, 0x6372
 13e:	6363672f          	.insn	4, 0x6363672f
 142:	312d                	jal	fffffd6c <__heap_start+0xffffed6c>
 144:	2e34                	.insn	2, 0x2e34
 146:	2e31                	jal	462 <__bss_end+0x188>
 148:	2f30                	.insn	2, 0x2f30
 14a:	696c                	.insn	2, 0x696c
 14c:	6762                	.insn	2, 0x6762
 14e:	632f6363          	bltu	t5,s2,774 <__bss_end+0x49a>
 152:	69666e6f          	jal	t3,667e8 <__heap_start+0x657e8>
 156:	69722f67          	.insn	4, 0x69722f67
 15a:	00766373          	.insn	4, 0x00766373
 15e:	6964                	.insn	2, 0x6964
 160:	2e76                	.insn	2, 0x2e76
 162:	Address 0x162 is out of bounds.


Disassembly of section .debug_frame:

00000000 <.debug_frame>:
   0:	000c                	.insn	2, 0x000c
   2:	0000                	unimp
   4:	ffff                	.insn	2, 0xffff
   6:	ffff                	.insn	2, 0xffff
   8:	7c010003          	lb	zero,1984(sp)
   c:	0d01                	addi	s10,s10,0 # 19000 <__heap_start+0x18000>
   e:	0002                	c.slli64	zero
  10:	0044                	addi	s1,sp,4
  12:	0000                	unimp
  14:	0000                	unimp
  16:	0000                	unimp
  18:	01a8                	addi	a0,sp,200
  1a:	0000                	unimp
  1c:	0132                	slli	sp,sp,0xc
  1e:	0000                	unimp
  20:	0e44                	addi	s1,sp,788
  22:	5a30                	lw	a2,112(a2)
  24:	800e                	c.mv	zero,gp
  26:	02b9                	addi	t0,t0,14
  28:	0288                	addi	a0,sp,320
  2a:	0389                	addi	t2,t2,2
  2c:	0492                	slli	s1,s1,0x4
  2e:	0181                	addi	gp,gp,0
  30:	06940593          	addi	a1,s0,105 # ffff9069 <__heap_start+0xffff8069>
  34:	0795                	addi	a5,a5,5
  36:	0896                	slli	a7,a7,0x5
  38:	ba020997          	auipc	s3,0xba020
  3c:	0e0a                	slli	t3,t3,0x2
  3e:	4230                	lw	a2,64(a2)
  40:	42c1                	li	t0,16
  42:	42c8                	lw	a0,4(a3)
  44:	42c9                	li	t0,18
  46:	42d2                	lw	t0,20(sp)
  48:	42d442d3          	.insn	4, 0x42d442d3
  4c:	42d5                	li	t0,21
  4e:	42d6                	lw	t0,84(sp)
  50:	000e44d7          	.insn	4, 0x000e44d7
  54:	0b42                	slli	s6,s6,0x10
	...
