
/app/testcase/sim/manyarguments.elf:     file format elf32-littleriscv


Disassembly of section .text:

00000000 <_start>:
   0:	00020137          	lui	sp,0x20
   4:	03e000ef          	jal	42 <main>
   8:	0ff00513          	li	a0,255
   c:	000306b7          	lui	a3,0x30
  10:	00a68223          	sb	a0,4(a3) # 30004 <__heap_start+0x2f004>
  14:	bfe5                	j	c <_start+0xc>

00000016 <a>:
  16:	952e                	add	a0,a0,a1
  18:	9532                	add	a0,a0,a2
  1a:	9536                	add	a0,a0,a3
  1c:	953a                	add	a0,a0,a4
  1e:	953e                	add	a0,a0,a5
  20:	4782                	lw	a5,0(sp)
  22:	4692                	lw	a3,4(sp)
  24:	9542                	add	a0,a0,a6
  26:	4722                	lw	a4,8(sp)
  28:	9546                	add	a0,a0,a7
  2a:	4632                	lw	a2,12(sp)
  2c:	97aa                	add	a5,a5,a0
  2e:	97b6                	add	a5,a5,a3
  30:	46c2                	lw	a3,16(sp)
  32:	97ba                	add	a5,a5,a4
  34:	4752                	lw	a4,20(sp)
  36:	4562                	lw	a0,24(sp)
  38:	97b2                	add	a5,a5,a2
  3a:	97b6                	add	a5,a5,a3
  3c:	97ba                	add	a5,a5,a4
  3e:	953e                	add	a0,a0,a5
  40:	8082                	ret

Disassembly of section .text.startup:

00000042 <main>:
  42:	678d                	lui	a5,0x3
  44:	1141                	addi	sp,sp,-16 # 1fff0 <__heap_start+0x1eff0>
  46:	23078793          	addi	a5,a5,560 # 3230 <__heap_start+0x2230>
  4a:	03100713          	li	a4,49
  4e:	00f11223          	sh	a5,4(sp)
  52:	00e10323          	sb	a4,6(sp)
  56:	005c                	addi	a5,sp,4
  58:	00110613          	addi	a2,sp,1
  5c:	000306b7          	lui	a3,0x30
  60:	0027c703          	lbu	a4,2(a5)
  64:	17fd                	addi	a5,a5,-1
  66:	00e68023          	sb	a4,0(a3) # 30000 <__heap_start+0x2f000>
  6a:	fec79be3          	bne	a5,a2,60 <main+0x1e>
  6e:	47a9                	li	a5,10
  70:	00f68023          	sb	a5,0(a3)
  74:	4501                	li	a0,0
  76:	0141                	addi	sp,sp,16
  78:	8082                	ret
