
/app/testcase/sim/superloop.elf:     file format elf32-littleriscv


Disassembly of section .text:

00000000 <_start>:
   0:	00020137          	lui	sp,0x20
   4:	0c8000ef          	jal	cc <main>
   8:	0ff00513          	li	a0,255
   c:	000306b7          	lui	a3,0x30
  10:	00a68223          	sb	a0,4(a3) # 30004 <__heap_start+0x2f004>
  14:	bfe5                	j	c <_start+0xc>
	...

00000018 <__divsi3>:
  18:	06054063          	bltz	a0,78 <__umodsi3+0x10>
  1c:	0605c663          	bltz	a1,88 <__umodsi3+0x20>

00000020 <__hidden___udivsi3>:
  20:	00058613          	mv	a2,a1
  24:	00050593          	mv	a1,a0
  28:	fff00513          	li	a0,-1
  2c:	02060c63          	beqz	a2,64 <__hidden___udivsi3+0x44>
  30:	00100693          	li	a3,1
  34:	00b67a63          	bgeu	a2,a1,48 <__hidden___udivsi3+0x28>
  38:	00c05863          	blez	a2,48 <__hidden___udivsi3+0x28>
  3c:	00161613          	slli	a2,a2,0x1
  40:	00169693          	slli	a3,a3,0x1
  44:	feb66ae3          	bltu	a2,a1,38 <__hidden___udivsi3+0x18>
  48:	00000513          	li	a0,0
  4c:	00c5e663          	bltu	a1,a2,58 <__hidden___udivsi3+0x38>
  50:	40c585b3          	sub	a1,a1,a2
  54:	00d56533          	or	a0,a0,a3
  58:	0016d693          	srli	a3,a3,0x1
  5c:	00165613          	srli	a2,a2,0x1
  60:	fe0696e3          	bnez	a3,4c <__hidden___udivsi3+0x2c>
  64:	00008067          	ret

00000068 <__umodsi3>:
  68:	00008293          	mv	t0,ra
  6c:	fb5ff0ef          	jal	20 <__hidden___udivsi3>
  70:	00058513          	mv	a0,a1
  74:	00028067          	jr	t0
  78:	40a00533          	neg	a0,a0
  7c:	00b04863          	bgtz	a1,8c <__umodsi3+0x24>
  80:	40b005b3          	neg	a1,a1
  84:	f9dff06f          	j	20 <__hidden___udivsi3>
  88:	40b005b3          	neg	a1,a1
  8c:	00008293          	mv	t0,ra
  90:	f91ff0ef          	jal	20 <__hidden___udivsi3>
  94:	40a00533          	neg	a0,a0
  98:	00028067          	jr	t0

0000009c <__modsi3>:
  9c:	00008293          	mv	t0,ra
  a0:	0005ca63          	bltz	a1,b4 <__modsi3+0x18>
  a4:	00054c63          	bltz	a0,bc <__modsi3+0x20>
  a8:	f79ff0ef          	jal	20 <__hidden___udivsi3>
  ac:	00058513          	mv	a0,a1
  b0:	00028067          	jr	t0
  b4:	40b005b3          	neg	a1,a1
  b8:	fe0558e3          	bgez	a0,a8 <__modsi3+0xc>
  bc:	40a00533          	neg	a0,a0
  c0:	f61ff0ef          	jal	20 <__hidden___udivsi3>
  c4:	40b00533          	neg	a0,a1
  c8:	00028067          	jr	t0

Disassembly of section .text.startup:

000000cc <main>:
  cc:	26c02883          	lw	a7,620(zero) # 26c <h>
  d0:	27002383          	lw	t2,624(zero) # 270 <total>
  d4:	7139                	addi	sp,sp,-64
  d6:	4619                	li	a2,6
  d8:	26802e03          	lw	t3,616(zero) # 268 <i>
  dc:	dc22                	sw	s0,56(sp)
  de:	de06                	sw	ra,60(sp)
  e0:	da26                	sw	s1,52(sp)
  e2:	d84a                	sw	s2,48(sp)
  e4:	d64e                	sw	s3,44(sp)
  e6:	d452                	sw	s4,40(sp)
  e8:	d256                	sw	s5,36(sp)
  ea:	26c02a23          	sw	a2,628(zero) # 274 <N>
  ee:	4401                	li	s0,0
  f0:	4785                	li	a5,1
  f2:	459d                	li	a1,7
  f4:	4685                	li	a3,1
  f6:	4505                	li	a0,1
  f8:	4805                	li	a6,1
  fa:	4605                	li	a2,1
  fc:	4705                	li	a4,1
  fe:	0ad78863          	beq	a5,a3,1ae <main+0xe2>
 102:	0aa78663          	beq	a5,a0,1ae <main+0xe2>
 106:	0b078463          	beq	a5,a6,1ae <main+0xe2>
 10a:	0ac78263          	beq	a5,a2,1ae <main+0xe2>
 10e:	0ae78063          	beq	a5,a4,1ae <main+0xe2>
 112:	08f88e63          	beq	a7,a5,1ae <main+0xe2>
 116:	08fe0c63          	beq	t3,a5,1ae <main+0xe2>
 11a:	26402303          	lw	t1,612(zero) # 264 <j>
 11e:	08f30863          	beq	t1,a5,1ae <main+0xe2>
 122:	26002e83          	lw	t4,608(zero) # 260 <__bss_start>
 126:	08fe8463          	beq	t4,a5,1ae <main+0xe2>
 12a:	08a68263          	beq	a3,a0,1ae <main+0xe2>
 12e:	09068063          	beq	a3,a6,1ae <main+0xe2>
 132:	06c68e63          	beq	a3,a2,1ae <main+0xe2>
 136:	06e68c63          	beq	a3,a4,1ae <main+0xe2>
 13a:	06d88a63          	beq	a7,a3,1ae <main+0xe2>
 13e:	06de0863          	beq	t3,a3,1ae <main+0xe2>
 142:	06d30663          	beq	t1,a3,1ae <main+0xe2>
 146:	06de8463          	beq	t4,a3,1ae <main+0xe2>
 14a:	07050263          	beq	a0,a6,1ae <main+0xe2>
 14e:	06c50063          	beq	a0,a2,1ae <main+0xe2>
 152:	04e50e63          	beq	a0,a4,1ae <main+0xe2>
 156:	04a88c63          	beq	a7,a0,1ae <main+0xe2>
 15a:	04ae0a63          	beq	t3,a0,1ae <main+0xe2>
 15e:	04a30863          	beq	t1,a0,1ae <main+0xe2>
 162:	04ae8663          	beq	t4,a0,1ae <main+0xe2>
 166:	04c80463          	beq	a6,a2,1ae <main+0xe2>
 16a:	04e80263          	beq	a6,a4,1ae <main+0xe2>
 16e:	05088063          	beq	a7,a6,1ae <main+0xe2>
 172:	030e0e63          	beq	t3,a6,1ae <main+0xe2>
 176:	03030c63          	beq	t1,a6,1ae <main+0xe2>
 17a:	030e8a63          	beq	t4,a6,1ae <main+0xe2>
 17e:	02e60863          	beq	a2,a4,1ae <main+0xe2>
 182:	02c88663          	beq	a7,a2,1ae <main+0xe2>
 186:	02ce0463          	beq	t3,a2,1ae <main+0xe2>
 18a:	02c30263          	beq	t1,a2,1ae <main+0xe2>
 18e:	02ce8063          	beq	t4,a2,1ae <main+0xe2>
 192:	00e88e63          	beq	a7,a4,1ae <main+0xe2>
 196:	00ee0c63          	beq	t3,a4,1ae <main+0xe2>
 19a:	00e30a63          	beq	t1,a4,1ae <main+0xe2>
 19e:	00ee8863          	beq	t4,a4,1ae <main+0xe2>
 1a2:	006e0663          	beq	t3,t1,1ae <main+0xe2>
 1a6:	01d88463          	beq	a7,t4,1ae <main+0xe2>
 1aa:	0385                	addi	t2,t2,1
 1ac:	4405                	li	s0,1
 1ae:	0705                	addi	a4,a4,1
 1b0:	f4b717e3          	bne	a4,a1,fe <main+0x32>
 1b4:	0605                	addi	a2,a2,1
 1b6:	f4e613e3          	bne	a2,a4,fc <main+0x30>
 1ba:	0805                	addi	a6,a6,1
 1bc:	f2c81fe3          	bne	a6,a2,fa <main+0x2e>
 1c0:	0505                	addi	a0,a0,1
 1c2:	f3051be3          	bne	a0,a6,f8 <main+0x2c>
 1c6:	0685                	addi	a3,a3,1
 1c8:	f2a697e3          	bne	a3,a0,f6 <main+0x2a>
 1cc:	0785                	addi	a5,a5,1
 1ce:	f2d793e3          	bne	a5,a3,f4 <main+0x28>
 1d2:	e441                	bnez	s0,25a <main+0x18e>
 1d4:	27002403          	lw	s0,624(zero) # 270 <total>
 1d8:	4981                	li	s3,0
 1da:	00045563          	bgez	s0,1e4 <main+0x118>
 1de:	40800433          	neg	s0,s0
 1e2:	4985                	li	s3,1
 1e4:	4481                	li	s1,0
 1e6:	01410913          	addi	s2,sp,20 # 20014 <__heap_start+0x1f014>
 1ea:	4a25                	li	s4,9
 1ec:	87a6                	mv	a5,s1
 1ee:	45a9                	li	a1,10
 1f0:	8522                	mv	a0,s0
 1f2:	c63e                	sw	a5,12(sp)
 1f4:	0485                	addi	s1,s1,1
 1f6:	355d                	jal	9c <__modsi3>
 1f8:	03050713          	addi	a4,a0,48
 1fc:	00990ab3          	add	s5,s2,s1
 200:	feea8fa3          	sb	a4,-1(s5)
 204:	8522                	mv	a0,s0
 206:	45a9                	li	a1,10
 208:	3d01                	jal	18 <__divsi3>
 20a:	8aa2                	mv	s5,s0
 20c:	47b2                	lw	a5,12(sp)
 20e:	842a                	mv	s0,a0
 210:	fd5a4ee3          	blt	s4,s5,1ec <main+0x120>
 214:	00098b63          	beqz	s3,22a <main+0x15e>
 218:	01048793          	addi	a5,s1,16
 21c:	0818                	addi	a4,sp,16
 21e:	973e                	add	a4,a4,a5
 220:	02d00693          	li	a3,45
 224:	87a6                	mv	a5,s1
 226:	fed70a23          	sb	a3,-12(a4)
 22a:	97ca                	add	a5,a5,s2
 22c:	00030737          	lui	a4,0x30
 230:	0007c603          	lbu	a2,0(a5)
 234:	86be                	mv	a3,a5
 236:	17fd                	addi	a5,a5,-1
 238:	00c70023          	sb	a2,0(a4) # 30000 <__heap_start+0x2f000>
 23c:	fed91ae3          	bne	s2,a3,230 <main+0x164>
 240:	47a9                	li	a5,10
 242:	00f70023          	sb	a5,0(a4)
 246:	50f2                	lw	ra,60(sp)
 248:	5462                	lw	s0,56(sp)
 24a:	54d2                	lw	s1,52(sp)
 24c:	5942                	lw	s2,48(sp)
 24e:	59b2                	lw	s3,44(sp)
 250:	5a22                	lw	s4,40(sp)
 252:	5a92                	lw	s5,36(sp)
 254:	4501                	li	a0,0
 256:	6121                	addi	sp,sp,64
 258:	8082                	ret
 25a:	26702823          	sw	t2,624(zero) # 270 <total>
 25e:	bf9d                	j	1d4 <main+0x108>

Disassembly of section .sdata:

00000260 <k>:
 260:	0066                	c.slli	zero,0x19
	...

00000264 <j>:
 264:	0065                	c.nop	25
	...

00000268 <i>:
 268:	0064                	addi	s1,sp,12
	...

0000026c <h>:
 26c:	00000063          	beqz	zero,26c <h>

Disassembly of section .riscv.attributes:

00000000 <.riscv.attributes>:
   0:	2041                	jal	80 <__umodsi3+0x18>
   2:	0000                	unimp
   4:	7200                	.insn	2, 0x7200
   6:	7369                	lui	t1,0xffffa
   8:	01007663          	bgeu	zero,a6,14 <_start+0x14>
   c:	0016                	c.slli	zero,0x5
   e:	0000                	unimp
  10:	1004                	addi	s1,sp,32
  12:	7205                	lui	tp,0xfffe1
  14:	3376                	.insn	2, 0x3376
  16:	6932                	.insn	2, 0x6932
  18:	7032                	.insn	2, 0x7032
  1a:	5f31                	li	t5,-20
  1c:	30703263          	.insn	4, 0x30703263
	...

Disassembly of section .comment:

00000000 <.comment>:
   0:	3a434347          	.insn	4, 0x3a434347
   4:	2820                	.insn	2, 0x2820
   6:	7241                	lui	tp,0xffff0
   8:	4c206863          	bltu	zero,sp,4d8 <N+0x264>
   c:	6e69                	lui	t3,0x1a
   e:	7875                	lui	a6,0xffffd
  10:	5220                	lw	s0,96(a2)
  12:	7065                	c.lui	zero,0xffff9
  14:	7469736f          	jal	t1,9775a <__heap_start+0x9675a>
  18:	6569726f          	jal	tp,9766e <__heap_start+0x9666e>
  1c:	31202973          	.insn	4, 0x31202973
  20:	2e34                	.insn	2, 0x2e34
  22:	2e31                	jal	33e <N+0xca>
  24:	0030                	addi	a2,sp,8

Disassembly of section .debug_info:

00000000 <.debug_info>:
   0:	00000237          	lui	tp,0x0
   4:	0005                	c.nop	1
   6:	0401                	addi	s0,s0,0
   8:	0000                	unimp
   a:	0000                	unimp
   c:	450d                	li	a0,3
   e:	0000                	unimp
  10:	1d00                	addi	s0,sp,688
  12:	000e                	c.slli	zero,0x3
  14:	0000                	unimp
  16:	0000                	unimp
  18:	0000                	unimp
  1a:	0028                	addi	a0,sp,8
	...
  24:	0000                	unimp
  26:	4e02                	lw	t3,0(sp)
  28:	0500                	addi	s0,sp,640
  2a:	0034                	addi	a3,sp,8
  2c:	0000                	unimp
  2e:	0305                	addi	t1,t1,1 # ffffa001 <__heap_start+0xffff9001>
  30:	0274                	addi	a3,sp,268
  32:	0000                	unimp
  34:	040e                	slli	s0,s0,0x3
  36:	6905                	lui	s2,0x1
  38:	746e                	.insn	2, 0x746e
  3a:	0500                	addi	s0,sp,640
  3c:	0034                	addi	a3,sp,8
  3e:	0000                	unimp
  40:	6802                	.insn	2, 0x6802
  42:	0600                	addi	s0,sp,768
  44:	0034                	addi	a3,sp,8
  46:	0000                	unimp
  48:	0305                	addi	t1,t1,1
  4a:	026c                	addi	a1,sp,268
  4c:	0000                	unimp
  4e:	6902                	.insn	2, 0x6902
  50:	0700                	addi	s0,sp,896
  52:	0034                	addi	a3,sp,8
  54:	0000                	unimp
  56:	0305                	addi	t1,t1,1
  58:	0268                	addi	a0,sp,268
  5a:	0000                	unimp
  5c:	6a02                	.insn	2, 0x6a02
  5e:	0800                	addi	s0,sp,16
  60:	0034                	addi	a3,sp,8
  62:	0000                	unimp
  64:	0305                	addi	t1,t1,1
  66:	0264                	addi	s1,sp,268
  68:	0000                	unimp
  6a:	6b02                	.insn	2, 0x6b02
  6c:	0900                	addi	s0,sp,144
  6e:	0034                	addi	a3,sp,8
  70:	0000                	unimp
  72:	0305                	addi	t1,t1,1
  74:	0260                	addi	s0,sp,268
  76:	0000                	unimp
  78:	00003f0f          	.insn	4, 0x3f0f
  7c:	0100                	addi	s0,sp,128
  7e:	050a                	slli	a0,a0,0x2
  80:	0034                	addi	a3,sp,8
  82:	0000                	unimp
  84:	0305                	addi	t1,t1,1
  86:	0270                	addi	a2,sp,268
  88:	0000                	unimp
  8a:	3a10                	.insn	2, 0x3a10
  8c:	0000                	unimp
  8e:	0100                	addi	s0,sp,128
  90:	050c                	addi	a1,sp,640
  92:	0034                	addi	a3,sp,8
  94:	0000                	unimp
  96:	00cc                	addi	a1,sp,68
  98:	0000                	unimp
  9a:	0194                	addi	a3,sp,192
  9c:	0000                	unimp
  9e:	9c01                	.insn	2, 0x9c01
  a0:	0196                	slli	gp,gp,0x5
  a2:	0000                	unimp
  a4:	6101                	addi	sp,sp,0
  a6:	0d00                	addi	s0,sp,656
  a8:	3408                	.insn	2, 0x3408
  aa:	0000                	unimp
  ac:	0c00                	addi	s0,sp,528
  ae:	0000                	unimp
  b0:	0100                	addi	s0,sp,128
  b2:	0062                	c.slli	zero,0x18
  b4:	090e                	slli	s2,s2,0x3
  b6:	0034                	addi	a3,sp,8
  b8:	0000                	unimp
  ba:	0000002f          	.insn	4, 0x002f
  be:	6301                	.insn	2, 0x6301
  c0:	0f00                	addi	s0,sp,912
  c2:	3406                	.insn	2, 0x3406
  c4:	0000                	unimp
  c6:	5200                	lw	s0,32(a2)
  c8:	0000                	unimp
  ca:	0100                	addi	s0,sp,128
  cc:	0064                	addi	s1,sp,12
  ce:	0610                	addi	a2,sp,768
  d0:	0034                	addi	a3,sp,8
  d2:	0000                	unimp
  d4:	0075                	c.nop	29
  d6:	0000                	unimp
  d8:	6501                	.insn	2, 0x6501
  da:	1100                	addi	s0,sp,160
  dc:	3406                	.insn	2, 0x3406
  de:	0000                	unimp
  e0:	9800                	.insn	2, 0x9800
  e2:	0000                	unimp
  e4:	0100                	addi	s0,sp,128
  e6:	0066                	c.slli	zero,0x19
  e8:	0612                	slli	a2,a2,0x4
  ea:	0034                	addi	a3,sp,8
  ec:	0000                	unimp
  ee:	000000bb          	.insn	4, 0x00bb
  f2:	9609                	srai	a2,a2,0x22
  f4:	0001                	nop
  f6:	d800                	sw	s0,48(s0)
  f8:	0001                	nop
  fa:	6e00                	.insn	2, 0x6e00
  fc:	0000                	unimp
  fe:	0100                	addi	s0,sp,128
 100:	0324                	addi	s1,sp,392
 102:	01a0                	addi	s0,sp,200
 104:	0000                	unimp
 106:	00de                	slli	ra,ra,0x17
 108:	0000                	unimp
 10a:	b811                	j	fffff91e <__heap_start+0xffffe91e>
 10c:	0001                	nop
 10e:	d800                	sw	s0,48(s0)
 110:	0001                	nop
 112:	6800                	.insn	2, 0x6800
 114:	0000                	unimp
 116:	0200                	addi	s0,sp,256
 118:	017b0553          	.insn	4, 0x017b0553
 11c:	0000                	unimp
 11e:	0001c203          	lbu	tp,0(gp)
 122:	de00                	sw	s0,56(a2)
 124:	0000                	unimp
 126:	1200                	addi	s0,sp,288
 128:	01cd                	addi	gp,gp,19
 12a:	0000                	unimp
 12c:	9102                	jalr	sp
 12e:	0654                	addi	a3,sp,772
 130:	01d8                	addi	a4,sp,196
 132:	0000                	unimp
 134:	00f9                	addi	ra,ra,30
 136:	0000                	unimp
 138:	e306                	.insn	2, 0xe306
 13a:	0001                	nop
 13c:	0500                	addi	s0,sp,640
 13e:	0001                	nop
 140:	0600                	addi	s0,sp,768
 142:	01ec                	addi	a1,sp,204
 144:	0000                	unimp
 146:	015e                	slli	sp,sp,0x17
 148:	0000                	unimp
 14a:	00021213          	slli	tp,tp,0x0
 14e:	2c00                	.insn	2, 0x2c00
 150:	0002                	c.slli64	zero
 152:	0c00                	addi	s0,sp,528
 154:	0000                	unimp
 156:	0200                	addi	s0,sp,256
 158:	0941                	addi	s2,s2,16 # 1010 <__heap_start+0x10>
 15a:	0168                	addi	a0,sp,140
 15c:	0000                	unimp
 15e:	00021c03          	lh	s8,0(tp) # 0 <_start>
 162:	8200                	.insn	2, 0x8200
 164:	0001                	nop
 166:	0000                	unimp
 168:	f80a                	.insn	2, 0xf80a
 16a:	0001                	nop
 16c:	2800                	.insn	2, 0x2800
 16e:	0002                	c.slli64	zero
 170:	0a00                	addi	s0,sp,272
 172:	020a                	slli	tp,tp,0x2
 174:	0000                	unimp
 176:	0231                	addi	tp,tp,12 # c <_start+0xc>
 178:	0000                	unimp
 17a:	0900                	addi	s0,sp,144
 17c:	0212                	slli	tp,tp,0x4
 17e:	0000                	unimp
 180:	0240                	addi	s0,sp,260
 182:	0000                	unimp
 184:	0006                	c.slli	zero,0x1
 186:	0000                	unimp
 188:	5402                	lw	s0,32(sp)
 18a:	00021c03          	lh	s8,0(tp) # 0 <_start>
 18e:	9b00                	.insn	2, 0x9b00
 190:	0001                	nop
 192:	0000                	unimp
 194:	0000                	unimp
 196:	00000d07          	.insn	4, 0x0d07
 19a:	5100                	lw	s0,32(a0)
 19c:	01ac                	addi	a1,sp,200
 19e:	0000                	unimp
 1a0:	1908                	addi	a0,sp,176
 1a2:	0000                	unimp
 1a4:	5100                	lw	s0,32(a0)
 1a6:	b32e                	.insn	2, 0xb32e
 1a8:	0001                	nop
 1aa:	0000                	unimp
 1ac:	0007040b          	.insn	4, 0x0007040b
 1b0:	0000                	unimp
 1b2:	0500                	addi	s0,sp,640
 1b4:	01ac                	addi	a1,sp,200
 1b6:	0000                	unimp
 1b8:	00002707          	.insn	4, 0x2707
 1bc:	3200                	.insn	2, 0x3200
 1be:	01f6                	slli	gp,gp,0x1d
 1c0:	0000                	unimp
 1c2:	1908                	addi	a0,sp,176
 1c4:	0000                	unimp
 1c6:	3200                	.insn	2, 0x3200
 1c8:	00003b23          	.insn	4, 0x3b23
 1cc:	0400                	addi	s0,sp,512
 1ce:	00727473          	.insn	4, 0x00727473
 1d2:	1334                	addi	a3,sp,424
 1d4:	01f6                	slli	gp,gp,0x1d
 1d6:	0000                	unimp
 1d8:	7404                	.insn	2, 0x7404
 1da:	706d                	c.lui	zero,0xffffb
 1dc:	3500                	.insn	2, 0x3500
 1de:	3409                	jal	fffffbe0 <__heap_start+0xffffebe0>
 1e0:	0000                	unimp
 1e2:	0400                	addi	s0,sp,512
 1e4:	0069                	c.nop	26
 1e6:	0936                	slli	s2,s2,0xd
 1e8:	0034                	addi	a3,sp,8
 1ea:	0000                	unimp
 1ec:	7304                	.insn	2, 0x7304
 1ee:	3600                	.insn	2, 0x3600
 1f0:	340e                	.insn	2, 0x340e
 1f2:	0000                	unimp
 1f4:	0000                	unimp
 1f6:	0614                	addi	a3,sp,768
 1f8:	0002                	c.slli64	zero
 1fa:	0600                	addi	s0,sp,768
 1fc:	0002                	c.slli64	zero
 1fe:	1500                	addi	s0,sp,672
 200:	01ac                	addi	a1,sp,200
 202:	0000                	unimp
 204:	010b000b          	.insn	4, 0x010b000b
 208:	2c08                	.insn	2, 0x2c08
 20a:	0000                	unimp
 20c:	0500                	addi	s0,sp,640
 20e:	0206                	slli	tp,tp,0x1
 210:	0000                	unimp
 212:	00001407          	.insn	4, 0x1407
 216:	1200                	addi	s0,sp,288
 218:	0228                	addi	a0,sp,264
 21a:	0000                	unimp
 21c:	1908                	addi	a0,sp,176
 21e:	0000                	unimp
 220:	1200                	addi	s0,sp,288
 222:	0d2d                	addi	s10,s10,11
 224:	0002                	c.slli64	zero
 226:	0000                	unimp
 228:	920c                	.insn	2, 0x920c
 22a:	0000                	unimp
 22c:	9200                	.insn	2, 0x9200
 22e:	0000                	unimp
 230:	0c00                	addi	s0,sp,528
 232:	001e                	c.slli	zero,0x7
 234:	0000                	unimp
 236:	001e                	c.slli	zero,0x7
 238:	0000                	unimp
 23a:	5500                	lw	s0,40(a0)
 23c:	0000                	unimp
 23e:	0500                	addi	s0,sp,640
 240:	0100                	addi	s0,sp,128
 242:	3704                	.insn	2, 0x3704
 244:	0001                	nop
 246:	0100                	addi	s0,sp,128
 248:	058e                	slli	a1,a1,0x3
 24a:	0000                	unimp
 24c:	0018                	.insn	2, 0x0018
 24e:	0000                	unimp
 250:	01b4                	addi	a3,sp,200
 252:	0000009b          	.insn	4, 0x009b
 256:	000000db          	.insn	4, 0x00db
 25a:	011f 0000 8001      	.insn	6, 0x80010000011f
 260:	1e02                	slli	t3,t3,0x20
 262:	0000                	unimp
 264:	1800                	addi	s0,sp,48
 266:	0000                	unimp
 268:	8400                	.insn	2, 0x8400
 26a:	0201                	addi	tp,tp,0 # 0 <_start>
 26c:	0134                	addi	a3,sp,136
 26e:	0000                	unimp
 270:	0020                	addi	s0,sp,8
 272:	0000                	unimp
 274:	0248                	addi	a0,sp,260
 276:	0000012b          	.insn	4, 0x012b
 27a:	0020                	addi	s0,sp,8
 27c:	0000                	unimp
 27e:	0248                	addi	a0,sp,260
 280:	013e                	slli	sp,sp,0xf
 282:	0000                	unimp
 284:	0068                	addi	a0,sp,12
 286:	0000                	unimp
 288:	0210                	addi	a2,sp,256
 28a:	0092                	slli	ra,ra,0x4
 28c:	0000                	unimp
 28e:	009c                	addi	a5,sp,64
 290:	0000                	unimp
 292:	0030                	addi	a2,sp,8

Disassembly of section .debug_abbrev:

00000000 <.debug_abbrev>:
   0:	3401                	jal	fffffa00 <__heap_start+0xffffea00>
   2:	0300                	addi	s0,sp,384
   4:	3a08                	.insn	2, 0x3a08
   6:	0121                	addi	sp,sp,8
   8:	0b390b3b          	.insn	4, 0x0b390b3b
   c:	1349                	addi	t1,t1,-14
   e:	1702                	slli	a4,a4,0x20
  10:	0000                	unimp
  12:	3402                	.insn	2, 0x3402
  14:	0300                	addi	s0,sp,384
  16:	3a08                	.insn	2, 0x3a08
  18:	0121                	addi	sp,sp,8
  1a:	21390b3b          	.insn	4, 0x21390b3b
  1e:	4905                	li	s2,1
  20:	02193f13          	sltiu	t5,s2,33
  24:	0018                	.insn	2, 0x0018
  26:	0300                	addi	s0,sp,384
  28:	0005                	c.nop	1
  2a:	1331                	addi	t1,t1,-20
  2c:	1702                	slli	a4,a4,0x20
  2e:	0000                	unimp
  30:	3404                	.insn	2, 0x3404
  32:	0300                	addi	s0,sp,384
  34:	3a08                	.insn	2, 0x3a08
  36:	0221                	addi	tp,tp,8 # 8 <_start+0x8>
  38:	0b390b3b          	.insn	4, 0x0b390b3b
  3c:	1349                	addi	t1,t1,-14
  3e:	0000                	unimp
  40:	2605                	jal	360 <N+0xec>
  42:	4900                	lw	s0,16(a0)
  44:	06000013          	li	zero,96
  48:	0034                	addi	a3,sp,8
  4a:	1331                	addi	t1,t1,-20
  4c:	1702                	slli	a4,a4,0x20
  4e:	0000                	unimp
  50:	03012e07          	.insn	4, 0x03012e07
  54:	3a0e                	.insn	2, 0x3a0e
  56:	0221                	addi	tp,tp,8 # 8 <_start+0x8>
  58:	21390b3b          	.insn	4, 0x21390b3b
  5c:	2714                	.insn	2, 0x2714
  5e:	2019                	jal	64 <__hidden___udivsi3+0x44>
  60:	0321                	addi	t1,t1,8
  62:	1301                	addi	t1,t1,-32
  64:	0000                	unimp
  66:	0508                	addi	a0,sp,640
  68:	0300                	addi	s0,sp,384
  6a:	3a0e                	.insn	2, 0x3a0e
  6c:	0221                	addi	tp,tp,8 # 8 <_start+0x8>
  6e:	0b390b3b          	.insn	4, 0x0b390b3b
  72:	1349                	addi	t1,t1,-14
  74:	0000                	unimp
  76:	1d09                	addi	s10,s10,-30
  78:	3101                	jal	fffffc78 <__heap_start+0xffffec78>
  7a:	12011113          	.insn	4, 0x12011113
  7e:	5806                	lw	a6,96(sp)
  80:	570b590b          	.insn	4, 0x570b590b
  84:	0221                	addi	tp,tp,8 # 8 <_start+0x8>
  86:	0000                	unimp
  88:	480a                	lw	a6,128(sp)
  8a:	7d00                	.insn	2, 0x7d00
  8c:	7f01                	lui	t5,0xfffe0
  8e:	0b000013          	li	zero,176
  92:	0024                	addi	s1,sp,8
  94:	0b3e0b0b          	.insn	4, 0x0b3e0b0b
  98:	00000e03          	lb	t3,0(zero) # 0 <_start>
  9c:	2e0c                	.insn	2, 0x2e0c
  9e:	3f00                	.insn	2, 0x3f00
  a0:	3c19                	jal	fffffab6 <__heap_start+0xffffeab6>
  a2:	6e19                	lui	t3,0x6
  a4:	030e                	slli	t1,t1,0x3
  a6:	000e                	c.slli	zero,0x3
  a8:	0d00                	addi	s0,sp,656
  aa:	0111                	addi	sp,sp,4
  ac:	0e25                	addi	t3,t3,9 # 6009 <__heap_start+0x5009>
  ae:	1f030b13          	addi	s6,t1,496
  b2:	17551f1b          	.insn	4, 0x17551f1b
  b6:	0111                	addi	sp,sp,4
  b8:	1710                	addi	a2,sp,928
  ba:	0000                	unimp
  bc:	240e                	.insn	2, 0x240e
  be:	0b00                	addi	s0,sp,400
  c0:	030b3e0b          	.insn	4, 0x030b3e0b
  c4:	0008                	.insn	2, 0x0008
  c6:	0f00                	addi	s0,sp,912
  c8:	0034                	addi	a3,sp,8
  ca:	0b3a0e03          	lb	t3,179(s4)
  ce:	0b390b3b          	.insn	4, 0x0b390b3b
  d2:	1349                	addi	t1,t1,-14
  d4:	1802193f 2e100000 	.insn	8, 0x2e1000001802193f
  dc:	3f01                	jal	ffffffec <__heap_start+0xffffefec>
  de:	0319                	addi	t1,t1,6
  e0:	3a0e                	.insn	2, 0x3a0e
  e2:	390b3b0b          	.insn	4, 0x390b3b0b
  e6:	1113490b          	.insn	4, 0x1113490b
  ea:	1201                	addi	tp,tp,-32 # ffffffe0 <__heap_start+0xffffefe0>
  ec:	4006                	.insn	2, 0x4006
  ee:	7a18                	.insn	2, 0x7a18
  f0:	0119                	addi	sp,sp,6
  f2:	11000013          	li	zero,272
  f6:	011d                	addi	sp,sp,7
  f8:	1331                	addi	t1,t1,-20
  fa:	0111                	addi	sp,sp,4
  fc:	0612                	slli	a2,a2,0x4
  fe:	0b58                	addi	a4,sp,404
 100:	0b59                	addi	s6,s6,22
 102:	13010b57          	.insn	4, 0x13010b57
 106:	0000                	unimp
 108:	3412                	.insn	2, 0x3412
 10a:	3100                	.insn	2, 0x3100
 10c:	00180213          	addi	tp,a6,1 # ffffd001 <__heap_start+0xffffc001>
 110:	1300                	addi	s0,sp,416
 112:	011d                	addi	sp,sp,7
 114:	1331                	addi	t1,t1,-20
 116:	0152                	slli	sp,sp,0x14
 118:	1755                	addi	a4,a4,-11
 11a:	0b58                	addi	a4,sp,404
 11c:	0b59                	addi	s6,s6,22
 11e:	13010b57          	.insn	4, 0x13010b57
 122:	0000                	unimp
 124:	0114                	addi	a3,sp,128
 126:	4901                	li	s2,0
 128:	00130113          	addi	sp,t1,1
 12c:	1500                	addi	s0,sp,672
 12e:	0021                	c.nop	8
 130:	1349                	addi	t1,t1,-14
 132:	00000b2f          	.insn	4, 0x0b2f
 136:	0100                	addi	s0,sp,128
 138:	0111                	addi	sp,sp,4
 13a:	1710                	addi	a2,sp,928
 13c:	0111                	addi	sp,sp,4
 13e:	0f12                	slli	t5,t5,0x4
 140:	0e1b0e03          	lb	t3,225(s6)
 144:	0e25                	addi	t3,t3,9
 146:	00000513          	li	a0,0
 14a:	2e02                	.insn	2, 0x2e02
 14c:	0300                	addi	s0,sp,384
 14e:	3f0e                	.insn	2, 0x3f0e
 150:	1119                	addi	sp,sp,-26
 152:	1201                	addi	tp,tp,-32 # ffffffe0 <__heap_start+0xffffefe0>
 154:	0000000f          	fence	unknown,unknown

Disassembly of section .debug_loclists:

00000000 <.debug_loclists>:
   0:	01a4                	addi	s1,sp,200
   2:	0000                	unimp
   4:	0005                	c.nop	1
   6:	0004                	.insn	2, 0x0004
   8:	0000                	unimp
   a:	0000                	unimp
   c:	0000ee07          	.insn	4, 0xee07
  10:	f400                	.insn	2, 0xf400
  12:	0000                	unimp
  14:	0200                	addi	s0,sp,256
  16:	9f31                	.insn	2, 0x9f31
  18:	0000f407          	.insn	4, 0xf407
  1c:	ec00                	.insn	2, 0xec00
  1e:	0001                	nop
  20:	0100                	addi	s0,sp,128
  22:	075f 025a 0000      	.insn	6, 0x025a075f
  28:	0260                	addi	s0,sp,268
  2a:	0000                	unimp
  2c:	5f01                	li	t5,-32
  2e:	0700                	addi	s0,sp,896
  30:	00f4                	addi	a3,sp,76
  32:	0000                	unimp
  34:	00f6                	slli	ra,ra,0x1d
  36:	0000                	unimp
  38:	3102                	.insn	2, 0x3102
  3a:	079f 00f6 0000      	.insn	6, 0x00f6079f
  40:	01ec                	addi	a1,sp,204
  42:	0000                	unimp
  44:	5d01                	li	s10,-32
  46:	00025a07          	.insn	4, 0x00025a07
  4a:	6000                	.insn	2, 0x6000
  4c:	0002                	c.slli64	zero
  4e:	0100                	addi	s0,sp,128
  50:	005d                	c.nop	23
  52:	0000f607          	.insn	4, 0xf607
  56:	f800                	.insn	2, 0xf800
  58:	0000                	unimp
  5a:	0200                	addi	s0,sp,256
  5c:	9f31                	.insn	2, 0x9f31
  5e:	0000f807          	.insn	4, 0xf807
  62:	ec00                	.insn	2, 0xec00
  64:	0001                	nop
  66:	0100                	addi	s0,sp,128
  68:	075a                	slli	a4,a4,0x16
  6a:	025a                	slli	tp,tp,0x16
  6c:	0000                	unimp
  6e:	0260                	addi	s0,sp,268
  70:	0000                	unimp
  72:	5a01                	li	s4,-32
  74:	0700                	addi	s0,sp,896
  76:	00f8                	addi	a4,sp,76
  78:	0000                	unimp
  7a:	00fa                	slli	ra,ra,0x1e
  7c:	0000                	unimp
  7e:	3102                	.insn	2, 0x3102
  80:	079f 00fa 0000      	.insn	6, 0x00fa079f
  86:	01ec                	addi	a1,sp,204
  88:	0000                	unimp
  8a:	6001                	.insn	2, 0x6001
  8c:	00025a07          	.insn	4, 0x00025a07
  90:	6000                	.insn	2, 0x6000
  92:	0002                	c.slli64	zero
  94:	0100                	addi	s0,sp,128
  96:	0060                	addi	s0,sp,12
  98:	0000fa07          	.insn	4, 0xfa07
  9c:	fc00                	.insn	2, 0xfc00
  9e:	0000                	unimp
  a0:	0200                	addi	s0,sp,256
  a2:	9f31                	.insn	2, 0x9f31
  a4:	0000fc07          	.insn	4, 0xfc07
  a8:	ec00                	.insn	2, 0xec00
  aa:	0001                	nop
  ac:	0100                	addi	s0,sp,128
  ae:	075c                	addi	a5,sp,900
  b0:	025a                	slli	tp,tp,0x16
  b2:	0000                	unimp
  b4:	0260                	addi	s0,sp,268
  b6:	0000                	unimp
  b8:	5c01                	li	s8,-32
  ba:	0700                	addi	s0,sp,896
  bc:	00fc                	addi	a5,sp,76
  be:	0000                	unimp
  c0:	00fe                	slli	ra,ra,0x1f
  c2:	0000                	unimp
  c4:	3102                	.insn	2, 0x3102
  c6:	079f 00fe 0000      	.insn	6, 0x00fe079f
  cc:	01ec                	addi	a1,sp,204
  ce:	0000                	unimp
  d0:	5e01                	li	t3,-32
  d2:	00025a07          	.insn	4, 0x00025a07
  d6:	6000                	.insn	2, 0x6000
  d8:	0002                	c.slli64	zero
  da:	0100                	addi	s0,sp,128
  dc:	005e                	c.slli	zero,0x17
  de:	0001d807          	.insn	4, 0x0001d807
  e2:	e200                	.insn	2, 0xe200
  e4:	0001                	nop
  e6:	0100                	addi	s0,sp,128
  e8:	0758                	addi	a4,sp,900
  ea:	01e2                	slli	gp,gp,0x18
  ec:	0000                	unimp
  ee:	01ec                	addi	a1,sp,204
  f0:	0000                	unimp
  f2:	0305                	addi	t1,t1,1
  f4:	0270                	addi	a2,sp,268
  f6:	0000                	unimp
  f8:	0700                	addi	s0,sp,896
  fa:	01d8                	addi	a4,sp,196
  fc:	0000                	unimp
  fe:	0240                	addi	s0,sp,260
 100:	0000                	unimp
 102:	5801                	li	a6,-32
 104:	0700                	addi	s0,sp,896
 106:	01d8                	addi	a4,sp,196
 108:	0000                	unimp
 10a:	01ec                	addi	a1,sp,204
 10c:	0000                	unimp
 10e:	3002                	.insn	2, 0x3002
 110:	079f 01ec 0000      	.insn	6, 0x01ec079f
 116:	0218                	addi	a4,sp,256
 118:	0000                	unimp
 11a:	5901                	li	s2,-32
 11c:	00021807          	.insn	4, 0x00021807
 120:	1c00                	addi	s0,sp,560
 122:	0002                	c.slli64	zero
 124:	0300                	addi	s0,sp,384
 126:	027f 079f 021c 0000 	.insn	10, 0x022a0000021c079f027f
 12e:	022a 
 130:	0000                	unimp
 132:	9106                	add	sp,sp,ra
 134:	064c                	addi	a1,sp,772
 136:	079f0223          	sb	s9,100(t5) # fffe0064 <__heap_start+0xfffdf064>
 13a:	0230                	addi	a2,sp,264
 13c:	0000                	unimp
 13e:	0238                	addi	a4,sp,264
 140:	0000                	unimp
 142:	7f08                	.insn	2, 0x7f08
 144:	9100                	.insn	2, 0x9100
 146:	1c00                	addi	s0,sp,560
 148:	079f2c23          	sw	s9,120(t5)
 14c:	0238                	addi	a4,sp,264
 14e:	0000                	unimp
 150:	023c                	addi	a5,sp,264
 152:	0000                	unimp
 154:	7d08                	.insn	2, 0x7d08
 156:	9100                	.insn	2, 0x9100
 158:	1c00                	addi	s0,sp,560
 15a:	009f2c23          	sw	s1,24(t5)
 15e:	0001d807          	.insn	4, 0x0001d807
 162:	de00                	sw	s0,56(a2)
 164:	0001                	nop
 166:	0200                	addi	s0,sp,256
 168:	9f30                	.insn	2, 0x9f30
 16a:	0001de07          	.insn	4, 0x0001de07
 16e:	e400                	.insn	2, 0xe400
 170:	0001                	nop
 172:	0200                	addi	s0,sp,256
 174:	9f31                	.insn	2, 0x9f31
 176:	0001ec07          	.insn	4, 0x0001ec07
 17a:	4000                	lw	s0,0(s0)
 17c:	0002                	c.slli64	zero
 17e:	0100                	addi	s0,sp,128
 180:	34070063          	beqz	a4,4c0 <N+0x24c>
 184:	0002                	c.slli64	zero
 186:	3800                	.insn	2, 0x3800
 188:	0002                	c.slli64	zero
 18a:	0200                	addi	s0,sp,256
 18c:	007f 3807 0002 3c00 	.insn	10, 0x00023c0000023807007f
 194:	0002 
 196:	0200                	addi	s0,sp,256
 198:	007d                	c.nop	31
 19a:	0700                	addi	s0,sp,896
 19c:	0240                	addi	s0,sp,260
 19e:	0000                	unimp
 1a0:	0246                	slli	tp,tp,0x11
 1a2:	0000                	unimp
 1a4:	3a02                	.insn	2, 0x3a02
 1a6:	Address 0x1a6 is out of bounds.


Disassembly of section .debug_aranges:

00000000 <.debug_aranges>:
   0:	001c                	.insn	2, 0x001c
   2:	0000                	unimp
   4:	0002                	c.slli64	zero
   6:	0000                	unimp
   8:	0000                	unimp
   a:	0004                	.insn	2, 0x0004
   c:	0000                	unimp
   e:	0000                	unimp
  10:	00cc                	addi	a1,sp,68
  12:	0000                	unimp
  14:	0194                	addi	a3,sp,192
	...
  1e:	0000                	unimp
  20:	001c                	.insn	2, 0x001c
  22:	0000                	unimp
  24:	0002                	c.slli64	zero
  26:	0000023b          	.insn	4, 0x023b
  2a:	0004                	.insn	2, 0x0004
  2c:	0000                	unimp
  2e:	0000                	unimp
  30:	0018                	.insn	2, 0x0018
  32:	0000                	unimp
  34:	00b4                	addi	a3,sp,72
	...

Disassembly of section .debug_rnglists:

00000000 <.debug_rnglists>:
   0:	002e                	c.slli	zero,0xb
   2:	0000                	unimp
   4:	0005                	c.nop	1
   6:	0004                	.insn	2, 0x0004
   8:	0000                	unimp
   a:	0000                	unimp
   c:	2c06                	.insn	2, 0x2c06
   e:	0002                	c.slli64	zero
  10:	3000                	.insn	2, 0x3000
  12:	0002                	c.slli64	zero
  14:	0600                	addi	s0,sp,768
  16:	0234                	addi	a3,sp,264
  18:	0000                	unimp
  1a:	0236                	slli	tp,tp,0xd
  1c:	0000                	unimp
  1e:	3806                	.insn	2, 0x3806
  20:	0002                	c.slli64	zero
  22:	3c00                	.insn	2, 0x3c00
  24:	0002                	c.slli64	zero
  26:	0000                	unimp
  28:	cc06                	sw	ra,24(sp)
  2a:	0000                	unimp
  2c:	6000                	.insn	2, 0x6000
  2e:	0002                	c.slli64	zero
	...

Disassembly of section .debug_line:

00000000 <.debug_line>:
   0:	058a                	slli	a1,a1,0x2
   2:	0000                	unimp
   4:	0005                	c.nop	1
   6:	0004                	.insn	2, 0x0004
   8:	00000033          	add	zero,zero,zero
   c:	0101                	addi	sp,sp,0
   e:	fb01                	bnez	a4,ffffff1e <__heap_start+0xffffef1e>
  10:	0d0e                	slli	s10,s10,0x3
  12:	0100                	addi	s0,sp,128
  14:	0101                	addi	sp,sp,0
  16:	0001                	nop
  18:	0000                	unimp
  1a:	0001                	nop
  1c:	0100                	addi	s0,sp,128
  1e:	0101                	addi	sp,sp,0
  20:	021f 0000 0000      	.insn	6, 0x021f
  26:	002c                	addi	a1,sp,8
  28:	0000                	unimp
  2a:	0102                	c.slli64	sp
  2c:	021f 030f 0020      	.insn	6, 0x0020030f021f
  32:	0000                	unimp
  34:	2001                	jal	34 <__hidden___udivsi3+0x14>
  36:	0000                	unimp
  38:	0100                	addi	s0,sp,128
  3a:	003e                	c.slli	zero,0xf
  3c:	0000                	unimp
  3e:	0500                	addi	s0,sp,640
  40:	000c                	.insn	2, 0x000c
  42:	0205                	addi	tp,tp,1 # 1 <_start+0x1>
  44:	00cc                	addi	a1,sp,68
  46:	0000                	unimp
  48:	05010b03          	lb	s6,80(sp)
  4c:	0304                	addi	s1,sp,384
  4e:	0901                	addi	s2,s2,0
  50:	0000                	unimp
  52:	0501                	addi	a0,a0,0
  54:	0305                	addi	t1,t1,1
  56:	0901                	addi	s2,s2,0
  58:	0000                	unimp
  5a:	0501                	addi	a0,a0,0
  5c:	0302                	c.slli64	t1
  5e:	0901                	addi	s2,s2,0
  60:	0000                	unimp
  62:	0301                	addi	t1,t1,0
  64:	0901                	addi	s2,s2,0
  66:	0000                	unimp
  68:	0301                	addi	t1,t1,0
  6a:	0901                	addi	s2,s2,0
  6c:	0000                	unimp
  6e:	0301                	addi	t1,t1,0
  70:	0901                	addi	s2,s2,0
  72:	0000                	unimp
  74:	0301                	addi	t1,t1,0
  76:	0901                	addi	s2,s2,0
  78:	0000                	unimp
  7a:	0501                	addi	a0,a0,0
  7c:	0030                	addi	a2,sp,8
  7e:	0402                	c.slli64	s0
  80:	0605                	addi	a2,a2,1
  82:	00090703          	lb	a4,0(s2)
  86:	0100                	addi	s0,sp,128
  88:	0c05                	addi	s8,s8,1
  8a:	08097203          	.insn	4, 0x08097203
  8e:	0100                	addi	s0,sp,128
  90:	3805                	jal	fffff8c0 <__heap_start+0xffffe8c0>
  92:	0200                	addi	s0,sp,256
  94:	0604                	addi	s1,sp,768
  96:	02090e03          	lb	t3,32(s2)
  9a:	0100                	addi	s0,sp,128
  9c:	0305                	addi	t1,t1,1
  9e:	00097903          	.insn	4, 0x00097903
  a2:	0100                	addi	s0,sp,128
  a4:	3805                	jal	fffff8d4 <__heap_start+0xffffe8d4>
  a6:	0200                	addi	s0,sp,256
  a8:	0604                	addi	s1,sp,768
  aa:	02090703          	lb	a4,32(s2)
  ae:	0100                	addi	s0,sp,128
  b0:	0c05                	addi	s8,s8,1
  b2:	04097203          	.insn	4, 0x04097203
  b6:	0100                	addi	s0,sp,128
  b8:	0305                	addi	t1,t1,1
  ba:	0e090703          	lb	a4,224(s2)
  be:	0100                	addi	s0,sp,128
  c0:	0205                	addi	tp,tp,1 # 1 <_start+0x1>
  c2:	0306                	slli	t1,t1,0x1
  c4:	0901                	addi	s2,s2,0
  c6:	0004                	.insn	2, 0x0004
  c8:	0501                	addi	a0,a0,0
  ca:	000e                	c.slli	zero,0x3
  cc:	0402                	c.slli64	s0
  ce:	0301                	addi	t1,t1,0
  d0:	0900                	addi	s0,sp,144
  d2:	0000                	unimp
  d4:	0501                	addi	a0,a0,0
  d6:	0038                	addi	a4,sp,8
  d8:	0402                	c.slli64	s0
  da:	0606                	slli	a2,a2,0x1
  dc:	00090603          	lb	a2,0(s2)
  e0:	0100                	addi	s0,sp,128
  e2:	0905                	addi	s2,s2,1
  e4:	02097a03          	.insn	4, 0x02097a03
  e8:	0100                	addi	s0,sp,128
  ea:	0e05                	addi	t3,t3,1
  ec:	0200                	addi	s0,sp,256
  ee:	0104                	addi	s1,sp,128
  f0:	02090503          	lb	a0,32(s2)
  f4:	0100                	addi	s0,sp,128
  f6:	4005                	c.li	zero,1
  f8:	0200                	addi	s0,sp,256
  fa:	0704                	addi	s1,sp,896
  fc:	02090103          	lb	sp,32(s2)
 100:	0100                	addi	s0,sp,128
 102:	4805                	li	a6,1
 104:	0200                	addi	s0,sp,256
 106:	0804                	addi	s1,sp,16
 108:	00090003          	lb	zero,0(s2)
 10c:	0100                	addi	s0,sp,128
 10e:	0e05                	addi	t3,t3,1
 110:	0200                	addi	s0,sp,256
 112:	0104                	addi	s1,sp,128
 114:	0306                	slli	t1,t1,0x1
 116:	0000097b          	.insn	4, 0x097b
 11a:	0501                	addi	a0,a0,0
 11c:	0609                	addi	a2,a2,2
 11e:	00090003          	lb	zero,0(s2)
 122:	0100                	addi	s0,sp,128
 124:	0e05                	addi	t3,t3,1
 126:	0200                	addi	s0,sp,256
 128:	0104                	addi	s1,sp,128
 12a:	0306                	slli	t1,t1,0x1
 12c:	0901                	addi	s2,s2,0
 12e:	0002                	c.slli64	zero
 130:	0501                	addi	a0,a0,0
 132:	0609                	addi	a2,a2,2
 134:	00090003          	lb	zero,0(s2)
 138:	0100                	addi	s0,sp,128
 13a:	0e05                	addi	t3,t3,1
 13c:	0200                	addi	s0,sp,256
 13e:	0104                	addi	s1,sp,128
 140:	0306                	slli	t1,t1,0x1
 142:	0901                	addi	s2,s2,0
 144:	0002                	c.slli64	zero
 146:	0501                	addi	a0,a0,0
 148:	0609                	addi	a2,a2,2
 14a:	00090003          	lb	zero,0(s2)
 14e:	0100                	addi	s0,sp,128
 150:	0e05                	addi	t3,t3,1
 152:	0200                	addi	s0,sp,256
 154:	0104                	addi	s1,sp,128
 156:	0306                	slli	t1,t1,0x1
 158:	0901                	addi	s2,s2,0
 15a:	0002                	c.slli64	zero
 15c:	0501                	addi	a0,a0,0
 15e:	0609                	addi	a2,a2,2
 160:	00090003          	lb	zero,0(s2)
 164:	0100                	addi	s0,sp,128
 166:	0e05                	addi	t3,t3,1
 168:	0200                	addi	s0,sp,256
 16a:	0104                	addi	s1,sp,128
 16c:	0306                	slli	t1,t1,0x1
 16e:	0901                	addi	s2,s2,0
 170:	0002                	c.slli64	zero
 172:	0501                	addi	a0,a0,0
 174:	0609                	addi	a2,a2,2
 176:	00090003          	lb	zero,0(s2)
 17a:	0100                	addi	s0,sp,128
 17c:	0305                	addi	t1,t1,1
 17e:	0306                	slli	t1,t1,0x1
 180:	0901                	addi	s2,s2,0
 182:	0002                	c.slli64	zero
 184:	0501                	addi	a0,a0,0
 186:	0606                	slli	a2,a2,0x1
 188:	00090003          	lb	zero,0(s2)
 18c:	0100                	addi	s0,sp,128
 18e:	0c05                	addi	s8,s8,1
 190:	0200                	addi	s0,sp,256
 192:	0104                	addi	s1,sp,128
 194:	04090003          	lb	zero,64(s2)
 198:	0100                	addi	s0,sp,128
 19a:	1405                	addi	s0,s0,-31
 19c:	0200                	addi	s0,sp,256
 19e:	0204                	addi	s1,sp,256
 1a0:	04090003          	lb	zero,64(s2)
 1a4:	0100                	addi	s0,sp,128
 1a6:	1c05                	addi	s8,s8,-31
 1a8:	0200                	addi	s0,sp,256
 1aa:	0304                	addi	s1,sp,384
 1ac:	04090003          	lb	zero,64(s2)
 1b0:	0100                	addi	s0,sp,128
 1b2:	2405                	jal	3d2 <N+0x15e>
 1b4:	0200                	addi	s0,sp,256
 1b6:	0404                	addi	s1,sp,512
 1b8:	04090003          	lb	zero,64(s2)
 1bc:	0100                	addi	s0,sp,128
 1be:	2c05                	jal	3ee <N+0x17a>
 1c0:	0200                	addi	s0,sp,256
 1c2:	0504                	addi	s1,sp,640
 1c4:	04090003          	lb	zero,64(s2)
 1c8:	0100                	addi	s0,sp,128
 1ca:	3405                	jal	fffffbea <__heap_start+0xffffebea>
 1cc:	0200                	addi	s0,sp,256
 1ce:	0604                	addi	s1,sp,768
 1d0:	04090003          	lb	zero,64(s2)
 1d4:	0100                	addi	s0,sp,128
 1d6:	4005                	c.li	zero,1
 1d8:	0200                	addi	s0,sp,256
 1da:	0704                	addi	s1,sp,896
 1dc:	04090003          	lb	zero,64(s2)
 1e0:	0100                	addi	s0,sp,128
 1e2:	3c05                	jal	fffffc12 <__heap_start+0xffffec12>
 1e4:	0200                	addi	s0,sp,256
 1e6:	0704                	addi	s1,sp,896
 1e8:	04090003          	lb	zero,64(s2)
 1ec:	0100                	addi	s0,sp,128
 1ee:	4805                	li	a6,1
 1f0:	0200                	addi	s0,sp,256
 1f2:	0804                	addi	s1,sp,16
 1f4:	04090003          	lb	zero,64(s2)
 1f8:	0100                	addi	s0,sp,128
 1fa:	4405                	li	s0,1
 1fc:	0200                	addi	s0,sp,256
 1fe:	0804                	addi	s1,sp,16
 200:	04090003          	lb	zero,64(s2)
 204:	0100                	addi	s0,sp,128
 206:	0f05                	addi	t5,t5,1
 208:	04090103          	lb	sp,64(s2)
 20c:	0100                	addi	s0,sp,128
 20e:	1705                	addi	a4,a4,-31
 210:	0200                	addi	s0,sp,256
 212:	0104                	addi	s1,sp,128
 214:	04090003          	lb	zero,64(s2)
 218:	0100                	addi	s0,sp,128
 21a:	1f05                	addi	t5,t5,-31
 21c:	0200                	addi	s0,sp,256
 21e:	0204                	addi	s1,sp,256
 220:	04090003          	lb	zero,64(s2)
 224:	0100                	addi	s0,sp,128
 226:	2705                	jal	946 <N+0x6d2>
 228:	0200                	addi	s0,sp,256
 22a:	0304                	addi	s1,sp,384
 22c:	04090003          	lb	zero,64(s2)
 230:	0100                	addi	s0,sp,128
 232:	2f05                	jal	962 <N+0x6ee>
 234:	0200                	addi	s0,sp,256
 236:	0404                	addi	s1,sp,512
 238:	04090003          	lb	zero,64(s2)
 23c:	0100                	addi	s0,sp,128
 23e:	3705                	jal	15e <main+0x92>
 240:	0200                	addi	s0,sp,256
 242:	0504                	addi	s1,sp,640
 244:	04090003          	lb	zero,64(s2)
 248:	0100                	addi	s0,sp,128
 24a:	3f05                	jal	17a <main+0xae>
 24c:	0200                	addi	s0,sp,256
 24e:	0604                	addi	s1,sp,768
 250:	04090003          	lb	zero,64(s2)
 254:	0100                	addi	s0,sp,128
 256:	4705                	li	a4,1
 258:	0200                	addi	s0,sp,256
 25a:	0704                	addi	s1,sp,896
 25c:	04090003          	lb	zero,64(s2)
 260:	0100                	addi	s0,sp,128
 262:	0f05                	addi	t5,t5,1
 264:	04090103          	lb	sp,64(s2)
 268:	0100                	addi	s0,sp,128
 26a:	1705                	addi	a4,a4,-31
 26c:	0200                	addi	s0,sp,256
 26e:	0104                	addi	s1,sp,128
 270:	04090003          	lb	zero,64(s2)
 274:	0100                	addi	s0,sp,128
 276:	1f05                	addi	t5,t5,-31
 278:	0200                	addi	s0,sp,256
 27a:	0204                	addi	s1,sp,256
 27c:	04090003          	lb	zero,64(s2)
 280:	0100                	addi	s0,sp,128
 282:	2705                	jal	9a2 <N+0x72e>
 284:	0200                	addi	s0,sp,256
 286:	0304                	addi	s1,sp,384
 288:	04090003          	lb	zero,64(s2)
 28c:	0100                	addi	s0,sp,128
 28e:	2f05                	jal	9be <N+0x74a>
 290:	0200                	addi	s0,sp,256
 292:	0404                	addi	s1,sp,512
 294:	04090003          	lb	zero,64(s2)
 298:	0100                	addi	s0,sp,128
 29a:	3705                	jal	1ba <main+0xee>
 29c:	0200                	addi	s0,sp,256
 29e:	0504                	addi	s1,sp,640
 2a0:	04090003          	lb	zero,64(s2)
 2a4:	0100                	addi	s0,sp,128
 2a6:	3f05                	jal	1d6 <main+0x10a>
 2a8:	0200                	addi	s0,sp,256
 2aa:	0604                	addi	s1,sp,768
 2ac:	04090003          	lb	zero,64(s2)
 2b0:	0100                	addi	s0,sp,128
 2b2:	0f05                	addi	t5,t5,1
 2b4:	04090103          	lb	sp,64(s2)
 2b8:	0100                	addi	s0,sp,128
 2ba:	1705                	addi	a4,a4,-31
 2bc:	0200                	addi	s0,sp,256
 2be:	0104                	addi	s1,sp,128
 2c0:	04090003          	lb	zero,64(s2)
 2c4:	0100                	addi	s0,sp,128
 2c6:	1f05                	addi	t5,t5,-31
 2c8:	0200                	addi	s0,sp,256
 2ca:	0204                	addi	s1,sp,256
 2cc:	04090003          	lb	zero,64(s2)
 2d0:	0100                	addi	s0,sp,128
 2d2:	2705                	jal	9f2 <N+0x77e>
 2d4:	0200                	addi	s0,sp,256
 2d6:	0304                	addi	s1,sp,384
 2d8:	04090003          	lb	zero,64(s2)
 2dc:	0100                	addi	s0,sp,128
 2de:	2f05                	jal	a0e <N+0x79a>
 2e0:	0200                	addi	s0,sp,256
 2e2:	0404                	addi	s1,sp,512
 2e4:	04090003          	lb	zero,64(s2)
 2e8:	0100                	addi	s0,sp,128
 2ea:	3705                	jal	20a <main+0x13e>
 2ec:	0200                	addi	s0,sp,256
 2ee:	0504                	addi	s1,sp,640
 2f0:	04090003          	lb	zero,64(s2)
 2f4:	0100                	addi	s0,sp,128
 2f6:	0f05                	addi	t5,t5,1
 2f8:	04090103          	lb	sp,64(s2)
 2fc:	0100                	addi	s0,sp,128
 2fe:	1705                	addi	a4,a4,-31
 300:	0200                	addi	s0,sp,256
 302:	0104                	addi	s1,sp,128
 304:	04090003          	lb	zero,64(s2)
 308:	0100                	addi	s0,sp,128
 30a:	1f05                	addi	t5,t5,-31
 30c:	0200                	addi	s0,sp,256
 30e:	0204                	addi	s1,sp,256
 310:	04090003          	lb	zero,64(s2)
 314:	0100                	addi	s0,sp,128
 316:	2705                	jal	a36 <N+0x7c2>
 318:	0200                	addi	s0,sp,256
 31a:	0304                	addi	s1,sp,384
 31c:	04090003          	lb	zero,64(s2)
 320:	0100                	addi	s0,sp,128
 322:	2f05                	jal	a52 <N+0x7de>
 324:	0200                	addi	s0,sp,256
 326:	0404                	addi	s1,sp,512
 328:	04090003          	lb	zero,64(s2)
 32c:	0100                	addi	s0,sp,128
 32e:	0f05                	addi	t5,t5,1
 330:	04090103          	lb	sp,64(s2)
 334:	0100                	addi	s0,sp,128
 336:	1705                	addi	a4,a4,-31
 338:	0200                	addi	s0,sp,256
 33a:	0104                	addi	s1,sp,128
 33c:	04090003          	lb	zero,64(s2)
 340:	0100                	addi	s0,sp,128
 342:	1f05                	addi	t5,t5,-31
 344:	0200                	addi	s0,sp,256
 346:	0204                	addi	s1,sp,256
 348:	04090003          	lb	zero,64(s2)
 34c:	0100                	addi	s0,sp,128
 34e:	2705                	jal	a6e <N+0x7fa>
 350:	0200                	addi	s0,sp,256
 352:	0304                	addi	s1,sp,384
 354:	04090003          	lb	zero,64(s2)
 358:	0100                	addi	s0,sp,128
 35a:	2f05                	jal	a8a <N+0x816>
 35c:	0200                	addi	s0,sp,256
 35e:	0404                	addi	s1,sp,512
 360:	04090003          	lb	zero,64(s2)
 364:	0100                	addi	s0,sp,128
 366:	3705                	jal	286 <N+0x12>
 368:	0200                	addi	s0,sp,256
 36a:	0504                	addi	s1,sp,640
 36c:	04090003          	lb	zero,64(s2)
 370:	0100                	addi	s0,sp,128
 372:	0405                	addi	s0,s0,1
 374:	0306                	slli	t1,t1,0x1
 376:	0902                	c.slli64	s2
 378:	0004                	.insn	2, 0x0004
 37a:	0501                	addi	a0,a0,0
 37c:	0609                	addi	a2,a2,2
 37e:	00090003          	lb	zero,0(s2)
 382:	0100                	addi	s0,sp,128
 384:	1405                	addi	s0,s0,-31
 386:	0200                	addi	s0,sp,256
 388:	0204                	addi	s1,sp,256
 38a:	0306                	slli	t1,t1,0x1
 38c:	0978                	addi	a4,sp,156
 38e:	0004                	.insn	2, 0x0004
 390:	0501                	addi	a0,a0,0
 392:	000e                	c.slli	zero,0x3
 394:	0402                	c.slli64	s0
 396:	0301                	addi	t1,t1,0
 398:	0900                	addi	s0,sp,144
 39a:	0002                	c.slli64	zero
 39c:	0501                	addi	a0,a0,0
 39e:	0014                	.insn	2, 0x0014
 3a0:	0402                	c.slli64	s0
 3a2:	0302                	c.slli64	t1
 3a4:	097f 0004 0501 000e 	.insn	10, 0x0402000e05010004097f
 3ac:	0402 
 3ae:	0301                	addi	t1,t1,0
 3b0:	0900                	addi	s0,sp,144
 3b2:	0002                	c.slli64	zero
 3b4:	0501                	addi	a0,a0,0
 3b6:	0014                	.insn	2, 0x0014
 3b8:	0402                	c.slli64	s0
 3ba:	0302                	c.slli64	t1
 3bc:	097f 0004 0501 000e 	.insn	10, 0x0402000e05010004097f
 3c4:	0402 
 3c6:	0301                	addi	t1,t1,0
 3c8:	0900                	addi	s0,sp,144
 3ca:	0002                	c.slli64	zero
 3cc:	0501                	addi	a0,a0,0
 3ce:	0014                	.insn	2, 0x0014
 3d0:	0402                	c.slli64	s0
 3d2:	0302                	c.slli64	t1
 3d4:	097f 0004 0501 000e 	.insn	10, 0x0402000e05010004097f
 3dc:	0402 
 3de:	0301                	addi	t1,t1,0
 3e0:	0900                	addi	s0,sp,144
 3e2:	0002                	c.slli64	zero
 3e4:	0501                	addi	a0,a0,0
 3e6:	0014                	.insn	2, 0x0014
 3e8:	0402                	c.slli64	s0
 3ea:	0302                	c.slli64	t1
 3ec:	097f 0004 0501 000e 	.insn	10, 0x0402000e05010004097f
 3f4:	0402 
 3f6:	0301                	addi	t1,t1,0
 3f8:	0900                	addi	s0,sp,144
 3fa:	0002                	c.slli64	zero
 3fc:	0501                	addi	a0,a0,0
 3fe:	0014                	.insn	2, 0x0014
 400:	0402                	c.slli64	s0
 402:	0302                	c.slli64	t1
 404:	097f 0004 0501 000e 	.insn	10, 0x0402000e05010004097f
 40c:	0402 
 40e:	0301                	addi	t1,t1,0
 410:	0900                	addi	s0,sp,144
 412:	0002                	c.slli64	zero
 414:	0501                	addi	a0,a0,0
 416:	0302                	c.slli64	t1
 418:	0910                	addi	a2,sp,144
 41a:	0006                	c.slli	zero,0x1
 41c:	0401                	addi	s0,s0,0
 41e:	0502                	c.slli64	a0
 420:	0305                	addi	t1,t1,1
 422:	0004092f          	.insn	4, 0x0004092f
 426:	0301                	addi	t1,t1,0
 428:	0961                	addi	s2,s2,24
 42a:	0000                	unimp
 42c:	0301                	addi	t1,t1,0
 42e:	0901                	addi	s2,s2,0
 430:	0000                	unimp
 432:	0301                	addi	t1,t1,0
 434:	0901                	addi	s2,s2,0
 436:	0000                	unimp
 438:	0301                	addi	t1,t1,0
 43a:	0901                	addi	s2,s2,0
 43c:	0000                	unimp
 43e:	0501                	addi	a0,a0,0
 440:	060e                	slli	a2,a2,0x3
 442:	00097f03          	.insn	4, 0x00097f03
 446:	0100                	addi	s0,sp,128
 448:	0805                	addi	a6,a6,1
 44a:	02090103          	lb	sp,32(s2)
 44e:	0100                	addi	s0,sp,128
 450:	0905                	addi	s2,s2,1
 452:	0306                	slli	t1,t1,0x1
 454:	0901                	addi	s2,s2,0
 456:	0004                	.insn	2, 0x0004
 458:	0301                	addi	t1,t1,0
 45a:	0901                	addi	s2,s2,0
 45c:	0000                	unimp
 45e:	0501                	addi	a0,a0,0
 460:	060c                	addi	a1,sp,768
 462:	00090003          	lb	zero,0(s2)
 466:	0100                	addi	s0,sp,128
 468:	0a05                	addi	s4,s4,1
 46a:	04097f03          	.insn	4, 0x04097f03
 46e:	0100                	addi	s0,sp,128
 470:	1505                	addi	a0,a0,-31
 472:	0200                	addi	s0,sp,256
 474:	0104                	addi	s1,sp,128
 476:	08090603          	lb	a2,128(s2)
 47a:	0100                	addi	s0,sp,128
 47c:	0505                	addi	a0,a0,1
 47e:	0306                	slli	t1,t1,0x1
 480:	097d                	addi	s2,s2,31
 482:	0002                	c.slli64	zero
 484:	0501                	addi	a0,a0,0
 486:	0309                	addi	t1,t1,2
 488:	0901                	addi	s2,s2,0
 48a:	0000                	unimp
 48c:	0501                	addi	a0,a0,0
 48e:	0618                	addi	a4,sp,768
 490:	02090003          	lb	zero,32(s2)
 494:	0100                	addi	s0,sp,128
 496:	0e05                	addi	t3,t3,1
 498:	04090003          	lb	zero,64(s2)
 49c:	0100                	addi	s0,sp,128
 49e:	1805                	addi	a6,a6,-31
 4a0:	04090003          	lb	zero,64(s2)
 4a4:	0100                	addi	s0,sp,128
 4a6:	1d05                	addi	s10,s10,-31
 4a8:	02090003          	lb	zero,32(s2)
 4ac:	0100                	addi	s0,sp,128
 4ae:	1205                	addi	tp,tp,-31 # ffffffe1 <__heap_start+0xffffefe1>
 4b0:	04090003          	lb	zero,64(s2)
 4b4:	0100                	addi	s0,sp,128
 4b6:	1505                	addi	a0,a0,-31
 4b8:	0200                	addi	s0,sp,256
 4ba:	0104                	addi	s1,sp,128
 4bc:	0306                	slli	t1,t1,0x1
 4be:	0902                	c.slli64	s2
 4c0:	0008                	.insn	2, 0x0008
 4c2:	0501                	addi	a0,a0,0
 4c4:	0010                	.insn	2, 0x0010
 4c6:	0402                	c.slli64	s0
 4c8:	0601                	addi	a2,a2,0
 4ca:	00090003          	lb	zero,0(s2)
 4ce:	0100                	addi	s0,sp,128
 4d0:	1505                	addi	a0,a0,-31
 4d2:	0200                	addi	s0,sp,256
 4d4:	0104                	addi	s1,sp,128
 4d6:	08090003          	lb	zero,128(s2)
 4da:	0100                	addi	s0,sp,128
 4dc:	1005                	c.nop	-31
 4de:	0200                	addi	s0,sp,256
 4e0:	0104                	addi	s1,sp,128
 4e2:	02090003          	lb	zero,32(s2)
 4e6:	0100                	addi	s0,sp,128
 4e8:	1505                	addi	a0,a0,-31
 4ea:	0200                	addi	s0,sp,256
 4ec:	0104                	addi	s1,sp,128
 4ee:	02090003          	lb	zero,32(s2)
 4f2:	0100                	addi	s0,sp,128
 4f4:	0505                	addi	a0,a0,1
 4f6:	0306                	slli	t1,t1,0x1
 4f8:	0901                	addi	s2,s2,0
 4fa:	0004                	.insn	2, 0x0004
 4fc:	0501                	addi	a0,a0,0
 4fe:	00030607          	.insn	4, 0x00030607
 502:	0009                	c.nop	2
 504:	0100                	addi	s0,sp,128
 506:	0b05                	addi	s6,s6,1
 508:	0200                	addi	s0,sp,256
 50a:	0104                	addi	s1,sp,128
 50c:	0306                	slli	t1,t1,0x1
 50e:	0900                	addi	s0,sp,144
 510:	0004                	.insn	2, 0x0004
 512:	0501                	addi	a0,a0,0
 514:	04020013          	addi	zero,tp,64 # 40 <__hidden___udivsi3+0x20>
 518:	0601                	addi	a2,a2,0
 51a:	00090003          	lb	zero,0(s2)
 51e:	0100                	addi	s0,sp,128
 520:	0c05                	addi	s8,s8,1
 522:	0306                	slli	t1,t1,0x1
 524:	0901                	addi	s2,s2,0
 526:	0012                	c.slli	zero,0x4
 528:	0501                	addi	a0,a0,0
 52a:	062d                	addi	a2,a2,11
 52c:	02095403          	lhu	s0,32(s2)
 530:	0100                	addi	s0,sp,128
 532:	0905                	addi	s2,s2,1
 534:	0306                	slli	t1,t1,0x1
 536:	092d                	addi	s2,s2,11
 538:	0004                	.insn	2, 0x0004
 53a:	0501                	addi	a0,a0,0
 53c:	0302                	c.slli64	t1
 53e:	00040953          	.insn	4, 0x00040953
 542:	0501                	addi	a0,a0,0
 544:	060c                	addi	a1,sp,768
 546:	02092c03          	lw	s8,32(s2)
 54a:	0100                	addi	s0,sp,128
 54c:	2d05                	jal	b7c <N+0x908>
 54e:	02095403          	lhu	s0,32(s2)
 552:	0100                	addi	s0,sp,128
 554:	0c05                	addi	s8,s8,1
 556:	0306                	slli	t1,t1,0x1
 558:	092c                	addi	a1,sp,152
 55a:	0004                	.insn	2, 0x0004
 55c:	0501                	addi	a0,a0,0
 55e:	0302                	c.slli64	t1
 560:	0914                	addi	a3,sp,144
 562:	0004                	.insn	2, 0x0004
 564:	0301                	addi	t1,t1,0
 566:	0940                	addi	s0,sp,148
 568:	0000                	unimp
 56a:	0501                	addi	a0,a0,0
 56c:	062d                	addi	a2,a2,11
 56e:	00090003          	lb	zero,0(s2)
 572:	0100                	addi	s0,sp,128
 574:	0104                	addi	s1,sp,128
 576:	0205                	addi	tp,tp,1 # 1 <_start+0x1>
 578:	0306                	slli	t1,t1,0x1
 57a:	0911                	addi	s2,s2,4
 57c:	0006                	c.slli	zero,0x1
 57e:	0501                	addi	a0,a0,0
 580:	0601                	addi	a2,a2,0
 582:	00090103          	lb	sp,0(s2)
 586:	0100                	addi	s0,sp,128
 588:	1a09                	addi	s4,s4,-30
 58a:	0000                	unimp
 58c:	0101                	addi	sp,sp,0
 58e:	0000014f          	.insn	4, 0x014f
 592:	0005                	c.nop	1
 594:	0004                	.insn	2, 0x0004
 596:	002e                	c.slli	zero,0xb
 598:	0000                	unimp
 59a:	0101                	addi	sp,sp,0
 59c:	fb01                	bnez	a4,4ac <N+0x238>
 59e:	0d0e                	slli	s10,s10,0x3
 5a0:	0100                	addi	s0,sp,128
 5a2:	0101                	addi	sp,sp,0
 5a4:	0001                	nop
 5a6:	0000                	unimp
 5a8:	0001                	nop
 5aa:	0100                	addi	s0,sp,128
 5ac:	0101                	addi	sp,sp,0
 5ae:	021f 0043 0000      	.insn	6, 0x0043021f
 5b4:	00000087          	.insn	4, 0x0087
 5b8:	0102                	c.slli64	sp
 5ba:	021f 020f 00c1      	.insn	6, 0x00c1020f021f
 5c0:	0000                	unimp
 5c2:	c101                	beqz	a0,5c2 <N+0x34e>
 5c4:	0000                	unimp
 5c6:	0100                	addi	s0,sp,128
 5c8:	0500                	addi	s0,sp,640
 5ca:	1802                	slli	a6,a6,0x20
 5cc:	0000                	unimp
 5ce:	0300                	addi	s0,sp,384
 5d0:	00c4                	addi	s1,sp,68
 5d2:	0301                	addi	t1,t1,0
 5d4:	0901                	addi	s2,s2,0
 5d6:	0004                	.insn	2, 0x0004
 5d8:	0301                	addi	t1,t1,0
 5da:	0904                	addi	s1,sp,144
 5dc:	0004                	.insn	2, 0x0004
 5de:	0301                	addi	t1,t1,0
 5e0:	0901                	addi	s2,s2,0
 5e2:	0004                	.insn	2, 0x0004
 5e4:	0301                	addi	t1,t1,0
 5e6:	0901                	addi	s2,s2,0
 5e8:	0004                	.insn	2, 0x0004
 5ea:	0301                	addi	t1,t1,0
 5ec:	0901                	addi	s2,s2,0
 5ee:	0004                	.insn	2, 0x0004
 5f0:	0301                	addi	t1,t1,0
 5f2:	0901                	addi	s2,s2,0
 5f4:	0004                	.insn	2, 0x0004
 5f6:	0301                	addi	t1,t1,0
 5f8:	0901                	addi	s2,s2,0
 5fa:	0004                	.insn	2, 0x0004
 5fc:	0301                	addi	t1,t1,0
 5fe:	0902                	c.slli64	s2
 600:	0004                	.insn	2, 0x0004
 602:	0301                	addi	t1,t1,0
 604:	0901                	addi	s2,s2,0
 606:	0004                	.insn	2, 0x0004
 608:	0301                	addi	t1,t1,0
 60a:	0901                	addi	s2,s2,0
 60c:	0004                	.insn	2, 0x0004
 60e:	0301                	addi	t1,t1,0
 610:	0901                	addi	s2,s2,0
 612:	0004                	.insn	2, 0x0004
 614:	0301                	addi	t1,t1,0
 616:	0902                	c.slli64	s2
 618:	0004                	.insn	2, 0x0004
 61a:	0301                	addi	t1,t1,0
 61c:	0902                	c.slli64	s2
 61e:	0004                	.insn	2, 0x0004
 620:	0301                	addi	t1,t1,0
 622:	0901                	addi	s2,s2,0
 624:	0004                	.insn	2, 0x0004
 626:	0301                	addi	t1,t1,0
 628:	0901                	addi	s2,s2,0
 62a:	0004                	.insn	2, 0x0004
 62c:	0301                	addi	t1,t1,0
 62e:	0902                	c.slli64	s2
 630:	0004                	.insn	2, 0x0004
 632:	0301                	addi	t1,t1,0
 634:	0901                	addi	s2,s2,0
 636:	0004                	.insn	2, 0x0004
 638:	0301                	addi	t1,t1,0
 63a:	0901                	addi	s2,s2,0
 63c:	0004                	.insn	2, 0x0004
 63e:	0301                	addi	t1,t1,0
 640:	0902                	c.slli64	s2
 642:	0004                	.insn	2, 0x0004
 644:	0301                	addi	t1,t1,0
 646:	0906                	slli	s2,s2,0x1
 648:	0004                	.insn	2, 0x0004
 64a:	0301                	addi	t1,t1,0
 64c:	0901                	addi	s2,s2,0
 64e:	0004                	.insn	2, 0x0004
 650:	0301                	addi	t1,t1,0
 652:	0901                	addi	s2,s2,0
 654:	0004                	.insn	2, 0x0004
 656:	0301                	addi	t1,t1,0
 658:	0901                	addi	s2,s2,0
 65a:	0004                	.insn	2, 0x0004
 65c:	0301                	addi	t1,t1,0
 65e:	0905                	addi	s2,s2,1
 660:	0004                	.insn	2, 0x0004
 662:	0301                	addi	t1,t1,0
 664:	0902                	c.slli64	s2
 666:	0004                	.insn	2, 0x0004
 668:	0301                	addi	t1,t1,0
 66a:	0902                	c.slli64	s2
 66c:	0004                	.insn	2, 0x0004
 66e:	0301                	addi	t1,t1,0
 670:	0901                	addi	s2,s2,0
 672:	0004                	.insn	2, 0x0004
 674:	0301                	addi	t1,t1,0
 676:	0902                	c.slli64	s2
 678:	0004                	.insn	2, 0x0004
 67a:	0301                	addi	t1,t1,0
 67c:	0902                	c.slli64	s2
 67e:	0004                	.insn	2, 0x0004
 680:	0301                	addi	t1,t1,0
 682:	0901                	addi	s2,s2,0
 684:	0004                	.insn	2, 0x0004
 686:	0301                	addi	t1,t1,0
 688:	0901                	addi	s2,s2,0
 68a:	0004                	.insn	2, 0x0004
 68c:	0301                	addi	t1,t1,0
 68e:	0901                	addi	s2,s2,0
 690:	0004                	.insn	2, 0x0004
 692:	0301                	addi	t1,t1,0
 694:	0904                	addi	s1,sp,144
 696:	0004                	.insn	2, 0x0004
 698:	0301                	addi	t1,t1,0
 69a:	0901                	addi	s2,s2,0
 69c:	0004                	.insn	2, 0x0004
 69e:	0301                	addi	t1,t1,0
 6a0:	0901                	addi	s2,s2,0
 6a2:	0004                	.insn	2, 0x0004
 6a4:	0301                	addi	t1,t1,0
 6a6:	0902                	c.slli64	s2
 6a8:	0004                	.insn	2, 0x0004
 6aa:	0301                	addi	t1,t1,0
 6ac:	0901                	addi	s2,s2,0
 6ae:	0004                	.insn	2, 0x0004
 6b0:	0301                	addi	t1,t1,0
 6b2:	0901                	addi	s2,s2,0
 6b4:	0004                	.insn	2, 0x0004
 6b6:	0301                	addi	t1,t1,0
 6b8:	0902                	c.slli64	s2
 6ba:	0004                	.insn	2, 0x0004
 6bc:	0301                	addi	t1,t1,0
 6be:	0901                	addi	s2,s2,0
 6c0:	0004                	.insn	2, 0x0004
 6c2:	0301                	addi	t1,t1,0
 6c4:	0902                	c.slli64	s2
 6c6:	0004                	.insn	2, 0x0004
 6c8:	0301                	addi	t1,t1,0
 6ca:	0901                	addi	s2,s2,0
 6cc:	0004                	.insn	2, 0x0004
 6ce:	0301                	addi	t1,t1,0
 6d0:	0901                	addi	s2,s2,0
 6d2:	0004                	.insn	2, 0x0004
 6d4:	0301                	addi	t1,t1,0
 6d6:	0901                	addi	s2,s2,0
 6d8:	0004                	.insn	2, 0x0004
 6da:	0901                	addi	s2,s2,0
 6dc:	0004                	.insn	2, 0x0004
 6de:	0100                	addi	s0,sp,128
 6e0:	Address 0x6e0 is out of bounds.


Disassembly of section .debug_str:

00000000 <.debug_str>:
   0:	6e75                	lui	t3,0x1d
   2:	6e676973          	.insn	4, 0x6e676973
   6:	6465                	lui	s0,0x19
   8:	6920                	.insn	2, 0x6920
   a:	746e                	.insn	2, 0x746e
   c:	6f00                	.insn	2, 0x6f00
   e:	7475                	lui	s0,0xffffd
  10:	6c6c                	.insn	2, 0x6c6c
  12:	006e                	c.slli	zero,0x1b
  14:	6274756f          	jal	a0,47e3a <__heap_start+0x46e3a>
  18:	6400                	.insn	2, 0x6400
  1a:	7461                	lui	s0,0xffff8
  1c:	0061                	c.nop	24
  1e:	5f5f 6964 7376      	.insn	6, 0x737669645f5f
  24:	3369                	jal	fffffdae <__heap_start+0xffffedae>
  26:	6f00                	.insn	2, 0x6f00
  28:	7475                	lui	s0,0xffffd
  2a:	006c                	addi	a1,sp,12
  2c:	6e75                	lui	t3,0x1d
  2e:	6e676973          	.insn	4, 0x6e676973
  32:	6465                	lui	s0,0x19
  34:	6320                	.insn	2, 0x6320
  36:	6168                	.insn	2, 0x6168
  38:	0072                	c.slli	zero,0x1c
  3a:	616d                	addi	sp,sp,240
  3c:	6e69                	lui	t3,0x1a
  3e:	7400                	.insn	2, 0x7400
  40:	6c61746f          	jal	s0,17706 <__heap_start+0x16706>
  44:	4700                	lw	s0,8(a4)
  46:	554e                	lw	a0,240(sp)
  48:	4320                	lw	s0,64(a4)
  4a:	3731                	jal	ffffff56 <__heap_start+0xffffef56>
  4c:	3120                	.insn	2, 0x3120
  4e:	2e34                	.insn	2, 0x2e34
  50:	2e31                	jal	36c <N+0xf8>
  52:	2030                	.insn	2, 0x2030
  54:	6d2d                	lui	s10,0xb
  56:	6261                	lui	tp,0x18
  58:	3d69                	jal	fffffef2 <__heap_start+0xffffeef2>
  5a:	6c69                	lui	s8,0x1a
  5c:	3370                	.insn	2, 0x3370
  5e:	2032                	.insn	2, 0x2032
  60:	6d2d                	lui	s10,0xb
  62:	7369                	lui	t1,0xffffa
  64:	2d61                	jal	6fc <N+0x488>
  66:	63657073          	.insn	4, 0x63657073
  6a:	323d                	jal	fffff998 <__heap_start+0xffffe998>
  6c:	3130                	.insn	2, 0x3130
  6e:	3139                	jal	fffffc7c <__heap_start+0xffffec7c>
  70:	3132                	.insn	2, 0x3132
  72:	6d2d2033          	.insn	4, 0x6d2d2033
  76:	7261                	lui	tp,0xffff8
  78:	723d6863          	bltu	s10,gp,7a8 <N+0x534>
  7c:	3376                	.insn	2, 0x3376
  7e:	6932                	.insn	2, 0x6932
  80:	672d2063          	.insn	4, 0x672d2063
  84:	2d20                	.insn	2, 0x2d20
  86:	2d20324f          	.insn	4, 0x2d20324f
  8a:	3d647473          	.insn	4, 0x3d647473
  8e:	00373163          	.insn	4, 0x00373163
  92:	5f5f 6f6d 7364      	.insn	6, 0x73646f6d5f5f
  98:	3369                	jal	fffffe22 <__heap_start+0xffffee22>
  9a:	2f00                	.insn	2, 0x2f00
  9c:	7562                	.insn	2, 0x7562
  9e:	6c69                	lui	s8,0x1a
  a0:	2f64                	.insn	2, 0x2f64
  a2:	6972                	.insn	2, 0x6972
  a4:	36766373          	.insn	4, 0x36766373
  a8:	2d34                	.insn	2, 0x2d34
  aa:	6c65                	lui	s8,0x19
  ac:	2d66                	.insn	2, 0x2d66
  ae:	2f636367          	.insn	4, 0x2f636367
  b2:	2f637273          	.insn	4, 0x2f637273
  b6:	2d636367          	.insn	4, 0x2d636367
  ba:	3431                	jal	fffffac6 <__heap_start+0xffffeac6>
  bc:	312e                	.insn	2, 0x312e
  be:	302e                	.insn	2, 0x302e
  c0:	62696c2f          	.insn	4, 0x62696c2f
  c4:	2f636367          	.insn	4, 0x2f636367
  c8:	666e6f63          	bltu	t3,t1,746 <N+0x4d2>
  cc:	6769                	lui	a4,0x1a
  ce:	7369722f          	.insn	4, 0x7369722f
  d2:	642f7663          	bgeu	t5,sp,71e <N+0x4aa>
  d6:	7669                	lui	a2,0xffffa
  d8:	532e                	lw	t1,232(sp)
  da:	2f00                	.insn	2, 0x2f00
  dc:	7562                	.insn	2, 0x7562
  de:	6c69                	lui	s8,0x1a
  e0:	2f64                	.insn	2, 0x2f64
  e2:	6972                	.insn	2, 0x6972
  e4:	36766373          	.insn	4, 0x36766373
  e8:	2d34                	.insn	2, 0x2d34
  ea:	6c65                	lui	s8,0x19
  ec:	2d66                	.insn	2, 0x2d66
  ee:	2f636367          	.insn	4, 0x2f636367
  f2:	2f637273          	.insn	4, 0x2f637273
  f6:	7562                	.insn	2, 0x7562
  f8:	6c69                	lui	s8,0x1a
  fa:	2d64                	.insn	2, 0x2d64
  fc:	2f636367          	.insn	4, 0x2f636367
 100:	6972                	.insn	2, 0x6972
 102:	36766373          	.insn	4, 0x36766373
 106:	2d34                	.insn	2, 0x2d34
 108:	6c65                	lui	s8,0x19
 10a:	2f66                	.insn	2, 0x2f66
 10c:	7672                	.insn	2, 0x7672
 10e:	2f693233          	.insn	4, 0x2f693233
 112:	6c69                	lui	s8,0x1a
 114:	3370                	.insn	2, 0x3370
 116:	2f32                	.insn	2, 0x2f32
 118:	696c                	.insn	2, 0x696c
 11a:	6762                	.insn	2, 0x6762
 11c:	47006363          	bltu	zero,a6,582 <N+0x30e>
 120:	554e                	lw	a0,240(sp)
 122:	4120                	lw	s0,64(a0)
 124:	2e322053          	.insn	4, 0x2e322053
 128:	5f003933          	.insn	4, 0x5f003933
 12c:	685f 6469 6564      	.insn	6, 0x65646469685f
 132:	5f6e                	lw	t5,248(sp)
 134:	5f5f 6475 7669      	.insn	6, 0x766964755f5f
 13a:	00336973          	.insn	4, 0x00336973
 13e:	5f5f 6d75 646f      	.insn	6, 0x646f6d755f5f
 144:	00336973          	.insn	4, 0x00336973

Disassembly of section .debug_line_str:

00000000 <.debug_line_str>:
   0:	7070612f          	.insn	4, 0x7070612f
   4:	7365742f          	.insn	4, 0x7365742f
   8:	6374                	.insn	2, 0x6374
   a:	7361                	lui	t1,0xffff8
   c:	0065                	c.nop	25
   e:	7070612f          	.insn	4, 0x7070612f
  12:	7365742f          	.insn	4, 0x7365742f
  16:	6374                	.insn	2, 0x6374
  18:	7361                	lui	t1,0xffff8
  1a:	2f65                	jal	7d2 <N+0x55e>
  1c:	2f6d6973          	.insn	4, 0x2f6d6973
  20:	65707573          	.insn	4, 0x65707573
  24:	6c72                	.insn	2, 0x6c72
  26:	2e706f6f          	jal	t5,6b0c <__heap_start+0x5b0c>
  2a:	612f0063          	beq	t5,s2,62a <N+0x3b6>
  2e:	7070                	.insn	2, 0x7070
  30:	7365742f          	.insn	4, 0x7365742f
  34:	6374                	.insn	2, 0x6374
  36:	7361                	lui	t1,0xffff8
  38:	2f65                	jal	7f0 <N+0x57c>
  3a:	006d6973          	.insn	4, 0x006d6973
  3e:	6f69                	lui	t5,0x1a
  40:	682e                	.insn	2, 0x682e
  42:	2f00                	.insn	2, 0x2f00
  44:	7562                	.insn	2, 0x7562
  46:	6c69                	lui	s8,0x1a
  48:	2f64                	.insn	2, 0x2f64
  4a:	6972                	.insn	2, 0x6972
  4c:	36766373          	.insn	4, 0x36766373
  50:	2d34                	.insn	2, 0x2d34
  52:	6c65                	lui	s8,0x19
  54:	2d66                	.insn	2, 0x2d66
  56:	2f636367          	.insn	4, 0x2f636367
  5a:	2f637273          	.insn	4, 0x2f637273
  5e:	7562                	.insn	2, 0x7562
  60:	6c69                	lui	s8,0x1a
  62:	2d64                	.insn	2, 0x2d64
  64:	2f636367          	.insn	4, 0x2f636367
  68:	6972                	.insn	2, 0x6972
  6a:	36766373          	.insn	4, 0x36766373
  6e:	2d34                	.insn	2, 0x2d34
  70:	6c65                	lui	s8,0x19
  72:	2f66                	.insn	2, 0x2f66
  74:	7672                	.insn	2, 0x7672
  76:	2f693233          	.insn	4, 0x2f693233
  7a:	6c69                	lui	s8,0x1a
  7c:	3370                	.insn	2, 0x3370
  7e:	2f32                	.insn	2, 0x2f32
  80:	696c                	.insn	2, 0x696c
  82:	6762                	.insn	2, 0x6762
  84:	2f006363          	bltu	zero,a6,36a <N+0xf6>
  88:	7562                	.insn	2, 0x7562
  8a:	6c69                	lui	s8,0x1a
  8c:	2f64                	.insn	2, 0x2f64
  8e:	6972                	.insn	2, 0x6972
  90:	36766373          	.insn	4, 0x36766373
  94:	2d34                	.insn	2, 0x2d34
  96:	6c65                	lui	s8,0x19
  98:	2d66                	.insn	2, 0x2d66
  9a:	2f636367          	.insn	4, 0x2f636367
  9e:	2f637273          	.insn	4, 0x2f637273
  a2:	2d636367          	.insn	4, 0x2d636367
  a6:	3431                	jal	fffffab2 <__heap_start+0xffffeab2>
  a8:	312e                	.insn	2, 0x312e
  aa:	302e                	.insn	2, 0x302e
  ac:	62696c2f          	.insn	4, 0x62696c2f
  b0:	2f636367          	.insn	4, 0x2f636367
  b4:	666e6f63          	bltu	t3,t1,732 <N+0x4be>
  b8:	6769                	lui	a4,0x1a
  ba:	7369722f          	.insn	4, 0x7369722f
  be:	64007663          	bgeu	zero,zero,70a <N+0x496>
  c2:	7669                	lui	a2,0xffffa
  c4:	532e                	lw	t1,232(sp)
	...

Disassembly of section .debug_frame:

00000000 <.debug_frame>:
   0:	000c                	.insn	2, 0x000c
   2:	0000                	unimp
   4:	ffff                	.insn	2, 0xffff
   6:	ffff                	.insn	2, 0xffff
   8:	7c010003          	lb	zero,1984(sp)
   c:	0d01                	addi	s10,s10,0 # b000 <__heap_start+0xa000>
   e:	0002                	c.slli64	zero
  10:	0034                	addi	a3,sp,8
  12:	0000                	unimp
  14:	0000                	unimp
  16:	0000                	unimp
  18:	00cc                	addi	a1,sp,68
  1a:	0000                	unimp
  1c:	0194                	addi	a3,sp,192
  1e:	0000                	unimp
  20:	0e4a                	slli	t3,t3,0x12
  22:	5440                	lw	s0,44(s0)
  24:	0288                	addi	a0,sp,320
  26:	0181                	addi	gp,gp,0
  28:	0389                	addi	t2,t2,2
  2a:	0492                	slli	s1,s1,0x4
  2c:	06940593          	addi	a1,s0,105 # 19069 <__heap_start+0x18069>
  30:	0795                	addi	a5,a5,5
  32:	0a015e03          	lhu	t3,160(sp)
  36:	42c1                	li	t0,16
  38:	42c8                	lw	a0,4(a3)
  3a:	42c9                	li	t0,18
  3c:	42d2                	lw	t0,20(sp)
  3e:	42d442d3          	.insn	4, 0x42d442d3
  42:	44d5                	li	s1,21
  44:	000e                	c.slli	zero,0x3
  46:	0b42                	slli	s6,s6,0x10
