
/app/testcase/sim/superloop.elf:     file format elf32-littleriscv


Disassembly of section .text:

00000000 <_start>:
   0:	00020137          	lui	sp,0x20
   4:	0c8000ef          	jal	cc <main>
   8:	0ff00513          	li	a0,255
   c:	000306b7          	lui	a3,0x30
  10:	00a68223          	sb	a0,4(a3) # 30004 <__heap_start+0x2f004>
  14:	bfe5                	j	c <_start+0xc>
	...

00000018 <__divsi3>:
  18:	06054063          	bltz	a0,78 <__umodsi3+0x10>
  1c:	0605c663          	bltz	a1,88 <__umodsi3+0x20>

00000020 <__hidden___udivsi3>:
  20:	00058613          	mv	a2,a1
  24:	00050593          	mv	a1,a0
  28:	fff00513          	li	a0,-1
  2c:	02060c63          	beqz	a2,64 <__hidden___udivsi3+0x44>
  30:	00100693          	li	a3,1
  34:	00b67a63          	bgeu	a2,a1,48 <__hidden___udivsi3+0x28>
  38:	00c05863          	blez	a2,48 <__hidden___udivsi3+0x28>
  3c:	00161613          	slli	a2,a2,0x1
  40:	00169693          	slli	a3,a3,0x1
  44:	feb66ae3          	bltu	a2,a1,38 <__hidden___udivsi3+0x18>
  48:	00000513          	li	a0,0
  4c:	00c5e663          	bltu	a1,a2,58 <__hidden___udivsi3+0x38>
  50:	40c585b3          	sub	a1,a1,a2
  54:	00d56533          	or	a0,a0,a3
  58:	0016d693          	srli	a3,a3,0x1
  5c:	00165613          	srli	a2,a2,0x1
  60:	fe0696e3          	bnez	a3,4c <__hidden___udivsi3+0x2c>
  64:	00008067          	ret

00000068 <__umodsi3>:
  68:	00008293          	mv	t0,ra
  6c:	fb5ff0ef          	jal	20 <__hidden___udivsi3>
  70:	00058513          	mv	a0,a1
  74:	00028067          	jr	t0
  78:	40a00533          	neg	a0,a0
  7c:	00b04863          	bgtz	a1,8c <__umodsi3+0x24>
  80:	40b005b3          	neg	a1,a1
  84:	f9dff06f          	j	20 <__hidden___udivsi3>
  88:	40b005b3          	neg	a1,a1
  8c:	00008293          	mv	t0,ra
  90:	f91ff0ef          	jal	20 <__hidden___udivsi3>
  94:	40a00533          	neg	a0,a0
  98:	00028067          	jr	t0

0000009c <__modsi3>:
  9c:	00008293          	mv	t0,ra
  a0:	0005ca63          	bltz	a1,b4 <__modsi3+0x18>
  a4:	00054c63          	bltz	a0,bc <__modsi3+0x20>
  a8:	f79ff0ef          	jal	20 <__hidden___udivsi3>
  ac:	00058513          	mv	a0,a1
  b0:	00028067          	jr	t0
  b4:	40b005b3          	neg	a1,a1
  b8:	fe0558e3          	bgez	a0,a8 <__modsi3+0xc>
  bc:	40a00533          	neg	a0,a0
  c0:	f61ff0ef          	jal	20 <__hidden___udivsi3>
  c4:	40b00533          	neg	a0,a1
  c8:	00028067          	jr	t0

Disassembly of section .text.startup:

000000cc <main>:
  cc:	26c02883          	lw	a7,620(zero) # 26c <h>
  d0:	27002383          	lw	t2,624(zero) # 270 <total>
  d4:	7139                	addi	sp,sp,-64
  d6:	4619                	li	a2,6
  d8:	26802e03          	lw	t3,616(zero) # 268 <i>
  dc:	dc22                	sw	s0,56(sp)
  de:	de06                	sw	ra,60(sp)
  e0:	da26                	sw	s1,52(sp)
  e2:	d84a                	sw	s2,48(sp)
  e4:	d64e                	sw	s3,44(sp)
  e6:	d452                	sw	s4,40(sp)
  e8:	d256                	sw	s5,36(sp)
  ea:	26c02a23          	sw	a2,628(zero) # 274 <N>
  ee:	4401                	li	s0,0
  f0:	4785                	li	a5,1
  f2:	459d                	li	a1,7
  f4:	4685                	li	a3,1
  f6:	4505                	li	a0,1
  f8:	4805                	li	a6,1
  fa:	4605                	li	a2,1
  fc:	4705                	li	a4,1
  fe:	0ad78863          	beq	a5,a3,1ae <main+0xe2>
 102:	0aa78663          	beq	a5,a0,1ae <main+0xe2>
 106:	0b078463          	beq	a5,a6,1ae <main+0xe2>
 10a:	0ac78263          	beq	a5,a2,1ae <main+0xe2>
 10e:	0ae78063          	beq	a5,a4,1ae <main+0xe2>
 112:	08f88e63          	beq	a7,a5,1ae <main+0xe2>
 116:	08fe0c63          	beq	t3,a5,1ae <main+0xe2>
 11a:	26402303          	lw	t1,612(zero) # 264 <j>
 11e:	08f30863          	beq	t1,a5,1ae <main+0xe2>
 122:	26002e83          	lw	t4,608(zero) # 260 <__bss_start>
 126:	08fe8463          	beq	t4,a5,1ae <main+0xe2>
 12a:	08a68263          	beq	a3,a0,1ae <main+0xe2>
 12e:	09068063          	beq	a3,a6,1ae <main+0xe2>
 132:	06c68e63          	beq	a3,a2,1ae <main+0xe2>
 136:	06e68c63          	beq	a3,a4,1ae <main+0xe2>
 13a:	06d88a63          	beq	a7,a3,1ae <main+0xe2>
 13e:	06de0863          	beq	t3,a3,1ae <main+0xe2>
 142:	06d30663          	beq	t1,a3,1ae <main+0xe2>
 146:	06de8463          	beq	t4,a3,1ae <main+0xe2>
 14a:	07050263          	beq	a0,a6,1ae <main+0xe2>
 14e:	06c50063          	beq	a0,a2,1ae <main+0xe2>
 152:	04e50e63          	beq	a0,a4,1ae <main+0xe2>
 156:	04a88c63          	beq	a7,a0,1ae <main+0xe2>
 15a:	04ae0a63          	beq	t3,a0,1ae <main+0xe2>
 15e:	04a30863          	beq	t1,a0,1ae <main+0xe2>
 162:	04ae8663          	beq	t4,a0,1ae <main+0xe2>
 166:	04c80463          	beq	a6,a2,1ae <main+0xe2>
 16a:	04e80263          	beq	a6,a4,1ae <main+0xe2>
 16e:	05088063          	beq	a7,a6,1ae <main+0xe2>
 172:	030e0e63          	beq	t3,a6,1ae <main+0xe2>
 176:	03030c63          	beq	t1,a6,1ae <main+0xe2>
 17a:	030e8a63          	beq	t4,a6,1ae <main+0xe2>
 17e:	02e60863          	beq	a2,a4,1ae <main+0xe2>
 182:	02c88663          	beq	a7,a2,1ae <main+0xe2>
 186:	02ce0463          	beq	t3,a2,1ae <main+0xe2>
 18a:	02c30263          	beq	t1,a2,1ae <main+0xe2>
 18e:	02ce8063          	beq	t4,a2,1ae <main+0xe2>
 192:	00e88e63          	beq	a7,a4,1ae <main+0xe2>
 196:	00ee0c63          	beq	t3,a4,1ae <main+0xe2>
 19a:	00e30a63          	beq	t1,a4,1ae <main+0xe2>
 19e:	00ee8863          	beq	t4,a4,1ae <main+0xe2>
 1a2:	006e0663          	beq	t3,t1,1ae <main+0xe2>
 1a6:	01d88463          	beq	a7,t4,1ae <main+0xe2>
 1aa:	0385                	addi	t2,t2,1
 1ac:	4405                	li	s0,1
 1ae:	0705                	addi	a4,a4,1
 1b0:	f4b717e3          	bne	a4,a1,fe <main+0x32>
 1b4:	0605                	addi	a2,a2,1
 1b6:	f4e613e3          	bne	a2,a4,fc <main+0x30>
 1ba:	0805                	addi	a6,a6,1
 1bc:	f2c81fe3          	bne	a6,a2,fa <main+0x2e>
 1c0:	0505                	addi	a0,a0,1
 1c2:	f3051be3          	bne	a0,a6,f8 <main+0x2c>
 1c6:	0685                	addi	a3,a3,1
 1c8:	f2a697e3          	bne	a3,a0,f6 <main+0x2a>
 1cc:	0785                	addi	a5,a5,1
 1ce:	f2d793e3          	bne	a5,a3,f4 <main+0x28>
 1d2:	e441                	bnez	s0,25a <main+0x18e>
 1d4:	27002403          	lw	s0,624(zero) # 270 <total>
 1d8:	4981                	li	s3,0
 1da:	00045563          	bgez	s0,1e4 <main+0x118>
 1de:	40800433          	neg	s0,s0
 1e2:	4985                	li	s3,1
 1e4:	4481                	li	s1,0
 1e6:	01410913          	addi	s2,sp,20 # 20014 <__heap_start+0x1f014>
 1ea:	4a25                	li	s4,9
 1ec:	87a6                	mv	a5,s1
 1ee:	45a9                	li	a1,10
 1f0:	8522                	mv	a0,s0
 1f2:	c63e                	sw	a5,12(sp)
 1f4:	0485                	addi	s1,s1,1
 1f6:	355d                	jal	9c <__modsi3>
 1f8:	03050713          	addi	a4,a0,48
 1fc:	00990ab3          	add	s5,s2,s1
 200:	feea8fa3          	sb	a4,-1(s5)
 204:	8522                	mv	a0,s0
 206:	45a9                	li	a1,10
 208:	3d01                	jal	18 <__divsi3>
 20a:	8aa2                	mv	s5,s0
 20c:	47b2                	lw	a5,12(sp)
 20e:	842a                	mv	s0,a0
 210:	fd5a4ee3          	blt	s4,s5,1ec <main+0x120>
 214:	00098b63          	beqz	s3,22a <main+0x15e>
 218:	01048793          	addi	a5,s1,16
 21c:	0818                	addi	a4,sp,16
 21e:	973e                	add	a4,a4,a5
 220:	02d00693          	li	a3,45
 224:	87a6                	mv	a5,s1
 226:	fed70a23          	sb	a3,-12(a4)
 22a:	97ca                	add	a5,a5,s2
 22c:	00030737          	lui	a4,0x30
 230:	0007c603          	lbu	a2,0(a5)
 234:	86be                	mv	a3,a5
 236:	17fd                	addi	a5,a5,-1
 238:	00c70023          	sb	a2,0(a4) # 30000 <__heap_start+0x2f000>
 23c:	fed91ae3          	bne	s2,a3,230 <main+0x164>
 240:	47a9                	li	a5,10
 242:	00f70023          	sb	a5,0(a4)
 246:	50f2                	lw	ra,60(sp)
 248:	5462                	lw	s0,56(sp)
 24a:	54d2                	lw	s1,52(sp)
 24c:	5942                	lw	s2,48(sp)
 24e:	59b2                	lw	s3,44(sp)
 250:	5a22                	lw	s4,40(sp)
 252:	5a92                	lw	s5,36(sp)
 254:	4501                	li	a0,0
 256:	6121                	addi	sp,sp,64
 258:	8082                	ret
 25a:	26702823          	sw	t2,624(zero) # 270 <total>
 25e:	bf9d                	j	1d4 <main+0x108>
