
/app/testcase/sim/uartboom.elf:     file format elf32-littleriscv


Disassembly of section .text:

00000000 <_start>:
   0:	00020137          	lui	sp,0x20
   4:	012000ef          	jal	16 <main>
   8:	0ff00513          	li	a0,255
   c:	000306b7          	lui	a3,0x30
  10:	00a68223          	sb	a0,4(a3) # 30004 <__heap_start+0x2f004>
  14:	bfe5                	j	c <_start+0xc>

Disassembly of section .text.startup:

00000016 <main>:
  16:	1141                	addi	sp,sp,-16 # 1fff0 <__heap_start+0x1eff0>
  18:	c622                	sw	s0,12(sp)
  1a:	c426                	sw	s1,8(sp)
  1c:	c24a                	sw	s2,4(sp)
  1e:	1ff00713          	li	a4,511
  22:	000307b7          	lui	a5,0x30
  26:	06100913          	li	s2,97
  2a:	06200493          	li	s1,98
  2e:	06300413          	li	s0,99
  32:	06400393          	li	t2,100
  36:	06500293          	li	t0,101
  3a:	06600f93          	li	t6,102
  3e:	06700f13          	li	t5,103
  42:	06800e93          	li	t4,104
  46:	06900e13          	li	t3,105
  4a:	06a00313          	li	t1,106
  4e:	06b00893          	li	a7,107
  52:	06c00813          	li	a6,108
  56:	06d00513          	li	a0,109
  5a:	06e00593          	li	a1,110
  5e:	06f00613          	li	a2,111
  62:	07000693          	li	a3,112
  66:	01278023          	sb	s2,0(a5) # 30000 <__heap_start+0x2f000>
  6a:	00978023          	sb	s1,0(a5)
  6e:	00878023          	sb	s0,0(a5)
  72:	00778023          	sb	t2,0(a5)
  76:	00578023          	sb	t0,0(a5)
  7a:	01f78023          	sb	t6,0(a5)
  7e:	01e78023          	sb	t5,0(a5)
  82:	01d78023          	sb	t4,0(a5)
  86:	01c78023          	sb	t3,0(a5)
  8a:	00678023          	sb	t1,0(a5)
  8e:	01178023          	sb	a7,0(a5)
  92:	01078023          	sb	a6,0(a5)
  96:	00a78023          	sb	a0,0(a5)
  9a:	00b78023          	sb	a1,0(a5)
  9e:	00c78023          	sb	a2,0(a5)
  a2:	00d78023          	sb	a3,0(a5)
  a6:	177d                	addi	a4,a4,-1
  a8:	ff5d                	bnez	a4,66 <main+0x50>
  aa:	4432                	lw	s0,12(sp)
  ac:	44a2                	lw	s1,8(sp)
  ae:	4912                	lw	s2,4(sp)
  b0:	4501                	li	a0,0
  b2:	0141                	addi	sp,sp,16
  b4:	8082                	ret

Disassembly of section .riscv.attributes:

00000000 <.riscv.attributes>:
   0:	2041                	jal	80 <main+0x6a>
   2:	0000                	unimp
   4:	7200                	.insn	2, 0x7200
   6:	7369                	lui	t1,0xffffa
   8:	01007663          	bgeu	zero,a6,14 <_start+0x14>
   c:	0016                	c.slli	zero,0x5
   e:	0000                	unimp
  10:	1004                	addi	s1,sp,32
  12:	7205                	lui	tp,0xfffe1
  14:	3376                	.insn	2, 0x3376
  16:	6932                	.insn	2, 0x6932
  18:	7032                	.insn	2, 0x7032
  1a:	5f31                	li	t5,-20
  1c:	30703263          	.insn	4, 0x30703263
	...

Disassembly of section .comment:

00000000 <.comment>:
   0:	3a434347          	.insn	4, 0x3a434347
   4:	2820                	.insn	2, 0x2820
   6:	7241                	lui	tp,0xffff0
   8:	4c206863          	bltu	zero,sp,4d8 <__bss_end+0x422>
   c:	6e69                	lui	t3,0x1a
   e:	7875                	lui	a6,0xffffd
  10:	5220                	lw	s0,96(a2)
  12:	7065                	c.lui	zero,0xffff9
  14:	7469736f          	jal	t1,9775a <__heap_start+0x9675a>
  18:	6569726f          	jal	tp,9766e <__heap_start+0x9666e>
  1c:	31202973          	.insn	4, 0x31202973
  20:	2e34                	.insn	2, 0x2e34
  22:	2e31                	jal	33e <__bss_end+0x288>
  24:	0030                	addi	a2,sp,8

Disassembly of section .debug_info:

00000000 <.debug_info>:
   0:	00000237          	lui	tp,0x0
   4:	0005                	c.nop	1
   6:	0401                	addi	s0,s0,0
   8:	0000                	unimp
   a:	0000                	unimp
   c:	00000003          	lb	zero,0(zero) # 0 <_start>
  10:	1d00                	addi	s0,sp,688
  12:	000e                	c.slli	zero,0x3
  14:	0000                	unimp
  16:	0000                	unimp
  18:	0000                	unimp
  1a:	013c                	addi	a5,sp,136
	...
  24:	0000                	unimp
  26:	6504                	.insn	2, 0x6504
  28:	0000                	unimp
  2a:	0100                	addi	s0,sp,128
  2c:	020d0503          	lb	a0,32(s10)
  30:	0000                	unimp
  32:	0016                	c.slli	zero,0x5
  34:	0000                	unimp
  36:	00a0                	addi	s0,sp,72
  38:	0000                	unimp
  3a:	9c01                	.insn	2, 0x9c01
  3c:	020d                	addi	tp,tp,3 # 3 <_start+0x3>
  3e:	0000                	unimp
  40:	6905                	lui	s2,0x1
  42:	0100                	addi	s0,sp,128
  44:	0604                	addi	s1,sp,768
  46:	020d                	addi	tp,tp,3 # 3 <_start+0x3>
  48:	0000                	unimp
  4a:	000c                	.insn	2, 0x000c
  4c:	0000                	unimp
  4e:	1402                	slli	s0,s0,0x20
  50:	0002                	c.slli64	zero
  52:	2200                	.insn	2, 0x2200
  54:	0000                	unimp
  56:	0c00                	addi	s0,sp,528
  58:	0000                	unimp
  5a:	0600                	addi	s0,sp,768
  5c:	006a                	c.slli	zero,0x1a
  5e:	0000                	unimp
  60:	2101                	jal	460 <__bss_end+0x3aa>
  62:	0002                	c.slli64	zero
  64:	1900                	addi	s0,sp,176
  66:	0000                	unimp
  68:	0000                	unimp
  6a:	1402                	slli	s0,s0,0x20
  6c:	0002                	c.slli64	zero
  6e:	2a00                	.insn	2, 0x2a00
  70:	0000                	unimp
  72:	1f00                	addi	s0,sp,944
  74:	0000                	unimp
  76:	0700                	addi	s0,sp,896
  78:	0086                	slli	ra,ra,0x1
  7a:	0000                	unimp
  7c:	2101                	jal	47c <__bss_end+0x3c6>
  7e:	0002                	c.slli64	zero
  80:	2700                	.insn	2, 0x2700
  82:	0000                	unimp
  84:	0000                	unimp
  86:	1402                	slli	s0,s0,0x20
  88:	0002                	c.slli64	zero
  8a:	2e00                	.insn	2, 0x2e00
  8c:	0000                	unimp
  8e:	3200                	.insn	2, 0x3200
  90:	0000                	unimp
  92:	0800                	addi	s0,sp,16
  94:	00a2                	slli	ra,ra,0x8
  96:	0000                	unimp
  98:	2101                	jal	498 <__bss_end+0x3e2>
  9a:	0002                	c.slli64	zero
  9c:	3500                	.insn	2, 0x3500
  9e:	0000                	unimp
  a0:	0000                	unimp
  a2:	1402                	slli	s0,s0,0x20
  a4:	0002                	c.slli64	zero
  a6:	3200                	.insn	2, 0x3200
  a8:	0000                	unimp
  aa:	4500                	lw	s0,8(a0)
  ac:	0000                	unimp
  ae:	0900                	addi	s0,sp,144
  b0:	00be                	slli	ra,ra,0xf
  b2:	0000                	unimp
  b4:	2101                	jal	4b4 <__bss_end+0x3fe>
  b6:	0002                	c.slli64	zero
  b8:	4300                	lw	s0,0(a4)
  ba:	0000                	unimp
  bc:	0000                	unimp
  be:	1402                	slli	s0,s0,0x20
  c0:	0002                	c.slli64	zero
  c2:	3600                	.insn	2, 0x3600
  c4:	0000                	unimp
  c6:	5800                	lw	s0,48(s0)
  c8:	0000                	unimp
  ca:	0a00                	addi	s0,sp,272
  cc:	00da                	slli	ra,ra,0x16
  ce:	0000                	unimp
  d0:	2101                	jal	4d0 <__bss_end+0x41a>
  d2:	0002                	c.slli64	zero
  d4:	5100                	lw	s0,32(a0)
  d6:	0000                	unimp
  d8:	0000                	unimp
  da:	1402                	slli	s0,s0,0x20
  dc:	0002                	c.slli64	zero
  de:	3a00                	.insn	2, 0x3a00
  e0:	0000                	unimp
  e2:	6b00                	.insn	2, 0x6b00
  e4:	0000                	unimp
  e6:	0b00                	addi	s0,sp,400
  e8:	00f6                	slli	ra,ra,0x1d
  ea:	0000                	unimp
  ec:	2101                	jal	4ec <__bss_end+0x436>
  ee:	0002                	c.slli64	zero
  f0:	5f00                	lw	s0,56(a4)
  f2:	0000                	unimp
  f4:	0000                	unimp
  f6:	1402                	slli	s0,s0,0x20
  f8:	0002                	c.slli64	zero
  fa:	3e00                	.insn	2, 0x3e00
  fc:	0000                	unimp
  fe:	7e00                	.insn	2, 0x7e00
 100:	0000                	unimp
 102:	0c00                	addi	s0,sp,528
 104:	0112                	slli	sp,sp,0x4
 106:	0000                	unimp
 108:	2101                	jal	508 <__bss_end+0x452>
 10a:	0002                	c.slli64	zero
 10c:	6d00                	.insn	2, 0x6d00
 10e:	0000                	unimp
 110:	0000                	unimp
 112:	1402                	slli	s0,s0,0x20
 114:	0002                	c.slli64	zero
 116:	4200                	lw	s0,0(a2)
 118:	0000                	unimp
 11a:	9100                	.insn	2, 0x9100
 11c:	0000                	unimp
 11e:	0d00                	addi	s0,sp,656
 120:	012e                	slli	sp,sp,0xb
 122:	0000                	unimp
 124:	2101                	jal	524 <__bss_end+0x46e>
 126:	0002                	c.slli64	zero
 128:	7b00                	.insn	2, 0x7b00
 12a:	0000                	unimp
 12c:	0000                	unimp
 12e:	1402                	slli	s0,s0,0x20
 130:	0002                	c.slli64	zero
 132:	4600                	lw	s0,8(a2)
 134:	0000                	unimp
 136:	a400                	.insn	2, 0xa400
 138:	0000                	unimp
 13a:	0e00                	addi	s0,sp,784
 13c:	014a                	slli	sp,sp,0x12
 13e:	0000                	unimp
 140:	2101                	jal	540 <__bss_end+0x48a>
 142:	0002                	c.slli64	zero
 144:	8900                	.insn	2, 0x8900
 146:	0000                	unimp
 148:	0000                	unimp
 14a:	1402                	slli	s0,s0,0x20
 14c:	0002                	c.slli64	zero
 14e:	4a00                	lw	s0,16(a2)
 150:	0000                	unimp
 152:	b700                	.insn	2, 0xb700
 154:	0000                	unimp
 156:	0f00                	addi	s0,sp,912
 158:	0166                	slli	sp,sp,0x19
 15a:	0000                	unimp
 15c:	2101                	jal	55c <__bss_end+0x4a6>
 15e:	0002                	c.slli64	zero
 160:	9700                	.insn	2, 0x9700
 162:	0000                	unimp
 164:	0000                	unimp
 166:	1402                	slli	s0,s0,0x20
 168:	0002                	c.slli64	zero
 16a:	4e00                	lw	s0,24(a2)
 16c:	0000                	unimp
 16e:	ca00                	sw	s0,16(a2)
 170:	0000                	unimp
 172:	1000                	addi	s0,sp,32
 174:	0182                	c.slli64	gp
 176:	0000                	unimp
 178:	2101                	jal	578 <__bss_end+0x4c2>
 17a:	0002                	c.slli64	zero
 17c:	a500                	.insn	2, 0xa500
 17e:	0000                	unimp
 180:	0000                	unimp
 182:	1402                	slli	s0,s0,0x20
 184:	0002                	c.slli64	zero
 186:	5200                	lw	s0,32(a2)
 188:	0000                	unimp
 18a:	dd00                	sw	s0,56(a0)
 18c:	0000                	unimp
 18e:	1100                	addi	s0,sp,160
 190:	019e                	slli	gp,gp,0x7
 192:	0000                	unimp
 194:	2101                	jal	594 <__bss_end+0x4de>
 196:	0002                	c.slli64	zero
 198:	b300                	.insn	2, 0xb300
 19a:	0000                	unimp
 19c:	0000                	unimp
 19e:	1402                	slli	s0,s0,0x20
 1a0:	0002                	c.slli64	zero
 1a2:	5600                	lw	s0,40(a2)
 1a4:	0000                	unimp
 1a6:	f000                	.insn	2, 0xf000
 1a8:	0000                	unimp
 1aa:	1200                	addi	s0,sp,288
 1ac:	01ba                	slli	gp,gp,0xe
 1ae:	0000                	unimp
 1b0:	2101                	jal	5b0 <__bss_end+0x4fa>
 1b2:	0002                	c.slli64	zero
 1b4:	c100                	sw	s0,0(a0)
 1b6:	0000                	unimp
 1b8:	0000                	unimp
 1ba:	1402                	slli	s0,s0,0x20
 1bc:	0002                	c.slli64	zero
 1be:	5a00                	lw	s0,48(a2)
 1c0:	0000                	unimp
 1c2:	0300                	addi	s0,sp,384
 1c4:	0001                	nop
 1c6:	1300                	addi	s0,sp,416
 1c8:	01d6                	slli	gp,gp,0x15
 1ca:	0000                	unimp
 1cc:	2101                	jal	5cc <__bss_end+0x516>
 1ce:	0002                	c.slli64	zero
 1d0:	cf00                	sw	s0,24(a4)
 1d2:	0000                	unimp
 1d4:	0000                	unimp
 1d6:	1402                	slli	s0,s0,0x20
 1d8:	0002                	c.slli64	zero
 1da:	5e00                	lw	s0,56(a2)
 1dc:	0000                	unimp
 1de:	1600                	addi	s0,sp,800
 1e0:	0001                	nop
 1e2:	1400                	addi	s0,sp,544
 1e4:	01f2                	slli	gp,gp,0x1c
 1e6:	0000                	unimp
 1e8:	2101                	jal	5e8 <__bss_end+0x532>
 1ea:	0002                	c.slli64	zero
 1ec:	dd00                	sw	s0,56(a0)
 1ee:	0000                	unimp
 1f0:	0000                	unimp
 1f2:	1406                	slli	s0,s0,0x21
 1f4:	0002                	c.slli64	zero
 1f6:	6200                	.insn	2, 0x6200
 1f8:	0000                	unimp
 1fa:	2900                	.insn	2, 0x2900
 1fc:	0001                	nop
 1fe:	0100                	addi	s0,sp,128
 200:	0315                	addi	t1,t1,5 # ffffa005 <__heap_start+0xffff9005>
 202:	2101                	jal	602 <__bss_end+0x54c>
 204:	0002                	c.slli64	zero
 206:	eb00                	.insn	2, 0xeb00
 208:	0000                	unimp
 20a:	0000                	unimp
 20c:	0700                	addi	s0,sp,896
 20e:	0504                	addi	s1,sp,640
 210:	6e69                	lui	t3,0x1a
 212:	0074                	addi	a3,sp,12
 214:	4d08                	lw	a0,24(a0)
 216:	0000                	unimp
 218:	0200                	addi	s0,sp,256
 21a:	1412                	slli	s0,s0,0x24
 21c:	00022e03          	lw	t3,0(tp) # 0 <_start>
 220:	0900                	addi	s0,sp,144
 222:	0052                	c.slli	zero,0x14
 224:	0000                	unimp
 226:	1202                	slli	tp,tp,0x20
 228:	352d                	jal	52 <main+0x3c>
 22a:	0002                	c.slli64	zero
 22c:	0000                	unimp
 22e:	010a                	slli	sp,sp,0x2
 230:	5708                	lw	a0,40(a4)
 232:	0000                	unimp
 234:	0b00                	addi	s0,sp,400
 236:	022e                	slli	tp,tp,0xb
 238:	0000                	unimp
	...

Disassembly of section .debug_abbrev:

00000000 <.debug_abbrev>:
   0:	0501                	addi	a0,a0,0
   2:	3100                	.insn	2, 0x3100
   4:	00170213          	addi	tp,a4,1
   8:	0200                	addi	s0,sp,256
   a:	011d                	addi	sp,sp,7
   c:	1331                	addi	t1,t1,-20
   e:	0152                	slli	sp,sp,0x14
  10:	1755                	addi	a4,a4,-11
  12:	2158                	.insn	2, 0x2158
  14:	5901                	li	s2,-32
  16:	0321570b          	.insn	4, 0x0321570b
  1a:	1301                	addi	t1,t1,-32
  1c:	0000                	unimp
  1e:	25011103          	lh	sp,592(sp)
  22:	130e                	slli	t1,t1,0x23
  24:	1b1f030b          	.insn	4, 0x1b1f030b
  28:	551f 1117 1001      	.insn	6, 0x10011117551f
  2e:	04000017          	auipc	zero,0x4000
  32:	012e                	slli	sp,sp,0xb
  34:	0e03193f 0b3b0b3a 	.insn	8, 0x0b3b0b3a0e03193f
  3c:	0b39                	addi	s6,s6,14
  3e:	1349                	addi	t1,t1,-14
  40:	0111                	addi	sp,sp,4
  42:	0612                	slli	a2,a2,0x4
  44:	1840                	addi	s0,sp,52
  46:	197a                	slli	s2,s2,0x3e
  48:	1301                	addi	t1,t1,-32
  4a:	0000                	unimp
  4c:	3405                	jal	fffffa6c <__heap_start+0xffffea6c>
  4e:	0300                	addi	s0,sp,384
  50:	3a08                	.insn	2, 0x3a08
  52:	390b3b0b          	.insn	4, 0x390b3b0b
  56:	0213490b          	.insn	4, 0x0213490b
  5a:	06000017          	auipc	zero,0x6000
  5e:	011d                	addi	sp,sp,7
  60:	1331                	addi	t1,t1,-20
  62:	0152                	slli	sp,sp,0x14
  64:	1755                	addi	a4,a4,-11
  66:	0b58                	addi	a4,sp,404
  68:	0b59                	addi	s6,s6,22
  6a:	00000b57          	.insn	4, 0x0b57
  6e:	0b002407          	.insn	4, 0x0b002407
  72:	030b3e0b          	.insn	4, 0x030b3e0b
  76:	0008                	.insn	2, 0x0008
  78:	0800                	addi	s0,sp,16
  7a:	012e                	slli	sp,sp,0xb
  7c:	0b3a0e03          	lb	t3,179(s4)
  80:	0b390b3b          	.insn	4, 0x0b390b3b
  84:	0b201927          	.insn	4, 0x0b201927
  88:	1301                	addi	t1,t1,-32
  8a:	0000                	unimp
  8c:	0509                	addi	a0,a0,2
  8e:	0300                	addi	s0,sp,384
  90:	3a0e                	.insn	2, 0x3a0e
  92:	390b3b0b          	.insn	4, 0x390b3b0b
  96:	0013490b          	.insn	4, 0x0013490b
  9a:	0a00                	addi	s0,sp,272
  9c:	0024                	addi	s1,sp,8
  9e:	0b3e0b0b          	.insn	4, 0x0b3e0b0b
  a2:	00000e03          	lb	t3,0(zero) # 0 <_start>
  a6:	4900260b          	.insn	4, 0x4900260b
  aa:	00000013          	nop

Disassembly of section .debug_loclists:

00000000 <.debug_loclists>:
   0:	00f5                	addi	ra,ra,29
   2:	0000                	unimp
   4:	0005                	c.nop	1
   6:	0004                	.insn	2, 0x0004
   8:	0000                	unimp
   a:	0000                	unimp
   c:	00001607          	.insn	4, 0x1607
  10:	6600                	.insn	2, 0x6600
  12:	0000                	unimp
  14:	0200                	addi	s0,sp,256
  16:	9f30                	.insn	2, 0x9f30
  18:	0700                	addi	s0,sp,896
  1a:	0066                	c.slli	zero,0x19
  1c:	0000                	unimp
  1e:	006a                	c.slli	zero,0x1a
  20:	0000                	unimp
  22:	9f610803          	lb	a6,-1546(sp)
  26:	0700                	addi	s0,sp,896
  28:	006a                	c.slli	zero,0x1a
  2a:	0000                	unimp
  2c:	006e                	c.slli	zero,0x1b
  2e:	0000                	unimp
  30:	9f620803          	lb	a6,-1546(tp) # fffff9f6 <__heap_start+0xffffe9f6>
  34:	0700                	addi	s0,sp,896
  36:	006e                	c.slli	zero,0x1b
  38:	0000                	unimp
  3a:	0072                	c.slli	zero,0x1c
  3c:	0000                	unimp
  3e:	9f630803          	lb	a6,-1546(t1)
  42:	0700                	addi	s0,sp,896
  44:	0072                	c.slli	zero,0x1c
  46:	0000                	unimp
  48:	0076                	c.slli	zero,0x1d
  4a:	0000                	unimp
  4c:	9f640803          	lb	a6,-1546(s0)
  50:	0700                	addi	s0,sp,896
  52:	0076                	c.slli	zero,0x1d
  54:	0000                	unimp
  56:	007a                	c.slli	zero,0x1e
  58:	0000                	unimp
  5a:	9f650803          	lb	a6,-1546(a0)
  5e:	0700                	addi	s0,sp,896
  60:	007a                	c.slli	zero,0x1e
  62:	0000                	unimp
  64:	007e                	c.slli	zero,0x1f
  66:	0000                	unimp
  68:	9f660803          	lb	a6,-1546(a2)
  6c:	0700                	addi	s0,sp,896
  6e:	007e                	c.slli	zero,0x1f
  70:	0000                	unimp
  72:	0082                	c.slli64	ra
  74:	0000                	unimp
  76:	9f670803          	lb	a6,-1546(a4)
  7a:	0700                	addi	s0,sp,896
  7c:	0082                	c.slli64	ra
  7e:	0000                	unimp
  80:	0086                	slli	ra,ra,0x1
  82:	0000                	unimp
  84:	9f680803          	lb	a6,-1546(a6) # ffffc9f6 <__heap_start+0xffffb9f6>
  88:	0700                	addi	s0,sp,896
  8a:	0086                	slli	ra,ra,0x1
  8c:	0000                	unimp
  8e:	008a                	slli	ra,ra,0x2
  90:	0000                	unimp
  92:	9f690803          	lb	a6,-1546(s2) # 9f6 <__bss_end+0x940>
  96:	0700                	addi	s0,sp,896
  98:	008a                	slli	ra,ra,0x2
  9a:	0000                	unimp
  9c:	008e                	slli	ra,ra,0x3
  9e:	0000                	unimp
  a0:	9f6a0803          	lb	a6,-1546(s4)
  a4:	0700                	addi	s0,sp,896
  a6:	008e                	slli	ra,ra,0x3
  a8:	0000                	unimp
  aa:	0092                	slli	ra,ra,0x4
  ac:	0000                	unimp
  ae:	9f6b0803          	lb	a6,-1546(s6)
  b2:	0700                	addi	s0,sp,896
  b4:	0092                	slli	ra,ra,0x4
  b6:	0000                	unimp
  b8:	0096                	slli	ra,ra,0x5
  ba:	0000                	unimp
  bc:	9f6c0803          	lb	a6,-1546(s8)
  c0:	0700                	addi	s0,sp,896
  c2:	0096                	slli	ra,ra,0x5
  c4:	0000                	unimp
  c6:	009a                	slli	ra,ra,0x6
  c8:	0000                	unimp
  ca:	9f6d0803          	lb	a6,-1546(s10)
  ce:	0700                	addi	s0,sp,896
  d0:	009a                	slli	ra,ra,0x6
  d2:	0000                	unimp
  d4:	009e                	slli	ra,ra,0x7
  d6:	0000                	unimp
  d8:	9f6e0803          	lb	a6,-1546(t3) # 199f6 <__heap_start+0x189f6>
  dc:	0700                	addi	s0,sp,896
  de:	009e                	slli	ra,ra,0x7
  e0:	0000                	unimp
  e2:	00a2                	slli	ra,ra,0x8
  e4:	0000                	unimp
  e6:	9f6f0803          	lb	a6,-1546(t5)
  ea:	0700                	addi	s0,sp,896
  ec:	00a2                	slli	ra,ra,0x8
  ee:	0000                	unimp
  f0:	00a6                	slli	ra,ra,0x9
  f2:	0000                	unimp
  f4:	9f700803          	lb	a6,-1545(zero) # fffff9f7 <__heap_start+0xffffe9f7>
	...

Disassembly of section .debug_aranges:

00000000 <.debug_aranges>:
   0:	001c                	.insn	2, 0x001c
   2:	0000                	unimp
   4:	0002                	c.slli64	zero
   6:	0000                	unimp
   8:	0000                	unimp
   a:	0004                	.insn	2, 0x0004
   c:	0000                	unimp
   e:	0000                	unimp
  10:	0016                	c.slli	zero,0x5
  12:	0000                	unimp
  14:	00a0                	addi	s0,sp,72
	...

Disassembly of section .debug_rnglists:

00000000 <.debug_rnglists>:
   0:	0142                	slli	sp,sp,0x10
   2:	0000                	unimp
   4:	0005                	c.nop	1
   6:	0004                	.insn	2, 0x0004
   8:	0000                	unimp
   a:	0000                	unimp
   c:	2206                	.insn	2, 0x2206
   e:	0000                	unimp
  10:	2a00                	.insn	2, 0x2a00
  12:	0000                	unimp
  14:	0600                	addi	s0,sp,768
  16:	0066                	c.slli	zero,0x19
  18:	0000                	unimp
  1a:	006a                	c.slli	zero,0x1a
  1c:	0000                	unimp
  1e:	0600                	addi	s0,sp,768
  20:	002a                	c.slli	zero,0xa
  22:	0000                	unimp
  24:	002e                	c.slli	zero,0xb
  26:	0000                	unimp
  28:	6a06                	.insn	2, 0x6a06
  2a:	0000                	unimp
  2c:	6e00                	.insn	2, 0x6e00
  2e:	0000                	unimp
  30:	0000                	unimp
  32:	2e06                	.insn	2, 0x2e06
  34:	0000                	unimp
  36:	3200                	.insn	2, 0x3200
  38:	0000                	unimp
  3a:	0600                	addi	s0,sp,768
  3c:	006e                	c.slli	zero,0x1b
  3e:	0000                	unimp
  40:	0072                	c.slli	zero,0x1c
  42:	0000                	unimp
  44:	0600                	addi	s0,sp,768
  46:	0032                	c.slli	zero,0xc
  48:	0000                	unimp
  4a:	0036                	c.slli	zero,0xd
  4c:	0000                	unimp
  4e:	7206                	.insn	2, 0x7206
  50:	0000                	unimp
  52:	7600                	.insn	2, 0x7600
  54:	0000                	unimp
  56:	0000                	unimp
  58:	3606                	.insn	2, 0x3606
  5a:	0000                	unimp
  5c:	3a00                	.insn	2, 0x3a00
  5e:	0000                	unimp
  60:	0600                	addi	s0,sp,768
  62:	0076                	c.slli	zero,0x1d
  64:	0000                	unimp
  66:	007a                	c.slli	zero,0x1e
  68:	0000                	unimp
  6a:	0600                	addi	s0,sp,768
  6c:	003a                	c.slli	zero,0xe
  6e:	0000                	unimp
  70:	003e                	c.slli	zero,0xf
  72:	0000                	unimp
  74:	7a06                	.insn	2, 0x7a06
  76:	0000                	unimp
  78:	7e00                	.insn	2, 0x7e00
  7a:	0000                	unimp
  7c:	0000                	unimp
  7e:	3e06                	.insn	2, 0x3e06
  80:	0000                	unimp
  82:	4200                	lw	s0,0(a2)
  84:	0000                	unimp
  86:	0600                	addi	s0,sp,768
  88:	007e                	c.slli	zero,0x1f
  8a:	0000                	unimp
  8c:	0082                	c.slli64	ra
  8e:	0000                	unimp
  90:	0600                	addi	s0,sp,768
  92:	0042                	c.slli	zero,0x10
  94:	0000                	unimp
  96:	0046                	c.slli	zero,0x11
  98:	0000                	unimp
  9a:	8206                	mv	tp,ra
  9c:	0000                	unimp
  9e:	8600                	.insn	2, 0x8600
  a0:	0000                	unimp
  a2:	0000                	unimp
  a4:	4606                	lw	a2,64(sp)
  a6:	0000                	unimp
  a8:	4a00                	lw	s0,16(a2)
  aa:	0000                	unimp
  ac:	0600                	addi	s0,sp,768
  ae:	0086                	slli	ra,ra,0x1
  b0:	0000                	unimp
  b2:	008a                	slli	ra,ra,0x2
  b4:	0000                	unimp
  b6:	0600                	addi	s0,sp,768
  b8:	004a                	c.slli	zero,0x12
  ba:	0000                	unimp
  bc:	004e                	c.slli	zero,0x13
  be:	0000                	unimp
  c0:	8a06                	mv	s4,ra
  c2:	0000                	unimp
  c4:	8e00                	.insn	2, 0x8e00
  c6:	0000                	unimp
  c8:	0000                	unimp
  ca:	4e06                	lw	t3,64(sp)
  cc:	0000                	unimp
  ce:	5200                	lw	s0,32(a2)
  d0:	0000                	unimp
  d2:	0600                	addi	s0,sp,768
  d4:	008e                	slli	ra,ra,0x3
  d6:	0000                	unimp
  d8:	0092                	slli	ra,ra,0x4
  da:	0000                	unimp
  dc:	0600                	addi	s0,sp,768
  de:	0052                	c.slli	zero,0x14
  e0:	0000                	unimp
  e2:	0056                	c.slli	zero,0x15
  e4:	0000                	unimp
  e6:	9206                	add	tp,tp,ra
  e8:	0000                	unimp
  ea:	9600                	.insn	2, 0x9600
  ec:	0000                	unimp
  ee:	0000                	unimp
  f0:	5606                	lw	a2,96(sp)
  f2:	0000                	unimp
  f4:	5a00                	lw	s0,48(a2)
  f6:	0000                	unimp
  f8:	0600                	addi	s0,sp,768
  fa:	0096                	slli	ra,ra,0x5
  fc:	0000                	unimp
  fe:	009a                	slli	ra,ra,0x6
 100:	0000                	unimp
 102:	0600                	addi	s0,sp,768
 104:	005a                	c.slli	zero,0x16
 106:	0000                	unimp
 108:	005e                	c.slli	zero,0x17
 10a:	0000                	unimp
 10c:	9a06                	add	s4,s4,ra
 10e:	0000                	unimp
 110:	9e00                	.insn	2, 0x9e00
 112:	0000                	unimp
 114:	0000                	unimp
 116:	5e06                	lw	t3,96(sp)
 118:	0000                	unimp
 11a:	6200                	.insn	2, 0x6200
 11c:	0000                	unimp
 11e:	0600                	addi	s0,sp,768
 120:	009e                	slli	ra,ra,0x7
 122:	0000                	unimp
 124:	00a2                	slli	ra,ra,0x8
 126:	0000                	unimp
 128:	0600                	addi	s0,sp,768
 12a:	0062                	c.slli	zero,0x18
 12c:	0000                	unimp
 12e:	0066                	c.slli	zero,0x19
 130:	0000                	unimp
 132:	a206                	.insn	2, 0xa206
 134:	0000                	unimp
 136:	a600                	.insn	2, 0xa600
 138:	0000                	unimp
 13a:	0000                	unimp
 13c:	1606                	slli	a2,a2,0x21
 13e:	0000                	unimp
 140:	b600                	.insn	2, 0xb600
 142:	0000                	unimp
	...

Disassembly of section .debug_line:

00000000 <.debug_line>:
   0:	028a                	slli	t0,t0,0x2
   2:	0000                	unimp
   4:	0005                	c.nop	1
   6:	0004                	.insn	2, 0x0004
   8:	00000033          	add	zero,zero,zero
   c:	0101                	addi	sp,sp,0
   e:	fb01                	bnez	a4,ffffff1e <__heap_start+0xffffef1e>
  10:	0d0e                	slli	s10,s10,0x3
  12:	0100                	addi	s0,sp,128
  14:	0101                	addi	sp,sp,0
  16:	0001                	nop
  18:	0000                	unimp
  1a:	0001                	nop
  1c:	0100                	addi	s0,sp,128
  1e:	0101                	addi	sp,sp,0
  20:	021f 0000 0000      	.insn	6, 0x021f
  26:	0000002b          	.insn	4, 0x002b
  2a:	0102                	c.slli64	sp
  2c:	021f 030f 0020      	.insn	6, 0x0020030f021f
  32:	0000                	unimp
  34:	2001                	jal	34 <main+0x1e>
  36:	0000                	unimp
  38:	0100                	addi	s0,sp,128
  3a:	003d                	c.nop	15
  3c:	0000                	unimp
  3e:	0500                	addi	s0,sp,640
  40:	0205000b          	.insn	4, 0x0205000b
  44:	0016                	c.slli	zero,0x5
  46:	0000                	unimp
  48:	0514                	addi	a3,sp,640
  4a:	0302                	c.slli64	t1
  4c:	0901                	addi	s2,s2,0
  4e:	0000                	unimp
  50:	0301                	addi	t1,t1,0
  52:	0901                	addi	s2,s2,0
  54:	0000                	unimp
  56:	0501                	addi	a0,a0,0
  58:	000c                	.insn	2, 0x000c
  5a:	0402                	c.slli64	s0
  5c:	0301                	addi	t1,t1,0
  5e:	0900                	addi	s0,sp,144
  60:	0000                	unimp
  62:	0501                	addi	a0,a0,0
  64:	7e03060b          	.insn	4, 0x7e03060b
  68:	0009                	c.nop	2
  6a:	0100                	addi	s0,sp,128
  6c:	08090003          	lb	zero,128(s2)
  70:	0100                	addi	s0,sp,128
  72:	0204                	addi	s1,sp,256
  74:	2d05                	jal	6a4 <__bss_end+0x5ee>
  76:	04091103          	lh	sp,64(s2)
  7a:	0100                	addi	s0,sp,128
  7c:	0104                	addi	s1,sp,128
  7e:	0305                	addi	t1,t1,1
  80:	0306                	slli	t1,t1,0x1
  82:	0972                	slli	s2,s2,0x1c
  84:	0044                	addi	s1,sp,4
  86:	0401                	addi	s0,s0,0
  88:	0502                	c.slli64	a0
  8a:	0302                	c.slli64	t1
  8c:	090e                	slli	s2,s2,0x3
  8e:	0000                	unimp
  90:	0501                	addi	a0,a0,0
  92:	062d                	addi	a2,a2,11
  94:	00090003          	lb	zero,0(s2)
  98:	0100                	addi	s0,sp,128
  9a:	0104                	addi	s1,sp,128
  9c:	0305                	addi	t1,t1,1
  9e:	0306                	slli	t1,t1,0x1
  a0:	00040973          	.insn	4, 0x00040973
  a4:	0401                	addi	s0,s0,0
  a6:	0502                	c.slli64	a0
  a8:	0302                	c.slli64	t1
  aa:	090d                	addi	s2,s2,3
  ac:	0000                	unimp
  ae:	0501                	addi	a0,a0,0
  b0:	062d                	addi	a2,a2,11
  b2:	00090003          	lb	zero,0(s2)
  b6:	0100                	addi	s0,sp,128
  b8:	0104                	addi	s1,sp,128
  ba:	0305                	addi	t1,t1,1
  bc:	0306                	slli	t1,t1,0x1
  be:	0974                	addi	a3,sp,156
  c0:	0004                	.insn	2, 0x0004
  c2:	0401                	addi	s0,s0,0
  c4:	0502                	c.slli64	a0
  c6:	0302                	c.slli64	t1
  c8:	090c                	addi	a1,sp,144
  ca:	0000                	unimp
  cc:	0501                	addi	a0,a0,0
  ce:	062d                	addi	a2,a2,11
  d0:	00090003          	lb	zero,0(s2)
  d4:	0100                	addi	s0,sp,128
  d6:	0104                	addi	s1,sp,128
  d8:	0305                	addi	t1,t1,1
  da:	0306                	slli	t1,t1,0x1
  dc:	0975                	addi	s2,s2,29
  de:	0004                	.insn	2, 0x0004
  e0:	0401                	addi	s0,s0,0
  e2:	0502                	c.slli64	a0
  e4:	0302                	c.slli64	t1
  e6:	0000090b          	.insn	4, 0x090b
  ea:	0501                	addi	a0,a0,0
  ec:	062d                	addi	a2,a2,11
  ee:	00090003          	lb	zero,0(s2)
  f2:	0100                	addi	s0,sp,128
  f4:	0104                	addi	s1,sp,128
  f6:	0305                	addi	t1,t1,1
  f8:	0306                	slli	t1,t1,0x1
  fa:	0976                	slli	s2,s2,0x1d
  fc:	0004                	.insn	2, 0x0004
  fe:	0401                	addi	s0,s0,0
 100:	0502                	c.slli64	a0
 102:	0302                	c.slli64	t1
 104:	090a                	slli	s2,s2,0x2
 106:	0000                	unimp
 108:	0501                	addi	a0,a0,0
 10a:	062d                	addi	a2,a2,11
 10c:	00090003          	lb	zero,0(s2)
 110:	0100                	addi	s0,sp,128
 112:	0104                	addi	s1,sp,128
 114:	0305                	addi	t1,t1,1
 116:	0306                	slli	t1,t1,0x1
 118:	00040977          	.insn	4, 0x00040977
 11c:	0401                	addi	s0,s0,0
 11e:	0502                	c.slli64	a0
 120:	0302                	c.slli64	t1
 122:	0909                	addi	s2,s2,2
 124:	0000                	unimp
 126:	0501                	addi	a0,a0,0
 128:	062d                	addi	a2,a2,11
 12a:	00090003          	lb	zero,0(s2)
 12e:	0100                	addi	s0,sp,128
 130:	0104                	addi	s1,sp,128
 132:	0305                	addi	t1,t1,1
 134:	0306                	slli	t1,t1,0x1
 136:	0978                	addi	a4,sp,156
 138:	0004                	.insn	2, 0x0004
 13a:	0401                	addi	s0,s0,0
 13c:	0502                	c.slli64	a0
 13e:	0302                	c.slli64	t1
 140:	0908                	addi	a0,sp,144
 142:	0000                	unimp
 144:	0501                	addi	a0,a0,0
 146:	062d                	addi	a2,a2,11
 148:	00090003          	lb	zero,0(s2)
 14c:	0100                	addi	s0,sp,128
 14e:	0104                	addi	s1,sp,128
 150:	0305                	addi	t1,t1,1
 152:	0306                	slli	t1,t1,0x1
 154:	0979                	addi	s2,s2,30
 156:	0004                	.insn	2, 0x0004
 158:	0401                	addi	s0,s0,0
 15a:	0502                	c.slli64	a0
 15c:	0302                	c.slli64	t1
 15e:	00000907          	.insn	4, 0x0907
 162:	0501                	addi	a0,a0,0
 164:	062d                	addi	a2,a2,11
 166:	00090003          	lb	zero,0(s2)
 16a:	0100                	addi	s0,sp,128
 16c:	0104                	addi	s1,sp,128
 16e:	0305                	addi	t1,t1,1
 170:	0306                	slli	t1,t1,0x1
 172:	097a                	slli	s2,s2,0x1e
 174:	0004                	.insn	2, 0x0004
 176:	0401                	addi	s0,s0,0
 178:	0502                	c.slli64	a0
 17a:	0302                	c.slli64	t1
 17c:	0906                	slli	s2,s2,0x1
 17e:	0000                	unimp
 180:	0501                	addi	a0,a0,0
 182:	062d                	addi	a2,a2,11
 184:	00090003          	lb	zero,0(s2)
 188:	0100                	addi	s0,sp,128
 18a:	0104                	addi	s1,sp,128
 18c:	0305                	addi	t1,t1,1
 18e:	0306                	slli	t1,t1,0x1
 190:	0004097b          	.insn	4, 0x0004097b
 194:	0401                	addi	s0,s0,0
 196:	0502                	c.slli64	a0
 198:	0302                	c.slli64	t1
 19a:	0905                	addi	s2,s2,1
 19c:	0000                	unimp
 19e:	0501                	addi	a0,a0,0
 1a0:	062d                	addi	a2,a2,11
 1a2:	00090003          	lb	zero,0(s2)
 1a6:	0100                	addi	s0,sp,128
 1a8:	0104                	addi	s1,sp,128
 1aa:	0305                	addi	t1,t1,1
 1ac:	0306                	slli	t1,t1,0x1
 1ae:	097c                	addi	a5,sp,156
 1b0:	0004                	.insn	2, 0x0004
 1b2:	0401                	addi	s0,s0,0
 1b4:	0502                	c.slli64	a0
 1b6:	0302                	c.slli64	t1
 1b8:	0904                	addi	s1,sp,144
 1ba:	0000                	unimp
 1bc:	0501                	addi	a0,a0,0
 1be:	062d                	addi	a2,a2,11
 1c0:	00090003          	lb	zero,0(s2)
 1c4:	0100                	addi	s0,sp,128
 1c6:	0104                	addi	s1,sp,128
 1c8:	0305                	addi	t1,t1,1
 1ca:	0306                	slli	t1,t1,0x1
 1cc:	097d                	addi	s2,s2,31
 1ce:	0004                	.insn	2, 0x0004
 1d0:	0401                	addi	s0,s0,0
 1d2:	0502                	c.slli64	a0
 1d4:	0302                	c.slli64	t1
 1d6:	00000903          	lb	s2,0(zero) # 0 <_start>
 1da:	0501                	addi	a0,a0,0
 1dc:	062d                	addi	a2,a2,11
 1de:	00090003          	lb	zero,0(s2)
 1e2:	0100                	addi	s0,sp,128
 1e4:	0104                	addi	s1,sp,128
 1e6:	0305                	addi	t1,t1,1
 1e8:	0306                	slli	t1,t1,0x1
 1ea:	097e                	slli	s2,s2,0x1f
 1ec:	0004                	.insn	2, 0x0004
 1ee:	0401                	addi	s0,s0,0
 1f0:	0502                	c.slli64	a0
 1f2:	0302                	c.slli64	t1
 1f4:	0902                	c.slli64	s2
 1f6:	0000                	unimp
 1f8:	0501                	addi	a0,a0,0
 1fa:	062d                	addi	a2,a2,11
 1fc:	00090003          	lb	zero,0(s2)
 200:	0100                	addi	s0,sp,128
 202:	0104                	addi	s1,sp,128
 204:	0305                	addi	t1,t1,1
 206:	0306                	slli	t1,t1,0x1
 208:	097f 0004 0401 0502 	.insn	10, 0x0302050204010004097f
 210:	0302 
 212:	0901                	addi	s2,s2,0
 214:	0000                	unimp
 216:	0501                	addi	a0,a0,0
 218:	062d                	addi	a2,a2,11
 21a:	00090003          	lb	zero,0(s2)
 21e:	0100                	addi	s0,sp,128
 220:	0104                	addi	s1,sp,128
 222:	0305                	addi	t1,t1,1
 224:	0306                	slli	t1,t1,0x1
 226:	0900                	addi	s0,sp,144
 228:	0004                	.insn	2, 0x0004
 22a:	0401                	addi	s0,s0,0
 22c:	0502                	c.slli64	a0
 22e:	0302                	c.slli64	t1
 230:	0900                	addi	s0,sp,144
 232:	0000                	unimp
 234:	0501                	addi	a0,a0,0
 236:	062d                	addi	a2,a2,11
 238:	00090003          	lb	zero,0(s2)
 23c:	0100                	addi	s0,sp,128
 23e:	0104                	addi	s1,sp,128
 240:	0305                	addi	t1,t1,1
 242:	0306                	slli	t1,t1,0x1
 244:	0901                	addi	s2,s2,0
 246:	0004                	.insn	2, 0x0004
 248:	0401                	addi	s0,s0,0
 24a:	0502                	c.slli64	a0
 24c:	0302                	c.slli64	t1
 24e:	097f 0000 0501 062d 	.insn	10, 0x0003062d05010000097f
 256:	0003 
 258:	0009                	c.nop	2
 25a:	0100                	addi	s0,sp,128
 25c:	0104                	addi	s1,sp,128
 25e:	1605                	addi	a2,a2,-31
 260:	0200                	addi	s0,sp,256
 262:	0204                	addi	s1,sp,256
 264:	0306                	slli	t1,t1,0x1
 266:	0971                	addi	s2,s2,28
 268:	0004                	.insn	2, 0x0004
 26a:	0501                	addi	a0,a0,0
 26c:	000c                	.insn	2, 0x000c
 26e:	0402                	c.slli64	s0
 270:	0301                	addi	t1,t1,0
 272:	0900                	addi	s0,sp,144
 274:	0000                	unimp
 276:	0501                	addi	a0,a0,0
 278:	0302                	c.slli64	t1
 27a:	0912                	slli	s2,s2,0x4
 27c:	0004                	.insn	2, 0x0004
 27e:	0501                	addi	a0,a0,0
 280:	0601                	addi	a2,a2,0
 282:	00090103          	lb	sp,0(s2)
 286:	0100                	addi	s0,sp,128
 288:	0c09                	addi	s8,s8,2
 28a:	0000                	unimp
 28c:	0101                	addi	sp,sp,0

Disassembly of section .debug_str:

00000000 <.debug_str>:
   0:	20554e47          	.insn	4, 0x20554e47
   4:	20373143          	.insn	4, 0x20373143
   8:	3431                	jal	fffffa14 <__heap_start+0xffffea14>
   a:	312e                	.insn	2, 0x312e
   c:	302e                	.insn	2, 0x302e
   e:	2d20                	.insn	2, 0x2d20
  10:	616d                	addi	sp,sp,240
  12:	6962                	.insn	2, 0x6962
  14:	693d                	lui	s2,0xf
  16:	706c                	.insn	2, 0x706c
  18:	2d203233          	.insn	4, 0x2d203233
  1c:	696d                	lui	s2,0x1b
  1e:	732d6173          	.insn	4, 0x732d6173
  22:	6570                	.insn	2, 0x6570
  24:	30323d63          	.insn	4, 0x30323d63
  28:	3931                	jal	fffffc44 <__heap_start+0xffffec44>
  2a:	3231                	jal	fffff936 <__heap_start+0xffffe936>
  2c:	3331                	jal	fffffd38 <__heap_start+0xffffed38>
  2e:	2d20                	.insn	2, 0x2d20
  30:	616d                	addi	sp,sp,240
  32:	6372                	.insn	2, 0x6372
  34:	3d68                	.insn	2, 0x3d68
  36:	7672                	.insn	2, 0x7672
  38:	63693233          	.insn	4, 0x63693233
  3c:	2d20                	.insn	2, 0x2d20
  3e:	4f2d2067          	.insn	4, 0x4f2d2067
  42:	2032                	.insn	2, 0x2032
  44:	732d                	lui	t1,0xfffeb
  46:	6474                	.insn	2, 0x6474
  48:	633d                	lui	t1,0xf
  4a:	3731                	jal	ffffff56 <__heap_start+0xffffef56>
  4c:	6f00                	.insn	2, 0x6f00
  4e:	7475                	lui	s0,0xffffd
  50:	0062                	c.slli	zero,0x18
  52:	6164                	.insn	2, 0x6164
  54:	6174                	.insn	2, 0x6174
  56:	7500                	.insn	2, 0x7500
  58:	736e                	.insn	2, 0x736e
  5a:	6769                	lui	a4,0x1a
  5c:	656e                	.insn	2, 0x656e
  5e:	2064                	.insn	2, 0x2064
  60:	72616863          	bltu	sp,t1,790 <__bss_end+0x6da>
  64:	6d00                	.insn	2, 0x6d00
  66:	6961                	lui	s2,0x18
  68:	006e                	c.slli	zero,0x1b

Disassembly of section .debug_line_str:

00000000 <.debug_line_str>:
   0:	7070612f          	.insn	4, 0x7070612f
   4:	7365742f          	.insn	4, 0x7365742f
   8:	6374                	.insn	2, 0x6374
   a:	7361                	lui	t1,0xffff8
   c:	0065                	c.nop	25
   e:	7070612f          	.insn	4, 0x7070612f
  12:	7365742f          	.insn	4, 0x7365742f
  16:	6374                	.insn	2, 0x6374
  18:	7361                	lui	t1,0xffff8
  1a:	2f65                	jal	7d2 <__bss_end+0x71c>
  1c:	2f6d6973          	.insn	4, 0x2f6d6973
  20:	6175                	addi	sp,sp,368
  22:	7472                	.insn	2, 0x7472
  24:	6f62                	.insn	2, 0x6f62
  26:	632e6d6f          	jal	s10,e6658 <__heap_start+0xe5658>
  2a:	2f00                	.insn	2, 0x2f00
  2c:	7061                	c.lui	zero,0xffff8
  2e:	2f70                	.insn	2, 0x2f70
  30:	6574                	.insn	2, 0x6574
  32:	61637473          	.insn	4, 0x61637473
  36:	732f6573          	.insn	4, 0x732f6573
  3a:	6d69                	lui	s10,0x1a
  3c:	6900                	.insn	2, 0x6900
  3e:	00682e6f          	jal	t3,82044 <__heap_start+0x81044>

Disassembly of section .debug_frame:

00000000 <.debug_frame>:
   0:	000c                	.insn	2, 0x000c
   2:	0000                	unimp
   4:	ffff                	.insn	2, 0xffff
   6:	ffff                	.insn	2, 0xffff
   8:	7c010003          	lb	zero,1984(sp)
   c:	0d01                	addi	s10,s10,0 # 1a000 <__heap_start+0x19000>
   e:	0002                	c.slli64	zero
  10:	0020                	addi	s0,sp,8
  12:	0000                	unimp
  14:	0000                	unimp
  16:	0000                	unimp
  18:	0016                	c.slli	zero,0x5
  1a:	0000                	unimp
  1c:	00a0                	addi	s0,sp,72
  1e:	0000                	unimp
  20:	0e42                	slli	t3,t3,0x10
  22:	4610                	lw	a2,8(a2)
  24:	0188                	addi	a0,sp,192
  26:	0289                	addi	t0,t0,2
  28:	0392                	slli	t2,t2,0x4
  2a:	8e02                	jr	t3
  2c:	42c8                	lw	a0,4(a3)
  2e:	42c9                	li	t0,18
  30:	44d2                	lw	s1,20(sp)
  32:	000e                	c.slli	zero,0x3
