
/app/testcase/sim/uartboom.elf:     file format elf32-littleriscv


Disassembly of section .text:

00000000 <_start>:
   0:	00020137          	lui	sp,0x20
   4:	012000ef          	jal	16 <main>
   8:	0ff00513          	li	a0,255
   c:	000306b7          	lui	a3,0x30
  10:	00a68223          	sb	a0,4(a3) # 30004 <__heap_start+0x2f004>
  14:	bfe5                	j	c <_start+0xc>

Disassembly of section .text.startup:

00000016 <main>:
  16:	1141                	addi	sp,sp,-16 # 1fff0 <__heap_start+0x1eff0>
  18:	c622                	sw	s0,12(sp)
  1a:	c426                	sw	s1,8(sp)
  1c:	c24a                	sw	s2,4(sp)
  1e:	1ff00713          	li	a4,511
  22:	000307b7          	lui	a5,0x30
  26:	06100913          	li	s2,97
  2a:	06200493          	li	s1,98
  2e:	06300413          	li	s0,99
  32:	06400393          	li	t2,100
  36:	06500293          	li	t0,101
  3a:	06600f93          	li	t6,102
  3e:	06700f13          	li	t5,103
  42:	06800e93          	li	t4,104
  46:	06900e13          	li	t3,105
  4a:	06a00313          	li	t1,106
  4e:	06b00893          	li	a7,107
  52:	06c00813          	li	a6,108
  56:	06d00513          	li	a0,109
  5a:	06e00593          	li	a1,110
  5e:	06f00613          	li	a2,111
  62:	07000693          	li	a3,112
  66:	01278023          	sb	s2,0(a5) # 30000 <__heap_start+0x2f000>
  6a:	00978023          	sb	s1,0(a5)
  6e:	00878023          	sb	s0,0(a5)
  72:	00778023          	sb	t2,0(a5)
  76:	00578023          	sb	t0,0(a5)
  7a:	01f78023          	sb	t6,0(a5)
  7e:	01e78023          	sb	t5,0(a5)
  82:	01d78023          	sb	t4,0(a5)
  86:	01c78023          	sb	t3,0(a5)
  8a:	00678023          	sb	t1,0(a5)
  8e:	01178023          	sb	a7,0(a5)
  92:	01078023          	sb	a6,0(a5)
  96:	00a78023          	sb	a0,0(a5)
  9a:	00b78023          	sb	a1,0(a5)
  9e:	00c78023          	sb	a2,0(a5)
  a2:	00d78023          	sb	a3,0(a5)
  a6:	177d                	addi	a4,a4,-1
  a8:	ff5d                	bnez	a4,66 <main+0x50>
  aa:	4432                	lw	s0,12(sp)
  ac:	44a2                	lw	s1,8(sp)
  ae:	4912                	lw	s2,4(sp)
  b0:	4501                	li	a0,0
  b2:	0141                	addi	sp,sp,16
  b4:	8082                	ret
